GAS LISTING /tmp/ccFPPxUj.s 			page 1


   1              		.file	"CSemaphore.cpp"
   2              		.option pic
   3              		.option norelax
   4              		.text
   5              	.Ltext0:
   6              		.align	2
   7              		.globl	_ZN10CSemaphore5blockEv
   9              	_ZN10CSemaphore5blockEv:
  10              	.LFB14:
  11              		.file 1 "src/CSemaphore.cpp"
   1:src/CSemaphore.cpp **** //
   2:src/CSemaphore.cpp **** // Created by os on 6/26/22.
   3:src/CSemaphore.cpp **** //
   4:src/CSemaphore.cpp **** 
   5:src/CSemaphore.cpp **** #include "../h/CSemaphore.h"
   6:src/CSemaphore.cpp **** 
   7:src/CSemaphore.cpp **** int CSemaphore::wait() {
   8:src/CSemaphore.cpp ****     if(--val<0) {
   9:src/CSemaphore.cpp ****         block();
  10:src/CSemaphore.cpp ****         CThread::yield();
  11:src/CSemaphore.cpp ****     }
  12:src/CSemaphore.cpp ****     return 0;
  13:src/CSemaphore.cpp **** }
  14:src/CSemaphore.cpp **** 
  15:src/CSemaphore.cpp **** int CSemaphore::signal() {
  16:src/CSemaphore.cpp ****     if(++val <= 0) {
  17:src/CSemaphore.cpp ****         CThread *t = unblock();
  18:src/CSemaphore.cpp ****         if(t) {
  19:src/CSemaphore.cpp ****             Scheduler::getInstance().put(t);
  20:src/CSemaphore.cpp ****             return 0;
  21:src/CSemaphore.cpp ****         }
  22:src/CSemaphore.cpp ****         else
  23:src/CSemaphore.cpp ****             return -1;
  24:src/CSemaphore.cpp ****     }
  25:src/CSemaphore.cpp ****     return 0;
  26:src/CSemaphore.cpp **** }
  27:src/CSemaphore.cpp **** 
  28:src/CSemaphore.cpp **** void CSemaphore::block() {//uvek blokira running
  12              		.loc 1 28 26
  13              		.cfi_startproc
  14              	.LVL0:
  15 0000 130101FF 		addi	sp,sp,-16
  16              		.cfi_def_cfa_offset 16
  17 0004 23348100 		sd	s0,8(sp)
  18              		.cfi_offset 8, -8
  19 0008 13040101 		addi	s0,sp,16
  20              		.cfi_def_cfa 8, 0
  29:src/CSemaphore.cpp ****     CThread::running->status = CThread::BLOCKED;
  21              		.loc 1 29 5
  22              		.loc 1 29 23 is_stmt 0
  23 000c 97070000 		la	a5,_ZN7CThread7runningE
  23      83B70700 
  24 0014 83B70700 		ld	a5,0(a5)
  25              		.loc 1 29 30
  26 0018 13073000 		li	a4,3
  27 001c 23A8E700 		sw	a4,16(a5)
  30:src/CSemaphore.cpp **** 
GAS LISTING /tmp/ccFPPxUj.s 			page 2


  31:src/CSemaphore.cpp ****     if(headBlck== nullptr){
  28              		.loc 1 31 5 is_stmt 1
  29              		.loc 1 31 8 is_stmt 0
  30 0020 03378500 		ld	a4,8(a0)
  31              		.loc 1 31 5
  32 0024 63040702 		beqz	a4,.L5
  32:src/CSemaphore.cpp ****         headBlck=tailBlck=CThread::running;
  33:src/CSemaphore.cpp ****         CThread::running->next= nullptr;
  34:src/CSemaphore.cpp ****         return;
  35:src/CSemaphore.cpp ****     }
  36:src/CSemaphore.cpp ****     else{
  37:src/CSemaphore.cpp ****         tailBlck->next=CThread::running;
  33              		.loc 1 37 9 is_stmt 1
  34 0028 03370501 		ld	a4,16(a0)
  35              		.loc 1 37 23 is_stmt 0
  36 002c 2334F700 		sd	a5,8(a4)
  38:src/CSemaphore.cpp ****         tailBlck=tailBlck->next;
  37              		.loc 1 38 9 is_stmt 1
  38              		.loc 1 38 18 is_stmt 0
  39 0030 83370501 		ld	a5,16(a0)
  40              		.loc 1 38 28
  41 0034 83B78700 		ld	a5,8(a5)
  42              		.loc 1 38 17
  43 0038 2338F500 		sd	a5,16(a0)
  39:src/CSemaphore.cpp ****         tailBlck->next= nullptr;
  44              		.loc 1 39 9 is_stmt 1
  45              		.loc 1 39 23 is_stmt 0
  46 003c 23B40700 		sd	zero,8(a5)
  47              	.L1:
  40:src/CSemaphore.cpp ****     }
  41:src/CSemaphore.cpp **** 
  42:src/CSemaphore.cpp **** }
  48              		.loc 1 42 1
  49 0040 03348100 		ld	s0,8(sp)
  50              		.cfi_remember_state
  51              		.cfi_restore 8
  52              		.cfi_def_cfa 2, 16
  53 0044 13010101 		addi	sp,sp,16
  54              		.cfi_def_cfa_offset 0
  55 0048 67800000 		jr	ra
  56              	.L5:
  57              		.cfi_restore_state
  32:src/CSemaphore.cpp ****         CThread::running->next= nullptr;
  58              		.loc 1 32 9 is_stmt 1
  32:src/CSemaphore.cpp ****         CThread::running->next= nullptr;
  59              		.loc 1 32 26 is_stmt 0
  60 004c 2338F500 		sd	a5,16(a0)
  32:src/CSemaphore.cpp ****         CThread::running->next= nullptr;
  61              		.loc 1 32 17
  62 0050 2334F500 		sd	a5,8(a0)
  33:src/CSemaphore.cpp ****         return;
  63              		.loc 1 33 9 is_stmt 1
  33:src/CSemaphore.cpp ****         return;
  64              		.loc 1 33 31 is_stmt 0
  65 0054 23B40700 		sd	zero,8(a5)
  34:src/CSemaphore.cpp ****     }
  66              		.loc 1 34 9 is_stmt 1
GAS LISTING /tmp/ccFPPxUj.s 			page 3


  67 0058 6FF09FFE 		j	.L1
  68              		.cfi_endproc
  69              	.LFE14:
  71              		.align	2
  72              		.globl	_ZN10CSemaphore4waitEv
  74              	_ZN10CSemaphore4waitEv:
  75              	.LFB12:
   7:src/CSemaphore.cpp ****     if(--val<0) {
  76              		.loc 1 7 24
  77              		.cfi_startproc
  78              	.LVL1:
   8:src/CSemaphore.cpp ****         block();
  79              		.loc 1 8 5
   8:src/CSemaphore.cpp ****         block();
  80              		.loc 1 8 10 is_stmt 0
  81 005c 83270500 		lw	a5,0(a0)
   8:src/CSemaphore.cpp ****         block();
  82              		.loc 1 8 8
  83 0060 9B87F7FF 		addiw	a5,a5,-1
   8:src/CSemaphore.cpp ****         block();
  84              		.loc 1 8 13
  85 0064 2320F500 		sw	a5,0(a0)
   8:src/CSemaphore.cpp ****         block();
  86              		.loc 1 8 5
  87 0068 13970702 		slli	a4,a5,32
  88 006c 63460700 		bltz	a4,.L12
  12:src/CSemaphore.cpp **** }
  89              		.loc 1 12 5 is_stmt 1
  13:src/CSemaphore.cpp **** 
  90              		.loc 1 13 1 is_stmt 0
  91 0070 13050000 		li	a0,0
  92              	.LVL2:
  93 0074 67800000 		ret
  94              	.LVL3:
  95              	.L12:
   7:src/CSemaphore.cpp ****     if(--val<0) {
  96              		.loc 1 7 24
  97 0078 130101FF 		addi	sp,sp,-16
  98              		.cfi_def_cfa_offset 16
  99 007c 23341100 		sd	ra,8(sp)
 100 0080 23308100 		sd	s0,0(sp)
 101              		.cfi_offset 1, -8
 102              		.cfi_offset 8, -16
 103 0084 13040101 		addi	s0,sp,16
 104              		.cfi_def_cfa 8, 0
   9:src/CSemaphore.cpp ****         CThread::yield();
 105              		.loc 1 9 9 is_stmt 1
   9:src/CSemaphore.cpp ****         CThread::yield();
 106              		.loc 1 9 14 is_stmt 0
 107 0088 97000000 		call	_ZN10CSemaphore5blockEv
 107      E7800000 
 108              	.LVL4:
  10:src/CSemaphore.cpp ****     }
 109              		.loc 1 10 9 is_stmt 1
  10:src/CSemaphore.cpp ****     }
 110              		.loc 1 10 23 is_stmt 0
 111 0090 97000000 		call	_ZN7CThread5yieldEv@plt
GAS LISTING /tmp/ccFPPxUj.s 			page 4


 111      E7800000 
 112              	.LVL5:
  12:src/CSemaphore.cpp **** }
 113              		.loc 1 12 5 is_stmt 1
  13:src/CSemaphore.cpp **** 
 114              		.loc 1 13 1 is_stmt 0
 115 0098 13050000 		li	a0,0
 116 009c 83308100 		ld	ra,8(sp)
 117              		.cfi_restore 1
 118 00a0 03340100 		ld	s0,0(sp)
 119              		.cfi_restore 8
 120              		.cfi_def_cfa 2, 16
 121 00a4 13010101 		addi	sp,sp,16
 122              		.cfi_def_cfa_offset 0
 123 00a8 67800000 		jr	ra
 124              		.cfi_endproc
 125              	.LFE12:
 127              		.align	2
 128              		.globl	_ZN10CSemaphore7unblockEv
 130              	_ZN10CSemaphore7unblockEv:
 131              	.LFB15:
  43:src/CSemaphore.cpp **** 
  44:src/CSemaphore.cpp **** CThread *CSemaphore::unblock() {
 132              		.loc 1 44 32 is_stmt 1
 133              		.cfi_startproc
 134              	.LVL6:
 135 00ac 130101FF 		addi	sp,sp,-16
 136              		.cfi_def_cfa_offset 16
 137 00b0 23348100 		sd	s0,8(sp)
 138              		.cfi_offset 8, -8
 139 00b4 13040101 		addi	s0,sp,16
 140              		.cfi_def_cfa 8, 0
 141 00b8 93070500 		mv	a5,a0
  45:src/CSemaphore.cpp ****     if(headBlck==nullptr)return nullptr;
 142              		.loc 1 45 5
 143              		.loc 1 45 8 is_stmt 0
 144 00bc 03358500 		ld	a0,8(a0)
 145              	.LVL7:
 146              		.loc 1 45 5
 147 00c0 630E0500 		beqz	a0,.L13
  46:src/CSemaphore.cpp **** 
  47:src/CSemaphore.cpp ****     if(tailBlck==headBlck){
 148              		.loc 1 47 5 is_stmt 1
 149              	.LBB9:
 150              		.loc 1 47 8 is_stmt 0
 151 00c4 03B70701 		ld	a4,16(a5)
 152              		.loc 1 47 5
 153 00c8 6300E502 		beq	a0,a4,.L17
 154              	.LBE9:
  48:src/CSemaphore.cpp ****         CThread* ret = headBlck;
  49:src/CSemaphore.cpp ****         tailBlck= nullptr;
  50:src/CSemaphore.cpp ****         headBlck= nullptr;
  51:src/CSemaphore.cpp ****         ret->status = CThread::READY;
  52:src/CSemaphore.cpp ****         return ret;
  53:src/CSemaphore.cpp ****     }
  54:src/CSemaphore.cpp ****     CThread *ret=headBlck;
 155              		.loc 1 54 5 is_stmt 1
GAS LISTING /tmp/ccFPPxUj.s 			page 5


 156              	.LVL8:
  55:src/CSemaphore.cpp ****     headBlck=headBlck->next;
 157              		.loc 1 55 5
 158              		.loc 1 55 24 is_stmt 0
 159 00cc 03378500 		ld	a4,8(a0)
 160              		.loc 1 55 13
 161 00d0 23B4E700 		sd	a4,8(a5)
  56:src/CSemaphore.cpp ****     ret->next= nullptr;
 162              		.loc 1 56 5 is_stmt 1
 163              		.loc 1 56 14 is_stmt 0
 164 00d4 23340500 		sd	zero,8(a0)
  57:src/CSemaphore.cpp ****     ret->status = CThread::READY;
 165              		.loc 1 57 5 is_stmt 1
 166              		.loc 1 57 17 is_stmt 0
 167 00d8 23280500 		sw	zero,16(a0)
  58:src/CSemaphore.cpp ****     return ret;
 168              		.loc 1 58 5 is_stmt 1
 169              	.LVL9:
 170              	.L13:
  59:src/CSemaphore.cpp **** }
 171              		.loc 1 59 1 is_stmt 0
 172 00dc 03348100 		ld	s0,8(sp)
 173              		.cfi_remember_state
 174              		.cfi_restore 8
 175              		.cfi_def_cfa 2, 16
 176 00e0 13010101 		addi	sp,sp,16
 177              		.cfi_def_cfa_offset 0
 178 00e4 67800000 		jr	ra
 179              	.L17:
 180              		.cfi_restore_state
 181              	.LBB11:
 182              	.LBB10:
  48:src/CSemaphore.cpp ****         tailBlck= nullptr;
 183              		.loc 1 48 9 is_stmt 1
 184              	.LVL10:
  49:src/CSemaphore.cpp ****         headBlck= nullptr;
 185              		.loc 1 49 9
  49:src/CSemaphore.cpp ****         headBlck= nullptr;
 186              		.loc 1 49 17 is_stmt 0
 187 00e8 23B80700 		sd	zero,16(a5)
  50:src/CSemaphore.cpp ****         ret->status = CThread::READY;
 188              		.loc 1 50 9 is_stmt 1
  50:src/CSemaphore.cpp ****         ret->status = CThread::READY;
 189              		.loc 1 50 17 is_stmt 0
 190 00ec 23B40700 		sd	zero,8(a5)
  51:src/CSemaphore.cpp ****         return ret;
 191              		.loc 1 51 9 is_stmt 1
  51:src/CSemaphore.cpp ****         return ret;
 192              		.loc 1 51 21 is_stmt 0
 193 00f0 23280500 		sw	zero,16(a0)
  52:src/CSemaphore.cpp ****     }
 194              		.loc 1 52 9 is_stmt 1
  52:src/CSemaphore.cpp ****     }
 195              		.loc 1 52 16 is_stmt 0
 196 00f4 6FF09FFE 		j	.L13
 197              	.LBE10:
 198              	.LBE11:
GAS LISTING /tmp/ccFPPxUj.s 			page 6


 199              		.cfi_endproc
 200              	.LFE15:
 202              		.align	2
 203              		.globl	_ZN10CSemaphore6signalEv
 205              	_ZN10CSemaphore6signalEv:
 206              	.LFB13:
  15:src/CSemaphore.cpp ****     if(++val <= 0) {
 207              		.loc 1 15 26 is_stmt 1
 208              		.cfi_startproc
 209              	.LVL11:
  16:src/CSemaphore.cpp ****         CThread *t = unblock();
 210              		.loc 1 16 5
 211              	.LBB12:
  16:src/CSemaphore.cpp ****         CThread *t = unblock();
 212              		.loc 1 16 10 is_stmt 0
 213 00f8 83270500 		lw	a5,0(a0)
  16:src/CSemaphore.cpp ****         CThread *t = unblock();
 214              		.loc 1 16 8
 215 00fc 9B871700 		addiw	a5,a5,1
 216 0100 1B870700 		sext.w	a4,a5
  16:src/CSemaphore.cpp ****         CThread *t = unblock();
 217              		.loc 1 16 14
 218 0104 2320F500 		sw	a5,0(a0)
  16:src/CSemaphore.cpp ****         CThread *t = unblock();
 219              		.loc 1 16 5
 220 0108 6356E000 		blez	a4,.L26
 221              	.LBE12:
  25:src/CSemaphore.cpp **** }
 222              		.loc 1 25 12
 223 010c 13050000 		li	a0,0
 224              	.LVL12:
  26:src/CSemaphore.cpp **** 
 225              		.loc 1 26 1
 226 0110 67800000 		ret
 227              	.LVL13:
 228              	.L26:
  15:src/CSemaphore.cpp ****     if(++val <= 0) {
 229              		.loc 1 15 26
 230 0114 130101FE 		addi	sp,sp,-32
 231              		.cfi_def_cfa_offset 32
 232 0118 233C1100 		sd	ra,24(sp)
 233 011c 23388100 		sd	s0,16(sp)
 234 0120 23349100 		sd	s1,8(sp)
 235              		.cfi_offset 1, -8
 236              		.cfi_offset 8, -16
 237              		.cfi_offset 9, -24
 238 0124 13040102 		addi	s0,sp,32
 239              		.cfi_def_cfa 8, 0
 240              	.LBB15:
 241              	.LBB13:
  17:src/CSemaphore.cpp ****         if(t) {
 242              		.loc 1 17 9 is_stmt 1
  17:src/CSemaphore.cpp ****         if(t) {
 243              		.loc 1 17 29 is_stmt 0
 244 0128 97000000 		call	_ZN10CSemaphore7unblockEv
 244      E7800000 
 245              	.LVL14:
GAS LISTING /tmp/ccFPPxUj.s 			page 7


 246 0130 93040500 		mv	s1,a0
 247              	.LVL15:
  18:src/CSemaphore.cpp ****             Scheduler::getInstance().put(t);
 248              		.loc 1 18 9 is_stmt 1
 249 0134 63080502 		beqz	a0,.L21
  19:src/CSemaphore.cpp ****             return 0;
 250              		.loc 1 19 13
  19:src/CSemaphore.cpp ****             return 0;
 251              		.loc 1 19 36 is_stmt 0
 252 0138 97000000 		call	_ZN9Scheduler11getInstanceEv@plt
 252      E7800000 
 253              	.LVL16:
  19:src/CSemaphore.cpp ****             return 0;
 254              		.loc 1 19 43
 255 0140 13850400 		mv	a0,s1
 256 0144 97000000 		call	_ZN9Scheduler3putEP7CThread@plt
 256      E7800000 
 257              	.LVL17:
  20:src/CSemaphore.cpp ****         }
 258              		.loc 1 20 13 is_stmt 1
  20:src/CSemaphore.cpp ****         }
 259              		.loc 1 20 20 is_stmt 0
 260 014c 13050000 		li	a0,0
 261              	.L19:
 262              	.LBE13:
 263              	.LBE15:
  26:src/CSemaphore.cpp **** 
 264              		.loc 1 26 1
 265 0150 83308101 		ld	ra,24(sp)
 266              		.cfi_remember_state
 267              		.cfi_restore 1
 268 0154 03340101 		ld	s0,16(sp)
 269              		.cfi_restore 8
 270              		.cfi_def_cfa 2, 32
 271 0158 83348100 		ld	s1,8(sp)
 272              		.cfi_restore 9
 273              	.LVL18:
 274 015c 13010102 		addi	sp,sp,32
 275              		.cfi_def_cfa_offset 0
 276 0160 67800000 		jr	ra
 277              	.LVL19:
 278              	.L21:
 279              		.cfi_restore_state
 280              	.LBB16:
 281              	.LBB14:
  23:src/CSemaphore.cpp ****     }
 282              		.loc 1 23 21
 283 0164 1305F0FF 		li	a0,-1
 284 0168 6FF09FFE 		j	.L19
 285              	.LBE14:
 286              	.LBE16:
 287              		.cfi_endproc
 288              	.LFE13:
 290              		.align	2
 291              		.globl	_ZN10CSemaphore4openEPPS_j
 293              	_ZN10CSemaphore4openEPPS_j:
 294              	.LFB16:
GAS LISTING /tmp/ccFPPxUj.s 			page 8


  60:src/CSemaphore.cpp **** 
  61:src/CSemaphore.cpp **** int CSemaphore::open(CSemaphore **handle, unsigned int init) {
 295              		.loc 1 61 62 is_stmt 1
 296              		.cfi_startproc
 297              	.LVL20:
 298 016c 130101FE 		addi	sp,sp,-32
 299              		.cfi_def_cfa_offset 32
 300 0170 233C1100 		sd	ra,24(sp)
 301 0174 23388100 		sd	s0,16(sp)
 302 0178 23349100 		sd	s1,8(sp)
 303 017c 23302101 		sd	s2,0(sp)
 304              		.cfi_offset 1, -8
 305              		.cfi_offset 8, -16
 306              		.cfi_offset 9, -24
 307              		.cfi_offset 18, -32
 308 0180 13040102 		addi	s0,sp,32
 309              		.cfi_def_cfa 8, 0
 310 0184 93040500 		mv	s1,a0
 311 0188 13890500 		mv	s2,a1
  62:src/CSemaphore.cpp ****     *handle = new CSemaphore(init);
 312              		.loc 1 62 5
 313              	.LVL21:
 314              	.LBB17:
 315              	.LBB18:
 316              		.file 2 "src/../h/CSemaphore.h"
   1:src/../h/CSemaphore.h **** //
   2:src/../h/CSemaphore.h **** // Created by os on 6/26/22.
   3:src/../h/CSemaphore.h **** //
   4:src/../h/CSemaphore.h **** 
   5:src/../h/CSemaphore.h **** #ifndef PROJECT_BASE_V1_1_SEMAPHORE_H
   6:src/../h/CSemaphore.h **** #define PROJECT_BASE_V1_1_SEMAPHORE_H
   7:src/../h/CSemaphore.h **** 
   8:src/../h/CSemaphore.h **** 
   9:src/../h/CSemaphore.h **** #include "CThread.h"
  10:src/../h/CSemaphore.h **** #include "../h/new.h"
  11:src/../h/CSemaphore.h **** 
  12:src/../h/CSemaphore.h **** class CSemaphore {
  13:src/../h/CSemaphore.h **** private:
  14:src/../h/CSemaphore.h ****     overrideNew;
 317              		.loc 2 14 5
 318              		.loc 2 14 5
 319              		.loc 2 14 5
 320              		.loc 2 14 5
 321              		.loc 2 14 5
 322 018c 97000000 		call	_ZN15MemoryAllocator11getInstanceEv@plt
 322      E7800000 
 323              	.LVL22:
 324 0194 93050004 		li	a1,64
 325 0198 97000000 		call	_ZN15MemoryAllocator8allocateEm@plt
 325      E7800000 
 326              	.LVL23:
 327              	.LBE18:
 328              	.LBE17:
 329              	.LBB19:
 330              	.LBB20:
  15:src/../h/CSemaphore.h ****     overrideDelete;
  16:src/../h/CSemaphore.h **** 
GAS LISTING /tmp/ccFPPxUj.s 			page 9


  17:src/../h/CSemaphore.h ****     int val;
  18:src/../h/CSemaphore.h ****     CThread *headBlck = nullptr, *tailBlck = nullptr;
  19:src/../h/CSemaphore.h **** 
  20:src/../h/CSemaphore.h ****     void block();
  21:src/../h/CSemaphore.h ****     CThread* unblock();
  22:src/../h/CSemaphore.h **** public:
  23:src/../h/CSemaphore.h ****     CSemaphore(unsigned int init = 1): val(init){};
 331              		.loc 2 23 48 is_stmt 0
 332 01a0 23202501 		sw	s2,0(a0)
 333 01a4 23340500 		sd	zero,8(a0)
 334 01a8 23380500 		sd	zero,16(a0)
 335              	.LVL24:
 336              	.LBE20:
 337              	.LBE19:
 338              		.loc 1 62 13
 339 01ac 23B0A400 		sd	a0,0(s1)
  63:src/CSemaphore.cpp ****     if (*handle)
 340              		.loc 1 63 5 is_stmt 1
 341 01b0 63000502 		beqz	a0,.L29
  64:src/CSemaphore.cpp ****         return 0;
 342              		.loc 1 64 16 is_stmt 0
 343 01b4 13050000 		li	a0,0
 344              	.L28:
  65:src/CSemaphore.cpp ****     else
  66:src/CSemaphore.cpp ****         return -1;
  67:src/CSemaphore.cpp **** }
 345              		.loc 1 67 1
 346 01b8 83308101 		ld	ra,24(sp)
 347              		.cfi_remember_state
 348              		.cfi_restore 1
 349 01bc 03340101 		ld	s0,16(sp)
 350              		.cfi_restore 8
 351              		.cfi_def_cfa 2, 32
 352 01c0 83348100 		ld	s1,8(sp)
 353              		.cfi_restore 9
 354              	.LVL25:
 355 01c4 03390100 		ld	s2,0(sp)
 356              		.cfi_restore 18
 357 01c8 13010102 		addi	sp,sp,32
 358              		.cfi_def_cfa_offset 0
 359 01cc 67800000 		jr	ra
 360              	.LVL26:
 361              	.L29:
 362              		.cfi_restore_state
  66:src/CSemaphore.cpp **** }
 363              		.loc 1 66 17
 364 01d0 1305F0FF 		li	a0,-1
 365 01d4 6FF05FFE 		j	.L28
 366              		.cfi_endproc
 367              	.LFE16:
 369              		.align	2
 370              		.globl	_ZN10CSemaphore5closeEPS_
 372              	_ZN10CSemaphore5closeEPS_:
 373              	.LFB17:
  68:src/CSemaphore.cpp **** 
  69:src/CSemaphore.cpp **** int CSemaphore::close(CSemaphore *handle) {
 374              		.loc 1 69 43 is_stmt 1
GAS LISTING /tmp/ccFPPxUj.s 			page 10


 375              		.cfi_startproc
 376              	.LVL27:
  70:src/CSemaphore.cpp ****         delete handle;
 377              		.loc 1 70 9
 378              		.loc 1 70 22 is_stmt 0
 379 01d8 63040504 		beqz	a0,.L34
  69:src/CSemaphore.cpp ****         delete handle;
 380              		.loc 1 69 43 discriminator 1
 381 01dc 130101FE 		addi	sp,sp,-32
 382              		.cfi_def_cfa_offset 32
 383 01e0 233C1100 		sd	ra,24(sp)
 384 01e4 23388100 		sd	s0,16(sp)
 385 01e8 23349100 		sd	s1,8(sp)
 386              		.cfi_offset 1, -8
 387              		.cfi_offset 8, -16
 388              		.cfi_offset 9, -24
 389 01ec 13040102 		addi	s0,sp,32
 390              		.cfi_def_cfa 8, 0
 391 01f0 93040500 		mv	s1,a0
 392              	.LVL28:
 393              	.LBB21:
 394              	.LBB22:
  15:src/../h/CSemaphore.h **** 
 395              		.loc 2 15 5 is_stmt 1 discriminator 1
 396 01f4 97000000 		call	_ZN15MemoryAllocator11getInstanceEv@plt
 396      E7800000 
 397              	.LVL29:
 398 01fc 93850400 		mv	a1,s1
 399 0200 97000000 		call	_ZN15MemoryAllocator10deallocateEPv@plt
 399      E7800000 
 400              	.LVL30:
 401              	.LBE22:
 402              	.LBE21:
  71:src/CSemaphore.cpp ****         return 0;
 403              		.loc 1 71 9 discriminator 1
  72:src/CSemaphore.cpp **** }
 404              		.loc 1 72 1 is_stmt 0 discriminator 1
 405 0208 13050000 		li	a0,0
 406 020c 83308101 		ld	ra,24(sp)
 407              		.cfi_restore 1
 408 0210 03340101 		ld	s0,16(sp)
 409              		.cfi_restore 8
 410              		.cfi_def_cfa 2, 32
 411 0214 83348100 		ld	s1,8(sp)
 412              		.cfi_restore 9
 413              	.LVL31:
 414 0218 13010102 		addi	sp,sp,32
 415              		.cfi_def_cfa_offset 0
 416 021c 67800000 		jr	ra
 417              	.LVL32:
 418              	.L34:
  71:src/CSemaphore.cpp ****         return 0;
 419              		.loc 1 71 9 is_stmt 1
 420              		.loc 1 72 1 is_stmt 0
 421 0220 13050000 		li	a0,0
 422              	.LVL33:
 423 0224 67800000 		ret
GAS LISTING /tmp/ccFPPxUj.s 			page 11


 424              		.cfi_endproc
 425              	.LFE17:
 427              	.Letext0:
 428              		.file 3 "src/../h/../lib/hw.h"
 429              		.file 4 "src/../h/MemoryAllocator.h"
 430              		.file 5 "src/../h/Scheduler.h"
 431              		.file 6 "src/../h/CThread.h"
GAS LISTING /tmp/ccFPPxUj.s 			page 12


DEFINED SYMBOLS
                            *ABS*:0000000000000000 CSemaphore.cpp
     /tmp/ccFPPxUj.s:9      .text:0000000000000000 _ZN10CSemaphore5blockEv
     /tmp/ccFPPxUj.s:13     .text:0000000000000000 .L0 
     /tmp/ccFPPxUj.s:15     .text:0000000000000000 .L0 
     /tmp/ccFPPxUj.s:16     .text:0000000000000004 .L0 
     /tmp/ccFPPxUj.s:18     .text:0000000000000008 .L0 
     /tmp/ccFPPxUj.s:20     .text:000000000000000c .L0 
     /tmp/ccFPPxUj.s:22     .text:000000000000000c .L0 
     /tmp/ccFPPxUj.s:23     .text:000000000000000c .L0 
     /tmp/ccFPPxUj.s:26     .text:0000000000000018 .L0 
     /tmp/ccFPPxUj.s:29     .text:0000000000000020 .L0 
     /tmp/ccFPPxUj.s:30     .text:0000000000000020 .L0 
     /tmp/ccFPPxUj.s:32     .text:0000000000000024 .L0 
     /tmp/ccFPPxUj.s:34     .text:0000000000000028 .L0 
     /tmp/ccFPPxUj.s:36     .text:000000000000002c .L0 
     /tmp/ccFPPxUj.s:38     .text:0000000000000030 .L0 
     /tmp/ccFPPxUj.s:39     .text:0000000000000030 .L0 
     /tmp/ccFPPxUj.s:41     .text:0000000000000034 .L0 
     /tmp/ccFPPxUj.s:43     .text:0000000000000038 .L0 
     /tmp/ccFPPxUj.s:45     .text:000000000000003c .L0 
     /tmp/ccFPPxUj.s:46     .text:000000000000003c .L0 
     /tmp/ccFPPxUj.s:49     .text:0000000000000040 .L0 
     /tmp/ccFPPxUj.s:50     .text:0000000000000044 .L0 
     /tmp/ccFPPxUj.s:51     .text:0000000000000044 .L0 
     /tmp/ccFPPxUj.s:52     .text:0000000000000044 .L0 
     /tmp/ccFPPxUj.s:54     .text:0000000000000048 .L0 
     /tmp/ccFPPxUj.s:57     .text:000000000000004c .L0 
     /tmp/ccFPPxUj.s:59     .text:000000000000004c .L0 
     /tmp/ccFPPxUj.s:60     .text:000000000000004c .L0 
     /tmp/ccFPPxUj.s:62     .text:0000000000000050 .L0 
     /tmp/ccFPPxUj.s:64     .text:0000000000000054 .L0 
     /tmp/ccFPPxUj.s:65     .text:0000000000000054 .L0 
     /tmp/ccFPPxUj.s:67     .text:0000000000000058 .L0 
     /tmp/ccFPPxUj.s:68     .text:000000000000005c .L0 
     /tmp/ccFPPxUj.s:74     .text:000000000000005c _ZN10CSemaphore4waitEv
     /tmp/ccFPPxUj.s:77     .text:000000000000005c .L0 
     /tmp/ccFPPxUj.s:79     .text:000000000000005c .L0 
     /tmp/ccFPPxUj.s:80     .text:000000000000005c .L0 
     /tmp/ccFPPxUj.s:81     .text:000000000000005c .L0 
     /tmp/ccFPPxUj.s:83     .text:0000000000000060 .L0 
     /tmp/ccFPPxUj.s:85     .text:0000000000000064 .L0 
     /tmp/ccFPPxUj.s:87     .text:0000000000000068 .L0 
     /tmp/ccFPPxUj.s:90     .text:0000000000000070 .L0 
     /tmp/ccFPPxUj.s:91     .text:0000000000000070 .L0 
     /tmp/ccFPPxUj.s:97     .text:0000000000000078 .L0 
     /tmp/ccFPPxUj.s:98     .text:000000000000007c .L0 
     /tmp/ccFPPxUj.s:101    .text:0000000000000084 .L0 
     /tmp/ccFPPxUj.s:102    .text:0000000000000084 .L0 
     /tmp/ccFPPxUj.s:104    .text:0000000000000088 .L0 
     /tmp/ccFPPxUj.s:106    .text:0000000000000088 .L0 
     /tmp/ccFPPxUj.s:107    .text:0000000000000088 .L0 
     /tmp/ccFPPxUj.s:110    .text:0000000000000090 .L0 
     /tmp/ccFPPxUj.s:111    .text:0000000000000090 .L0 
     /tmp/ccFPPxUj.s:114    .text:0000000000000098 .L0 
     /tmp/ccFPPxUj.s:115    .text:0000000000000098 .L0 
     /tmp/ccFPPxUj.s:117    .text:00000000000000a0 .L0 
GAS LISTING /tmp/ccFPPxUj.s 			page 13


     /tmp/ccFPPxUj.s:119    .text:00000000000000a4 .L0 
     /tmp/ccFPPxUj.s:120    .text:00000000000000a4 .L0 
     /tmp/ccFPPxUj.s:122    .text:00000000000000a8 .L0 
     /tmp/ccFPPxUj.s:124    .text:00000000000000ac .L0 
     /tmp/ccFPPxUj.s:130    .text:00000000000000ac _ZN10CSemaphore7unblockEv
     /tmp/ccFPPxUj.s:133    .text:00000000000000ac .L0 
     /tmp/ccFPPxUj.s:135    .text:00000000000000ac .L0 
     /tmp/ccFPPxUj.s:136    .text:00000000000000b0 .L0 
     /tmp/ccFPPxUj.s:138    .text:00000000000000b4 .L0 
     /tmp/ccFPPxUj.s:140    .text:00000000000000b8 .L0 
     /tmp/ccFPPxUj.s:143    .text:00000000000000bc .L0 
     /tmp/ccFPPxUj.s:144    .text:00000000000000bc .L0 
     /tmp/ccFPPxUj.s:147    .text:00000000000000c0 .L0 
     /tmp/ccFPPxUj.s:150    .text:00000000000000c4 .L0 
     /tmp/ccFPPxUj.s:151    .text:00000000000000c4 .L0 
     /tmp/ccFPPxUj.s:153    .text:00000000000000c8 .L0 
     /tmp/ccFPPxUj.s:157    .text:00000000000000cc .L0 
     /tmp/ccFPPxUj.s:158    .text:00000000000000cc .L0 
     /tmp/ccFPPxUj.s:159    .text:00000000000000cc .L0 
     /tmp/ccFPPxUj.s:161    .text:00000000000000d0 .L0 
     /tmp/ccFPPxUj.s:163    .text:00000000000000d4 .L0 
     /tmp/ccFPPxUj.s:164    .text:00000000000000d4 .L0 
     /tmp/ccFPPxUj.s:166    .text:00000000000000d8 .L0 
     /tmp/ccFPPxUj.s:167    .text:00000000000000d8 .L0 
     /tmp/ccFPPxUj.s:171    .text:00000000000000dc .L0 
     /tmp/ccFPPxUj.s:172    .text:00000000000000dc .L0 
     /tmp/ccFPPxUj.s:173    .text:00000000000000e0 .L0 
     /tmp/ccFPPxUj.s:174    .text:00000000000000e0 .L0 
     /tmp/ccFPPxUj.s:175    .text:00000000000000e0 .L0 
     /tmp/ccFPPxUj.s:177    .text:00000000000000e4 .L0 
     /tmp/ccFPPxUj.s:180    .text:00000000000000e8 .L0 
     /tmp/ccFPPxUj.s:185    .text:00000000000000e8 .L0 
     /tmp/ccFPPxUj.s:186    .text:00000000000000e8 .L0 
     /tmp/ccFPPxUj.s:187    .text:00000000000000e8 .L0 
     /tmp/ccFPPxUj.s:189    .text:00000000000000ec .L0 
     /tmp/ccFPPxUj.s:190    .text:00000000000000ec .L0 
     /tmp/ccFPPxUj.s:192    .text:00000000000000f0 .L0 
     /tmp/ccFPPxUj.s:193    .text:00000000000000f0 .L0 
     /tmp/ccFPPxUj.s:195    .text:00000000000000f4 .L0 
     /tmp/ccFPPxUj.s:196    .text:00000000000000f4 .L0 
     /tmp/ccFPPxUj.s:199    .text:00000000000000f8 .L0 
     /tmp/ccFPPxUj.s:205    .text:00000000000000f8 _ZN10CSemaphore6signalEv
     /tmp/ccFPPxUj.s:208    .text:00000000000000f8 .L0 
     /tmp/ccFPPxUj.s:210    .text:00000000000000f8 .L0 
     /tmp/ccFPPxUj.s:212    .text:00000000000000f8 .L0 
     /tmp/ccFPPxUj.s:213    .text:00000000000000f8 .L0 
     /tmp/ccFPPxUj.s:215    .text:00000000000000fc .L0 
     /tmp/ccFPPxUj.s:218    .text:0000000000000104 .L0 
     /tmp/ccFPPxUj.s:220    .text:0000000000000108 .L0 
     /tmp/ccFPPxUj.s:223    .text:000000000000010c .L0 
     /tmp/ccFPPxUj.s:226    .text:0000000000000110 .L0 
     /tmp/ccFPPxUj.s:230    .text:0000000000000114 .L0 
     /tmp/ccFPPxUj.s:231    .text:0000000000000118 .L0 
     /tmp/ccFPPxUj.s:235    .text:0000000000000124 .L0 
     /tmp/ccFPPxUj.s:236    .text:0000000000000124 .L0 
     /tmp/ccFPPxUj.s:237    .text:0000000000000124 .L0 
     /tmp/ccFPPxUj.s:239    .text:0000000000000128 .L0 
GAS LISTING /tmp/ccFPPxUj.s 			page 14


     /tmp/ccFPPxUj.s:243    .text:0000000000000128 .L0 
     /tmp/ccFPPxUj.s:244    .text:0000000000000128 .L0 
     /tmp/ccFPPxUj.s:249    .text:0000000000000134 .L0 
     /tmp/ccFPPxUj.s:251    .text:0000000000000138 .L0 
     /tmp/ccFPPxUj.s:252    .text:0000000000000138 .L0 
     /tmp/ccFPPxUj.s:255    .text:0000000000000140 .L0 
     /tmp/ccFPPxUj.s:259    .text:000000000000014c .L0 
     /tmp/ccFPPxUj.s:260    .text:000000000000014c .L0 
     /tmp/ccFPPxUj.s:265    .text:0000000000000150 .L0 
     /tmp/ccFPPxUj.s:266    .text:0000000000000154 .L0 
     /tmp/ccFPPxUj.s:267    .text:0000000000000154 .L0 
     /tmp/ccFPPxUj.s:269    .text:0000000000000158 .L0 
     /tmp/ccFPPxUj.s:270    .text:0000000000000158 .L0 
     /tmp/ccFPPxUj.s:272    .text:000000000000015c .L0 
     /tmp/ccFPPxUj.s:275    .text:0000000000000160 .L0 
     /tmp/ccFPPxUj.s:279    .text:0000000000000164 .L0 
     /tmp/ccFPPxUj.s:283    .text:0000000000000164 .L0 
     /tmp/ccFPPxUj.s:287    .text:000000000000016c .L0 
     /tmp/ccFPPxUj.s:293    .text:000000000000016c _ZN10CSemaphore4openEPPS_j
     /tmp/ccFPPxUj.s:296    .text:000000000000016c .L0 
     /tmp/ccFPPxUj.s:298    .text:000000000000016c .L0 
     /tmp/ccFPPxUj.s:299    .text:0000000000000170 .L0 
     /tmp/ccFPPxUj.s:304    .text:0000000000000180 .L0 
     /tmp/ccFPPxUj.s:305    .text:0000000000000180 .L0 
     /tmp/ccFPPxUj.s:306    .text:0000000000000180 .L0 
     /tmp/ccFPPxUj.s:307    .text:0000000000000180 .L0 
     /tmp/ccFPPxUj.s:309    .text:0000000000000184 .L0 
     /tmp/ccFPPxUj.s:317    .text:000000000000018c .L0 
     /tmp/ccFPPxUj.s:318    .text:000000000000018c .L0 
     /tmp/ccFPPxUj.s:319    .text:000000000000018c .L0 
     /tmp/ccFPPxUj.s:320    .text:000000000000018c .L0 
     /tmp/ccFPPxUj.s:321    .text:000000000000018c .L0 
     /tmp/ccFPPxUj.s:322    .text:000000000000018c .L0 
     /tmp/ccFPPxUj.s:332    .text:00000000000001a0 .L0 
     /tmp/ccFPPxUj.s:339    .text:00000000000001ac .L0 
     /tmp/ccFPPxUj.s:341    .text:00000000000001b0 .L0 
     /tmp/ccFPPxUj.s:343    .text:00000000000001b4 .L0 
     /tmp/ccFPPxUj.s:346    .text:00000000000001b8 .L0 
     /tmp/ccFPPxUj.s:347    .text:00000000000001bc .L0 
     /tmp/ccFPPxUj.s:348    .text:00000000000001bc .L0 
     /tmp/ccFPPxUj.s:350    .text:00000000000001c0 .L0 
     /tmp/ccFPPxUj.s:351    .text:00000000000001c0 .L0 
     /tmp/ccFPPxUj.s:353    .text:00000000000001c4 .L0 
     /tmp/ccFPPxUj.s:356    .text:00000000000001c8 .L0 
     /tmp/ccFPPxUj.s:358    .text:00000000000001cc .L0 
     /tmp/ccFPPxUj.s:362    .text:00000000000001d0 .L0 
     /tmp/ccFPPxUj.s:364    .text:00000000000001d0 .L0 
     /tmp/ccFPPxUj.s:366    .text:00000000000001d8 .L0 
     /tmp/ccFPPxUj.s:372    .text:00000000000001d8 _ZN10CSemaphore5closeEPS_
     /tmp/ccFPPxUj.s:375    .text:00000000000001d8 .L0 
     /tmp/ccFPPxUj.s:377    .text:00000000000001d8 .L0 
     /tmp/ccFPPxUj.s:378    .text:00000000000001d8 .L0 
     /tmp/ccFPPxUj.s:379    .text:00000000000001d8 .L0 
     /tmp/ccFPPxUj.s:381    .text:00000000000001dc .L0 
     /tmp/ccFPPxUj.s:382    .text:00000000000001e0 .L0 
     /tmp/ccFPPxUj.s:386    .text:00000000000001ec .L0 
     /tmp/ccFPPxUj.s:387    .text:00000000000001ec .L0 
GAS LISTING /tmp/ccFPPxUj.s 			page 15


     /tmp/ccFPPxUj.s:388    .text:00000000000001ec .L0 
     /tmp/ccFPPxUj.s:390    .text:00000000000001f0 .L0 
     /tmp/ccFPPxUj.s:396    .text:00000000000001f4 .L0 
     /tmp/ccFPPxUj.s:404    .text:0000000000000208 .L0 
     /tmp/ccFPPxUj.s:405    .text:0000000000000208 .L0 
     /tmp/ccFPPxUj.s:407    .text:0000000000000210 .L0 
     /tmp/ccFPPxUj.s:409    .text:0000000000000214 .L0 
     /tmp/ccFPPxUj.s:410    .text:0000000000000214 .L0 
     /tmp/ccFPPxUj.s:412    .text:0000000000000218 .L0 
     /tmp/ccFPPxUj.s:415    .text:000000000000021c .L0 
     /tmp/ccFPPxUj.s:420    .text:0000000000000220 .L0 
     /tmp/ccFPPxUj.s:421    .text:0000000000000220 .L0 
     /tmp/ccFPPxUj.s:424    .text:0000000000000228 .L0 
     /tmp/ccFPPxUj.s:432    .text:0000000000000228 .L0 
     /tmp/ccFPPxUj.s:23     .text:000000000000000c .L0 
     /tmp/ccFPPxUj.s:56     .text:000000000000004c .L5
     /tmp/ccFPPxUj.s:47     .text:0000000000000040 .L1
     /tmp/ccFPPxUj.s:95     .text:0000000000000078 .L12
     /tmp/ccFPPxUj.s:170    .text:00000000000000dc .L13
     /tmp/ccFPPxUj.s:179    .text:00000000000000e8 .L17
     /tmp/ccFPPxUj.s:228    .text:0000000000000114 .L26
     /tmp/ccFPPxUj.s:278    .text:0000000000000164 .L21
     /tmp/ccFPPxUj.s:261    .text:0000000000000150 .L19
     /tmp/ccFPPxUj.s:361    .text:00000000000001d0 .L29
     /tmp/ccFPPxUj.s:344    .text:00000000000001b8 .L28
     /tmp/ccFPPxUj.s:418    .text:0000000000000220 .L34
     /tmp/ccFPPxUj.s:1510   .debug_abbrev:0000000000000000 .Ldebug_abbrev0
     /tmp/ccFPPxUj.s:2969   .debug_str:000000000000057b .LASF108
     /tmp/ccFPPxUj.s:2929   .debug_str:0000000000000462 .LASF109
     /tmp/ccFPPxUj.s:2951   .debug_str:00000000000004eb .LASF110
     /tmp/ccFPPxUj.s:5      .text:0000000000000000 .Ltext0
     /tmp/ccFPPxUj.s:427    .text:0000000000000228 .Letext0
     /tmp/ccFPPxUj.s:2777   .debug_line:0000000000000000 .Ldebug_line0
     /tmp/ccFPPxUj.s:2893   .debug_str:00000000000003ae .LASF0
     /tmp/ccFPPxUj.s:2915   .debug_str:0000000000000417 .LASF1
     /tmp/ccFPPxUj.s:2877   .debug_str:000000000000034c .LASF2
     /tmp/ccFPPxUj.s:2859   .debug_str:00000000000002c2 .LASF4
     /tmp/ccFPPxUj.s:2953   .debug_str:0000000000000511 .LASF3
     /tmp/ccFPPxUj.s:2797   .debug_str:0000000000000097 .LASF5
     /tmp/ccFPPxUj.s:2921   .debug_str:0000000000000437 .LASF6
     /tmp/ccFPPxUj.s:2891   .debug_str:000000000000039b .LASF7
     /tmp/ccFPPxUj.s:2983   .debug_str:0000000000000686 .LASF8
     /tmp/ccFPPxUj.s:2849   .debug_str:0000000000000250 .LASF9
     /tmp/ccFPPxUj.s:2933   .debug_str:000000000000047b .LASF10
     /tmp/ccFPPxUj.s:2973   .debug_str:000000000000064b .LASF11
     /tmp/ccFPPxUj.s:2803   .debug_str:00000000000000bd .LASF12
     /tmp/ccFPPxUj.s:2787   .debug_str:000000000000003a .LASF13
     /tmp/ccFPPxUj.s:2809   .debug_str:00000000000000ec .LASF14
     /tmp/ccFPPxUj.s:2945   .debug_str:00000000000004b5 .LASF15
     /tmp/ccFPPxUj.s:2815   .debug_str:0000000000000106 .LASF16
     /tmp/ccFPPxUj.s:2875   .debug_str:000000000000033c .LASF26
     /tmp/ccFPPxUj.s:2857   .debug_str:00000000000002b2 .LASF42
     /tmp/ccFPPxUj.s:2967   .debug_str:0000000000000576 .LASF17
     /tmp/ccFPPxUj.s:3005   .debug_str:000000000000074d .LASF18
     /tmp/ccFPPxUj.s:2819   .debug_str:000000000000013c .LASF19
     /tmp/ccFPPxUj.s:2835   .debug_str:00000000000001eb .LASF20
     /tmp/ccFPPxUj.s:2831   .debug_str:00000000000001ad .LASF22
GAS LISTING /tmp/ccFPPxUj.s 			page 16


     /tmp/ccFPPxUj.s:2825   .debug_str:000000000000016b .LASF28
     /tmp/ccFPPxUj.s:2971   .debug_str:000000000000063f .LASF31
     /tmp/ccFPPxUj.s:2795   .debug_str:0000000000000073 .LASF33
     /tmp/ccFPPxUj.s:2871   .debug_str:000000000000031d .LASF21
     /tmp/ccFPPxUj.s:2867   .debug_str:00000000000002ee .LASF23
     /tmp/ccFPPxUj.s:2909   .debug_str:0000000000000400 .LASF24
     /tmp/ccFPPxUj.s:2817   .debug_str:000000000000011c .LASF25
     /tmp/ccFPPxUj.s:2959   .debug_str:0000000000000549 .LASF27
     /tmp/ccFPPxUj.s:2957   .debug_str:0000000000000537 .LASF29
     /tmp/ccFPPxUj.s:2883   .debug_str:000000000000037d .LASF30
     /tmp/ccFPPxUj.s:2899   .debug_str:00000000000003d5 .LASF32
     /tmp/ccFPPxUj.s:3009   .debug_str:000000000000076a .LASF34
     /tmp/ccFPPxUj.s:2783   .debug_str:0000000000000013 .LASF35
     /tmp/ccFPPxUj.s:2855   .debug_str:000000000000029e .LASF111
     /tmp/ccFPPxUj.s:2987   .debug_str:00000000000006ab .LASF112
     /tmp/ccFPPxUj.s:2991   .debug_str:00000000000006d5 .LASF36
     /tmp/ccFPPxUj.s:2975   .debug_str:000000000000065a .LASF113
     /tmp/ccFPPxUj.s:2931   .debug_str:0000000000000475 .LASF37
     /tmp/ccFPPxUj.s:2961   .debug_str:0000000000000553 .LASF38
     /tmp/ccFPPxUj.s:2911   .debug_str:0000000000000409 .LASF39
     /tmp/ccFPPxUj.s:2861   .debug_str:00000000000002c9 .LASF40
     /tmp/ccFPPxUj.s:2927   .debug_str:000000000000045a .LASF41
     /tmp/ccFPPxUj.s:2789   .debug_str:000000000000004a .LASF43
     /tmp/ccFPPxUj.s:2993   .debug_str:00000000000006dd .LASF44
     /tmp/ccFPPxUj.s:2907   .debug_str:00000000000003f0 .LASF45
     /tmp/ccFPPxUj.s:2829   .debug_str:000000000000019d .LASF46
     /tmp/ccFPPxUj.s:2895   .debug_str:00000000000003bb .LASF47
     /tmp/ccFPPxUj.s:2963   .debug_str:000000000000055c .LASF48
     /tmp/ccFPPxUj.s:2935   .debug_str:000000000000048a .LASF49
     /tmp/ccFPPxUj.s:2781   .debug_str:0000000000000006 .LASF50
     /tmp/ccFPPxUj.s:2995   .debug_str:00000000000006ea .LASF51
     /tmp/ccFPPxUj.s:2941   .debug_str:00000000000004a5 .LASF114
     /tmp/ccFPPxUj.s:2897   .debug_str:00000000000003cc .LASF60
     /tmp/ccFPPxUj.s:2845   .debug_str:000000000000021e .LASF62
     /tmp/ccFPPxUj.s:2785   .debug_str:0000000000000030 .LASF93
     /tmp/ccFPPxUj.s:2791   .debug_str:0000000000000052 .LASF95
     /tmp/ccFPPxUj.s:2879   .debug_str:000000000000035a .LASF52
     /tmp/ccFPPxUj.s:2997   .debug_str:0000000000000712 .LASF53
     /tmp/ccFPPxUj.s:2905   .debug_str:00000000000003eb .LASF55
     /tmp/ccFPPxUj.s:2977   .debug_str:0000000000000661 .LASF54
     /tmp/ccFPPxUj.s:2889   .debug_str:0000000000000396 .LASF56
     /tmp/ccFPPxUj.s:2833   .debug_str:00000000000001e3 .LASF57
     /tmp/ccFPPxUj.s:2805   .debug_str:00000000000000cd .LASF58
     /tmp/ccFPPxUj.s:2919   .debug_str:0000000000000430 .LASF59
     /tmp/ccFPPxUj.s:2947   .debug_str:00000000000004cb .LASF61
     /tmp/ccFPPxUj.s:3011   .debug_str:0000000000000783 .LASF63
     /tmp/ccFPPxUj.s:2821   .debug_str:0000000000000141 .LASF64
     /tmp/ccFPPxUj.s:2885   .debug_str:0000000000000382 .LASF65
     /tmp/ccFPPxUj.s:3001   .debug_str:0000000000000733 .LASF66
     /tmp/ccFPPxUj.s:2813   .debug_str:00000000000000fe .LASF67
     /tmp/ccFPPxUj.s:2841   .debug_str:00000000000001ff .LASF69
     /tmp/ccFPPxUj.s:2943   .debug_str:00000000000004aa .LASF68
     /tmp/ccFPPxUj.s:2949   .debug_str:00000000000004d1 .LASF70
     /tmp/ccFPPxUj.s:2865   .debug_str:00000000000002d6 .LASF71
     /tmp/ccFPPxUj.s:2863   .debug_str:00000000000002d1 .LASF72
     /tmp/ccFPPxUj.s:2901   .debug_str:00000000000003de .LASF73
     /tmp/ccFPPxUj.s:2811   .debug_str:00000000000000f8 .LASF74
GAS LISTING /tmp/ccFPPxUj.s 			page 17


     /tmp/ccFPPxUj.s:2903   .debug_str:00000000000003e3 .LASF75
     /tmp/ccFPPxUj.s:2989   .debug_str:00000000000006c7 .LASF76
     /tmp/ccFPPxUj.s:2853   .debug_str:0000000000000272 .LASF84
     /tmp/ccFPPxUj.s:2869   .debug_str:0000000000000312 .LASF115
     /tmp/ccFPPxUj.s:2923   .debug_str:000000000000044a .LASF77
     /tmp/ccFPPxUj.s:2801   .debug_str:00000000000000a6 .LASF78
     /tmp/ccFPPxUj.s:2913   .debug_str:000000000000040f .LASF79
     /tmp/ccFPPxUj.s:2979   .debug_str:000000000000066b .LASF80
     /tmp/ccFPPxUj.s:2839   .debug_str:00000000000001fa .LASF81
     /tmp/ccFPPxUj.s:2887   .debug_str:000000000000038b .LASF82
     /tmp/ccFPPxUj.s:2851   .debug_str:000000000000025e .LASF83
     /tmp/ccFPPxUj.s:2985   .debug_str:0000000000000696 .LASF85
     /tmp/ccFPPxUj.s:2793   .debug_str:000000000000006a .LASF86
     /tmp/ccFPPxUj.s:2843   .debug_str:0000000000000215 .LASF87
     /tmp/ccFPPxUj.s:2999   .debug_str:000000000000072d .LASF88
     /tmp/ccFPPxUj.s:3007   .debug_str:0000000000000752 .LASF89
     /tmp/ccFPPxUj.s:2799   .debug_str:000000000000009e .LASF90
     /tmp/ccFPPxUj.s:2807   .debug_str:00000000000000d2 .LASF91
     /tmp/ccFPPxUj.s:2873   .debug_str:0000000000000328 .LASF92
     /tmp/ccFPPxUj.s:2837   .debug_str:00000000000001f5 .LASF94
     /tmp/ccFPPxUj.s:2881   .debug_str:0000000000000366 .LASF96
     /tmp/ccFPPxUj.s:2925   .debug_str:0000000000000453 .LASF97
     /tmp/ccFPPxUj.s:2827   .debug_str:0000000000000184 .LASF98
     /tmp/ccFPPxUj.s:2981   .debug_str:0000000000000681 .LASF99
     /tmp/ccFPPxUj.s:2847   .debug_str:0000000000000235 .LASF100
     /tmp/ccFPPxUj.s:2779   .debug_str:0000000000000000 .LASF101
     /tmp/ccFPPxUj.s:2823   .debug_str:0000000000000151 .LASF102
     /tmp/ccFPPxUj.s:373    .text:00000000000001d8 .LFB17
     /tmp/ccFPPxUj.s:425    .text:0000000000000228 .LFE17
     /tmp/ccFPPxUj.s:2965   .debug_str:000000000000056f .LASF103
     /tmp/ccFPPxUj.s:2562   .debug_loc:0000000000000000 .LLST12
     /tmp/ccFPPxUj.s:393    .text:00000000000001f4 .LBB21
     /tmp/ccFPPxUj.s:402    .text:0000000000000208 .LBE21
     /tmp/ccFPPxUj.s:2591   .debug_loc:0000000000000075 .LLST13
     /tmp/ccFPPxUj.s:397    .text:00000000000001fc .LVL29
     /tmp/ccFPPxUj.s:400    .text:0000000000000208 .LVL30
     /tmp/ccFPPxUj.s:294    .text:000000000000016c .LFB16
     /tmp/ccFPPxUj.s:367    .text:00000000000001d8 .LFE16
     /tmp/ccFPPxUj.s:2602   .debug_loc:00000000000000ab .LLST5
     /tmp/ccFPPxUj.s:2939   .debug_str:00000000000004a0 .LASF104
     /tmp/ccFPPxUj.s:2624   .debug_loc:000000000000010a .LLST6
     /tmp/ccFPPxUj.s:314    .text:000000000000018c .LBB17
     /tmp/ccFPPxUj.s:328    .text:00000000000001a0 .LBE17
     /tmp/ccFPPxUj.s:2638   .debug_loc:0000000000000143 .LLST7
     /tmp/ccFPPxUj.s:2646   .debug_loc:0000000000000167 .LLST8
     /tmp/ccFPPxUj.s:2654   .debug_loc:000000000000018b .LLST9
     /tmp/ccFPPxUj.s:323    .text:0000000000000194 .LVL22
     /tmp/ccFPPxUj.s:326    .text:00000000000001a0 .LVL23
     /tmp/ccFPPxUj.s:329    .text:00000000000001a0 .LBB19
     /tmp/ccFPPxUj.s:337    .text:00000000000001ac .LBE19
     /tmp/ccFPPxUj.s:2663   .debug_loc:00000000000001b0 .LLST10
     /tmp/ccFPPxUj.s:2670   .debug_loc:00000000000001d3 .LLST11
     /tmp/ccFPPxUj.s:131    .text:00000000000000ac .LFB15
     /tmp/ccFPPxUj.s:200    .text:00000000000000f8 .LFE15
     /tmp/ccFPPxUj.s:2937   .debug_str:000000000000049b .LASF105
     /tmp/ccFPPxUj.s:2677   .debug_loc:00000000000001f6 .LLST1
     /tmp/ccFPPxUj.s:2688   .debug_loc:000000000000022c .LLST2
GAS LISTING /tmp/ccFPPxUj.s 			page 18


     /tmp/ccFPPxUj.s:182    .text:00000000000000e8 .LBB10
     /tmp/ccFPPxUj.s:197    .text:00000000000000f8 .LBE10
     /tmp/ccFPPxUj.s:10     .text:0000000000000000 .LFB14
     /tmp/ccFPPxUj.s:69     .text:000000000000005c .LFE14
     /tmp/ccFPPxUj.s:206    .text:00000000000000f8 .LFB13
     /tmp/ccFPPxUj.s:288    .text:000000000000016c .LFE13
     /tmp/ccFPPxUj.s:2695   .debug_loc:000000000000024f .LLST3
     /tmp/ccFPPxUj.s:2769   .debug_ranges:0000000000000000 .Ldebug_ranges0
     /tmp/ccFPPxUj.s:2720   .debug_loc:00000000000002b1 .LLST4
     /tmp/ccFPPxUj.s:245    .text:0000000000000130 .LVL14
     /tmp/ccFPPxUj.s:253    .text:0000000000000140 .LVL16
     /tmp/ccFPPxUj.s:257    .text:000000000000014c .LVL17
     /tmp/ccFPPxUj.s:75     .text:000000000000005c .LFB12
     /tmp/ccFPPxUj.s:125    .text:00000000000000ac .LFE12
     /tmp/ccFPPxUj.s:2731   .debug_loc:00000000000002e7 .LLST0
     /tmp/ccFPPxUj.s:108    .text:0000000000000090 .LVL4
     /tmp/ccFPPxUj.s:112    .text:0000000000000098 .LVL5
     /tmp/ccFPPxUj.s:2955   .debug_str:0000000000000523 .LASF116
     /tmp/ccFPPxUj.s:3003   .debug_str:0000000000000743 .LASF106
     /tmp/ccFPPxUj.s:2917   .debug_str:000000000000042a .LASF107
     /tmp/ccFPPxUj.s:376    .text:00000000000001d8 .LVL27
     /tmp/ccFPPxUj.s:413    .text:0000000000000218 .LVL31
     /tmp/ccFPPxUj.s:417    .text:0000000000000220 .LVL32
     /tmp/ccFPPxUj.s:422    .text:0000000000000224 .LVL33
     /tmp/ccFPPxUj.s:392    .text:00000000000001f4 .LVL28
     /tmp/ccFPPxUj.s:297    .text:000000000000016c .LVL20
     /tmp/ccFPPxUj.s:354    .text:00000000000001c4 .LVL25
     /tmp/ccFPPxUj.s:360    .text:00000000000001d0 .LVL26
     /tmp/ccFPPxUj.s:313    .text:000000000000018c .LVL21
     /tmp/ccFPPxUj.s:335    .text:00000000000001ac .LVL24
     /tmp/ccFPPxUj.s:134    .text:00000000000000ac .LVL6
     /tmp/ccFPPxUj.s:145    .text:00000000000000c0 .LVL7
     /tmp/ccFPPxUj.s:156    .text:00000000000000cc .LVL8
     /tmp/ccFPPxUj.s:169    .text:00000000000000dc .LVL9
     /tmp/ccFPPxUj.s:209    .text:00000000000000f8 .LVL11
     /tmp/ccFPPxUj.s:224    .text:0000000000000110 .LVL12
     /tmp/ccFPPxUj.s:227    .text:0000000000000114 .LVL13
     /tmp/ccFPPxUj.s:247    .text:0000000000000134 .LVL15
     /tmp/ccFPPxUj.s:273    .text:000000000000015c .LVL18
     /tmp/ccFPPxUj.s:277    .text:0000000000000164 .LVL19
     /tmp/ccFPPxUj.s:78     .text:000000000000005c .LVL1
     /tmp/ccFPPxUj.s:92     .text:0000000000000074 .LVL2
     /tmp/ccFPPxUj.s:94     .text:0000000000000078 .LVL3
     /tmp/ccFPPxUj.s:433    .debug_info:0000000000000000 .Ldebug_info0
     /tmp/ccFPPxUj.s:241    .text:0000000000000128 .LBB13
     /tmp/ccFPPxUj.s:262    .text:0000000000000150 .LBE13
     /tmp/ccFPPxUj.s:281    .text:0000000000000164 .LBB14
     /tmp/ccFPPxUj.s:285    .text:000000000000016c .LBE14

UNDEFINED SYMBOLS
_ZN7CThread7runningE
_ZN7CThread5yieldEv
_ZN9Scheduler11getInstanceEv
_ZN9Scheduler3putEP7CThread
_ZN15MemoryAllocator11getInstanceEv
_ZN15MemoryAllocator8allocateEm
_ZN15MemoryAllocator10deallocateEPv
GAS LISTING /tmp/ccFPPxUj.s 			page 19


