GAS LISTING /tmp/cc7cacvs.s 			page 1


   1              		.file	"GetBuffer.cpp"
   2              		.option pic
   3              		.option norelax
   4              		.text
   5              	.Ltext0:
   6              		.align	2
   7              		.globl	_ZN9GetBufferC2Ei
   9              	_ZN9GetBufferC2Ei:
  10              	.LFB17:
  11              		.file 1 "src/GetBuffer.cpp"
   1:src/GetBuffer.cpp **** //
   2:src/GetBuffer.cpp **** // Created by os on 6/30/22.
   3:src/GetBuffer.cpp **** //
   4:src/GetBuffer.cpp **** 
   5:src/GetBuffer.cpp **** #include "../h/GetBuffer.h"
   6:src/GetBuffer.cpp **** GetBuffer* GetBuffer::getBuffer = nullptr;
   7:src/GetBuffer.cpp **** GetBuffer::GetBuffer(int _cap){
  12              		.loc 1 7 1
  13              		.cfi_startproc
  14              	.LVL0:
  15 0000 130101FE 		addi	sp,sp,-32
  16              		.cfi_def_cfa_offset 32
  17 0004 233C1100 		sd	ra,24(sp)
  18 0008 23388100 		sd	s0,16(sp)
  19 000c 23349100 		sd	s1,8(sp)
  20              		.cfi_offset 1, -8
  21              		.cfi_offset 8, -16
  22              		.cfi_offset 9, -24
  23 0010 13040102 		addi	s0,sp,32
  24              		.cfi_def_cfa 8, 0
  25 0014 93040500 		mv	s1,a0
  26              	.LBB2:
   8:src/GetBuffer.cpp ****     cap=_cap;
  27              		.loc 1 8 5
  28              		.loc 1 8 8 is_stmt 0
  29 0018 2320B500 		sw	a1,0(a0)
   9:src/GetBuffer.cpp ****     head=0;
  30              		.loc 1 9 5 is_stmt 1
  31              		.loc 1 9 9 is_stmt 0
  32 001c 23280500 		sw	zero,16(a0)
  10:src/GetBuffer.cpp ****     tail=0;
  33              		.loc 1 10 5 is_stmt 1
  34              		.loc 1 10 9 is_stmt 0
  35 0020 232A0500 		sw	zero,20(a0)
  11:src/GetBuffer.cpp ****     buffer =(char*) MemoryAllocator::getInstance().allocate(cap*sizeof (char));
  36              		.loc 1 11 5 is_stmt 1
  37              		.loc 1 11 50 is_stmt 0
  38 0024 97000000 		call	_ZN15MemoryAllocator11getInstanceEv@plt
  38      E7800000 
  39              	.LVL1:
  40              		.loc 1 11 60
  41 002c 83A50400 		lw	a1,0(s1)
  42 0030 97000000 		call	_ZN15MemoryAllocator8allocateEm@plt
  42      E7800000 
  43              	.LVL2:
  44              		.loc 1 11 12
  45 0038 23B4A400 		sd	a0,8(s1)
GAS LISTING /tmp/cc7cacvs.s 			page 2


  12:src/GetBuffer.cpp ****     space = cap;
  46              		.loc 1 12 5 is_stmt 1
  47              		.loc 1 12 13 is_stmt 0
  48 003c 83A70400 		lw	a5,0(s1)
  49              		.loc 1 12 11
  50 0040 23ACF400 		sw	a5,24(s1)
  13:src/GetBuffer.cpp ****     sem_open(&itemAvailable, 0);
  51              		.loc 1 13 5 is_stmt 1
  52              		.loc 1 13 13 is_stmt 0
  53 0044 93050000 		li	a1,0
  54 0048 13850402 		addi	a0,s1,32
  55 004c 97000000 		call	_Z8sem_openPP10CSemaphorej@plt
  55      E7800000 
  56              	.LVL3:
  57              	.LBE2:
  14:src/GetBuffer.cpp **** }
  58              		.loc 1 14 1
  59 0054 83308101 		ld	ra,24(sp)
  60              		.cfi_restore 1
  61 0058 03340101 		ld	s0,16(sp)
  62              		.cfi_restore 8
  63              		.cfi_def_cfa 2, 32
  64 005c 83348100 		ld	s1,8(sp)
  65              		.cfi_restore 9
  66              	.LVL4:
  67 0060 13010102 		addi	sp,sp,32
  68              		.cfi_def_cfa_offset 0
  69 0064 67800000 		jr	ra
  70              		.cfi_endproc
  71              	.LFE17:
  73              		.globl	_ZN9GetBufferC1Ei
  74              		.set	_ZN9GetBufferC1Ei,_ZN9GetBufferC2Ei
  75              		.align	2
  76              		.globl	_ZN9GetBufferD2Ev
  78              	_ZN9GetBufferD2Ev:
  79              	.LFB20:
  15:src/GetBuffer.cpp **** 
  16:src/GetBuffer.cpp **** GetBuffer::~GetBuffer() {
  80              		.loc 1 16 1 is_stmt 1
  81              		.cfi_startproc
  82              		.cfi_personality 0x9b,DW.ref.__gxx_personality_v0
  83              		.cfi_lsda 0x1b,.LLSDA20
  84              	.LVL5:
  85 0068 130101FE 		addi	sp,sp,-32
  86              		.cfi_def_cfa_offset 32
  87 006c 233C1100 		sd	ra,24(sp)
  88 0070 23388100 		sd	s0,16(sp)
  89 0074 23349100 		sd	s1,8(sp)
  90              		.cfi_offset 1, -8
  91              		.cfi_offset 8, -16
  92              		.cfi_offset 9, -24
  93 0078 13040102 		addi	s0,sp,32
  94              		.cfi_def_cfa 8, 0
  95 007c 93040500 		mv	s1,a0
  96              	.LBB3:
  17:src/GetBuffer.cpp ****     mem_free(buffer);
  97              		.loc 1 17 5
GAS LISTING /tmp/cc7cacvs.s 			page 3


  98              		.loc 1 17 13 is_stmt 0
  99 0080 03358500 		ld	a0,8(a0)
 100              	.LVL6:
 101 0084 97000000 		call	_Z8mem_freePv@plt
 101      E7800000 
 102              	.LVL7:
  18:src/GetBuffer.cpp ****     sem_close(itemAvailable);
 103              		.loc 1 18 5 is_stmt 1
 104              		.loc 1 18 14 is_stmt 0
 105 008c 03B50402 		ld	a0,32(s1)
 106 0090 97000000 		call	_Z9sem_closeP10CSemaphore@plt
 106      E7800000 
 107              	.LVL8:
 108              	.LBE3:
  19:src/GetBuffer.cpp **** }
 109              		.loc 1 19 1
 110 0098 83308101 		ld	ra,24(sp)
 111              		.cfi_restore 1
 112 009c 03340101 		ld	s0,16(sp)
 113              		.cfi_restore 8
 114              		.cfi_def_cfa 2, 32
 115 00a0 83348100 		ld	s1,8(sp)
 116              		.cfi_restore 9
 117              	.LVL9:
 118 00a4 13010102 		addi	sp,sp,32
 119              		.cfi_def_cfa_offset 0
 120 00a8 67800000 		jr	ra
 121              		.cfi_endproc
 122              	.LFE20:
 123              		.globl	__gxx_personality_v0
 124              		.section	.gcc_except_table,"a",@progbits
 125              	.LLSDA20:
 126 0000 FF       		.byte	0xff
 127 0001 FF       		.byte	0xff
 128 0002 03       		.byte	0x3
 129 0003 00       		.byte	0
 130              		.text
 132              		.globl	_ZN9GetBufferD1Ev
 133              		.set	_ZN9GetBufferD1Ev,_ZN9GetBufferD2Ev
 134              		.align	2
 135              		.globl	_ZN9GetBuffer3putEc
 137              	_ZN9GetBuffer3putEc:
 138              	.LFB22:
  20:src/GetBuffer.cpp **** 
  21:src/GetBuffer.cpp **** void GetBuffer::put(char val) {
 139              		.loc 1 21 31 is_stmt 1
 140              		.cfi_startproc
 141              	.LVL10:
  22:src/GetBuffer.cpp ****     if(space>0)space--;
 142              		.loc 1 22 5
 143              		.loc 1 22 8 is_stmt 0
 144 00ac 83278501 		lw	a5,24(a0)
 145              		.loc 1 22 5
 146 00b0 635EF004 		blez	a5,.L8
  21:src/GetBuffer.cpp ****     if(space>0)space--;
 147              		.loc 1 21 31 discriminator 1
 148 00b4 130101FF 		addi	sp,sp,-16
GAS LISTING /tmp/cc7cacvs.s 			page 4


 149              		.cfi_def_cfa_offset 16
 150 00b8 23341100 		sd	ra,8(sp)
 151 00bc 23308100 		sd	s0,0(sp)
 152              		.cfi_offset 1, -8
 153              		.cfi_offset 8, -16
 154 00c0 13040101 		addi	s0,sp,16
 155              		.cfi_def_cfa 8, 0
 156              		.loc 1 22 16 is_stmt 1 discriminator 1
 157              		.loc 1 22 21 is_stmt 0 discriminator 1
 158 00c4 9B87F7FF 		addiw	a5,a5,-1
 159 00c8 232CF500 		sw	a5,24(a0)
  23:src/GetBuffer.cpp ****     else return;
  24:src/GetBuffer.cpp ****     buffer[tail] = val;
 160              		.loc 1 24 5 is_stmt 1 discriminator 1
 161 00cc 83378500 		ld	a5,8(a0)
 162              		.loc 1 24 12 is_stmt 0 discriminator 1
 163 00d0 03274501 		lw	a4,20(a0)
 164              		.loc 1 24 16 discriminator 1
 165 00d4 B387E700 		add	a5,a5,a4
 166              		.loc 1 24 18 discriminator 1
 167 00d8 2380B700 		sb	a1,0(a5)
  25:src/GetBuffer.cpp ****     tail = (tail + 1) % cap;
 168              		.loc 1 25 5 is_stmt 1 discriminator 1
 169              		.loc 1 25 13 is_stmt 0 discriminator 1
 170 00dc 83274501 		lw	a5,20(a0)
 171              		.loc 1 25 18 discriminator 1
 172 00e0 9B871700 		addiw	a5,a5,1
 173              		.loc 1 25 25 discriminator 1
 174 00e4 03270500 		lw	a4,0(a0)
 175              		.loc 1 25 23 discriminator 1
 176 00e8 BBE7E702 		remw	a5,a5,a4
 177              		.loc 1 25 10 discriminator 1
 178 00ec 232AF500 		sw	a5,20(a0)
  26:src/GetBuffer.cpp **** 
  27:src/GetBuffer.cpp ****     itemAvailable->signal();
 179              		.loc 1 27 5 is_stmt 1 discriminator 1
 180              		.loc 1 27 26 is_stmt 0 discriminator 1
 181 00f0 03350502 		ld	a0,32(a0)
 182              	.LVL11:
 183 00f4 97000000 		call	_ZN10CSemaphore6signalEv@plt
 183      E7800000 
 184              	.LVL12:
  28:src/GetBuffer.cpp **** }
 185              		.loc 1 28 1 discriminator 1
 186 00fc 83308100 		ld	ra,8(sp)
 187              		.cfi_restore 1
 188 0100 03340100 		ld	s0,0(sp)
 189              		.cfi_restore 8
 190              		.cfi_def_cfa 2, 16
 191 0104 13010101 		addi	sp,sp,16
 192              		.cfi_def_cfa_offset 0
 193 0108 67800000 		jr	ra
 194              	.LVL13:
 195              	.L8:
 196 010c 67800000 		ret
 197              		.cfi_endproc
 198              	.LFE22:
GAS LISTING /tmp/cc7cacvs.s 			page 5


 200              		.align	2
 201              		.globl	_ZN9GetBuffer3getEv
 203              	_ZN9GetBuffer3getEv:
 204              	.LFB23:
  29:src/GetBuffer.cpp **** 
  30:src/GetBuffer.cpp **** char GetBuffer::get() {
 205              		.loc 1 30 23 is_stmt 1
 206              		.cfi_startproc
 207              	.LVL14:
 208 0110 130101FE 		addi	sp,sp,-32
 209              		.cfi_def_cfa_offset 32
 210 0114 233C1100 		sd	ra,24(sp)
 211 0118 23388100 		sd	s0,16(sp)
 212 011c 23349100 		sd	s1,8(sp)
 213              		.cfi_offset 1, -8
 214              		.cfi_offset 8, -16
 215              		.cfi_offset 9, -24
 216 0120 13040102 		addi	s0,sp,32
 217              		.cfi_def_cfa 8, 0
 218 0124 93040500 		mv	s1,a0
  31:src/GetBuffer.cpp ****     itemAvailable->wait();
 219              		.loc 1 31 5
 220              		.loc 1 31 24 is_stmt 0
 221 0128 03350502 		ld	a0,32(a0)
 222              	.LVL15:
 223 012c 97000000 		call	_ZN10CSemaphore4waitEv@plt
 223      E7800000 
 224              	.LVL16:
  32:src/GetBuffer.cpp **** 
  33:src/GetBuffer.cpp ****     char ret = buffer[head];
 225              		.loc 1 33 5 is_stmt 1
 226              		.loc 1 33 16 is_stmt 0
 227 0134 03B78400 		ld	a4,8(s1)
 228              		.loc 1 33 23
 229 0138 83A70401 		lw	a5,16(s1)
 230              		.loc 1 33 27
 231 013c 3307F700 		add	a4,a4,a5
 232              		.loc 1 33 10
 233 0140 03450700 		lbu	a0,0(a4)
 234              	.LVL17:
  34:src/GetBuffer.cpp ****     head = (head + 1) % cap;
 235              		.loc 1 34 5 is_stmt 1
 236              		.loc 1 34 18 is_stmt 0
 237 0144 9B871700 		addiw	a5,a5,1
 238              		.loc 1 34 25
 239 0148 03A70400 		lw	a4,0(s1)
 240              		.loc 1 34 23
 241 014c BBE7E702 		remw	a5,a5,a4
 242              		.loc 1 34 10
 243 0150 23A8F400 		sw	a5,16(s1)
  35:src/GetBuffer.cpp **** 
  36:src/GetBuffer.cpp ****     space++;
 244              		.loc 1 36 5 is_stmt 1
 245 0154 83A78401 		lw	a5,24(s1)
 246              		.loc 1 36 10 is_stmt 0
 247 0158 9B871700 		addiw	a5,a5,1
 248 015c 23ACF400 		sw	a5,24(s1)
GAS LISTING /tmp/cc7cacvs.s 			page 6


  37:src/GetBuffer.cpp **** 
  38:src/GetBuffer.cpp ****     return ret;
 249              		.loc 1 38 5 is_stmt 1
  39:src/GetBuffer.cpp **** }
 250              		.loc 1 39 1 is_stmt 0
 251 0160 83308101 		ld	ra,24(sp)
 252              		.cfi_restore 1
 253 0164 03340101 		ld	s0,16(sp)
 254              		.cfi_restore 8
 255              		.cfi_def_cfa 2, 32
 256 0168 83348100 		ld	s1,8(sp)
 257              		.cfi_restore 9
 258              	.LVL18:
 259 016c 13010102 		addi	sp,sp,32
 260              		.cfi_def_cfa_offset 0
 261 0170 67800000 		jr	ra
 262              		.cfi_endproc
 263              	.LFE23:
 265              		.align	2
 266              		.globl	_ZN9GetBuffer6getCntEv
 268              	_ZN9GetBuffer6getCntEv:
 269              	.LFB24:
  40:src/GetBuffer.cpp **** 
  41:src/GetBuffer.cpp **** int GetBuffer::getCnt() {
 270              		.loc 1 41 25 is_stmt 1
 271              		.cfi_startproc
 272              	.LVL19:
 273 0174 130101FF 		addi	sp,sp,-16
 274              		.cfi_def_cfa_offset 16
 275 0178 23348100 		sd	s0,8(sp)
 276              		.cfi_offset 8, -8
 277 017c 13040101 		addi	s0,sp,16
 278              		.cfi_def_cfa 8, 0
  42:src/GetBuffer.cpp ****     int ret;
 279              		.loc 1 42 5
  43:src/GetBuffer.cpp **** 
  44:src/GetBuffer.cpp ****     if (tail >= head) {
 280              		.loc 1 44 5
 281              		.loc 1 44 9 is_stmt 0
 282 0180 83274501 		lw	a5,20(a0)
 283              		.loc 1 44 17
 284 0184 03270501 		lw	a4,16(a0)
 285              		.loc 1 44 5
 286 0188 63CAE700 		blt	a5,a4,.L14
  45:src/GetBuffer.cpp ****         ret = tail - head;
 287              		.loc 1 45 9 is_stmt 1
 288              		.loc 1 45 13 is_stmt 0
 289 018c 3B85E740 		subw	a0,a5,a4
 290              	.LVL20:
 291              	.L15:
  46:src/GetBuffer.cpp ****     } else {
  47:src/GetBuffer.cpp ****         ret = cap - head + tail;
  48:src/GetBuffer.cpp ****     }
  49:src/GetBuffer.cpp **** 
  50:src/GetBuffer.cpp **** 
  51:src/GetBuffer.cpp ****     return ret;
 292              		.loc 1 51 5 is_stmt 1
GAS LISTING /tmp/cc7cacvs.s 			page 7


  52:src/GetBuffer.cpp **** }...
 293              		.loc 1 52 1 is_stmt 0
 294 0190 03348100 		ld	s0,8(sp)
 295              		.cfi_remember_state
 296              		.cfi_restore 8
 297              		.cfi_def_cfa 2, 16
 298 0194 13010101 		addi	sp,sp,16
 299              		.cfi_def_cfa_offset 0
 300 0198 67800000 		jr	ra
 301              	.LVL21:
 302              	.L14:
 303              		.cfi_restore_state
  47:src/GetBuffer.cpp ****         ret = cap - head + tail;
 304              		.loc 1 47 9 is_stmt 1
  47:src/GetBuffer.cpp ****         ret = cap - head + tail;
 305              		.loc 1 47 15 is_stmt 0
 306 019c 03250500 		lw	a0,0(a0)
 307              	.LVL22:
  47:src/GetBuffer.cpp ****         ret = cap - head + tail;
 308              		.loc 1 47 19
 309 01a0 3B05E540 		subw	a0,a0,a4
  47:src/GetBuffer.cpp ****         ret = cap - head + tail;
 310              		.loc 1 47 13
 311 01a4 3B05F500 		addw	a0,a0,a5
 312              	.LVL23:
 313 01a8 6FF09FFE 		j	.L15
 314              		.cfi_endproc
 315              	.LFE24:
 317              		.globl	_ZN9GetBuffer9getBufferE
 318              		.bss
 319              		.align	3
 322              	_ZN9GetBuffer9getBufferE:
 323 0000 00000000 		.zero	8
 323      00000000 
 324              		.text
 325              	.Letext0:
 326              		.file 2 "src/../h/../lib/hw.h"
 327              		.file 3 "src/../h/MemoryAllocator.h"
 328              		.file 4 "src/../h/CThread.h"
 329              		.file 5 "src/../h/CSemaphore.h"
 330              		.file 6 "src/../h/GetBuffer.h"
 331              		.file 7 "src/../h/syscall_c.h"
 2844              		.align	3
 2847              	DW.ref.__gxx_personality_v0:
 2848 0000 00000000 		.dword	__gxx_personality_v0
 2848      00000000 
 2849              		.ident	"GCC: (Ubuntu 9.4.0-1ubuntu1~20.04) 9.4.0"
 2850              		.section	.note.GNU-stack,"",@progbits
GAS LISTING /tmp/cc7cacvs.s 			page 8


DEFINED SYMBOLS
                            *ABS*:0000000000000000 GetBuffer.cpp
     /tmp/cc7cacvs.s:9      .text:0000000000000000 _ZN9GetBufferC2Ei
     /tmp/cc7cacvs.s:13     .text:0000000000000000 .L0 
     /tmp/cc7cacvs.s:15     .text:0000000000000000 .L0 
     /tmp/cc7cacvs.s:16     .text:0000000000000004 .L0 
     /tmp/cc7cacvs.s:20     .text:0000000000000010 .L0 
     /tmp/cc7cacvs.s:21     .text:0000000000000010 .L0 
     /tmp/cc7cacvs.s:22     .text:0000000000000010 .L0 
     /tmp/cc7cacvs.s:24     .text:0000000000000014 .L0 
     /tmp/cc7cacvs.s:28     .text:0000000000000018 .L0 
     /tmp/cc7cacvs.s:29     .text:0000000000000018 .L0 
     /tmp/cc7cacvs.s:31     .text:000000000000001c .L0 
     /tmp/cc7cacvs.s:32     .text:000000000000001c .L0 
     /tmp/cc7cacvs.s:34     .text:0000000000000020 .L0 
     /tmp/cc7cacvs.s:35     .text:0000000000000020 .L0 
     /tmp/cc7cacvs.s:37     .text:0000000000000024 .L0 
     /tmp/cc7cacvs.s:38     .text:0000000000000024 .L0 
     /tmp/cc7cacvs.s:41     .text:000000000000002c .L0 
     /tmp/cc7cacvs.s:45     .text:0000000000000038 .L0 
     /tmp/cc7cacvs.s:47     .text:000000000000003c .L0 
     /tmp/cc7cacvs.s:48     .text:000000000000003c .L0 
     /tmp/cc7cacvs.s:50     .text:0000000000000040 .L0 
     /tmp/cc7cacvs.s:52     .text:0000000000000044 .L0 
     /tmp/cc7cacvs.s:53     .text:0000000000000044 .L0 
     /tmp/cc7cacvs.s:59     .text:0000000000000054 .L0 
     /tmp/cc7cacvs.s:60     .text:0000000000000058 .L0 
     /tmp/cc7cacvs.s:62     .text:000000000000005c .L0 
     /tmp/cc7cacvs.s:63     .text:000000000000005c .L0 
     /tmp/cc7cacvs.s:65     .text:0000000000000060 .L0 
     /tmp/cc7cacvs.s:68     .text:0000000000000064 .L0 
     /tmp/cc7cacvs.s:70     .text:0000000000000068 .L0 
     /tmp/cc7cacvs.s:9      .text:0000000000000000 _ZN9GetBufferC1Ei
     /tmp/cc7cacvs.s:78     .text:0000000000000068 _ZN9GetBufferD2Ev
     /tmp/cc7cacvs.s:81     .text:0000000000000068 .L0 
     /tmp/cc7cacvs.s:2847   .data.rel.local.DW.ref.__gxx_personality_v0:0000000000000000 DW.ref.__gxx_personality_v0
     /tmp/cc7cacvs.s:85     .text:0000000000000068 .L0 
     /tmp/cc7cacvs.s:86     .text:000000000000006c .L0 
     /tmp/cc7cacvs.s:90     .text:0000000000000078 .L0 
     /tmp/cc7cacvs.s:91     .text:0000000000000078 .L0 
     /tmp/cc7cacvs.s:92     .text:0000000000000078 .L0 
     /tmp/cc7cacvs.s:94     .text:000000000000007c .L0 
     /tmp/cc7cacvs.s:98     .text:0000000000000080 .L0 
     /tmp/cc7cacvs.s:99     .text:0000000000000080 .L0 
     /tmp/cc7cacvs.s:104    .text:000000000000008c .L0 
     /tmp/cc7cacvs.s:105    .text:000000000000008c .L0 
     /tmp/cc7cacvs.s:110    .text:0000000000000098 .L0 
     /tmp/cc7cacvs.s:111    .text:000000000000009c .L0 
     /tmp/cc7cacvs.s:113    .text:00000000000000a0 .L0 
     /tmp/cc7cacvs.s:114    .text:00000000000000a0 .L0 
     /tmp/cc7cacvs.s:116    .text:00000000000000a4 .L0 
     /tmp/cc7cacvs.s:119    .text:00000000000000a8 .L0 
     /tmp/cc7cacvs.s:121    .text:00000000000000ac .L0 
     /tmp/cc7cacvs.s:78     .text:0000000000000068 _ZN9GetBufferD1Ev
     /tmp/cc7cacvs.s:137    .text:00000000000000ac _ZN9GetBuffer3putEc
     /tmp/cc7cacvs.s:140    .text:00000000000000ac .L0 
     /tmp/cc7cacvs.s:142    .text:00000000000000ac .L0 
GAS LISTING /tmp/cc7cacvs.s 			page 9


     /tmp/cc7cacvs.s:143    .text:00000000000000ac .L0 
     /tmp/cc7cacvs.s:144    .text:00000000000000ac .L0 
     /tmp/cc7cacvs.s:146    .text:00000000000000b0 .L0 
     /tmp/cc7cacvs.s:148    .text:00000000000000b4 .L0 
     /tmp/cc7cacvs.s:149    .text:00000000000000b8 .L0 
     /tmp/cc7cacvs.s:152    .text:00000000000000c0 .L0 
     /tmp/cc7cacvs.s:153    .text:00000000000000c0 .L0 
     /tmp/cc7cacvs.s:155    .text:00000000000000c4 .L0 
     /tmp/cc7cacvs.s:157    .text:00000000000000c4 .L0 
     /tmp/cc7cacvs.s:158    .text:00000000000000c4 .L0 
     /tmp/cc7cacvs.s:161    .text:00000000000000cc .L0 
     /tmp/cc7cacvs.s:163    .text:00000000000000d0 .L0 
     /tmp/cc7cacvs.s:165    .text:00000000000000d4 .L0 
     /tmp/cc7cacvs.s:167    .text:00000000000000d8 .L0 
     /tmp/cc7cacvs.s:169    .text:00000000000000dc .L0 
     /tmp/cc7cacvs.s:170    .text:00000000000000dc .L0 
     /tmp/cc7cacvs.s:172    .text:00000000000000e0 .L0 
     /tmp/cc7cacvs.s:174    .text:00000000000000e4 .L0 
     /tmp/cc7cacvs.s:176    .text:00000000000000e8 .L0 
     /tmp/cc7cacvs.s:178    .text:00000000000000ec .L0 
     /tmp/cc7cacvs.s:180    .text:00000000000000f0 .L0 
     /tmp/cc7cacvs.s:181    .text:00000000000000f0 .L0 
     /tmp/cc7cacvs.s:186    .text:00000000000000fc .L0 
     /tmp/cc7cacvs.s:187    .text:0000000000000100 .L0 
     /tmp/cc7cacvs.s:189    .text:0000000000000104 .L0 
     /tmp/cc7cacvs.s:190    .text:0000000000000104 .L0 
     /tmp/cc7cacvs.s:192    .text:0000000000000108 .L0 
     /tmp/cc7cacvs.s:197    .text:0000000000000110 .L0 
     /tmp/cc7cacvs.s:203    .text:0000000000000110 _ZN9GetBuffer3getEv
     /tmp/cc7cacvs.s:206    .text:0000000000000110 .L0 
     /tmp/cc7cacvs.s:208    .text:0000000000000110 .L0 
     /tmp/cc7cacvs.s:209    .text:0000000000000114 .L0 
     /tmp/cc7cacvs.s:213    .text:0000000000000120 .L0 
     /tmp/cc7cacvs.s:214    .text:0000000000000120 .L0 
     /tmp/cc7cacvs.s:215    .text:0000000000000120 .L0 
     /tmp/cc7cacvs.s:217    .text:0000000000000124 .L0 
     /tmp/cc7cacvs.s:220    .text:0000000000000128 .L0 
     /tmp/cc7cacvs.s:221    .text:0000000000000128 .L0 
     /tmp/cc7cacvs.s:226    .text:0000000000000134 .L0 
     /tmp/cc7cacvs.s:227    .text:0000000000000134 .L0 
     /tmp/cc7cacvs.s:229    .text:0000000000000138 .L0 
     /tmp/cc7cacvs.s:231    .text:000000000000013c .L0 
     /tmp/cc7cacvs.s:233    .text:0000000000000140 .L0 
     /tmp/cc7cacvs.s:236    .text:0000000000000144 .L0 
     /tmp/cc7cacvs.s:237    .text:0000000000000144 .L0 
     /tmp/cc7cacvs.s:239    .text:0000000000000148 .L0 
     /tmp/cc7cacvs.s:241    .text:000000000000014c .L0 
     /tmp/cc7cacvs.s:243    .text:0000000000000150 .L0 
     /tmp/cc7cacvs.s:245    .text:0000000000000154 .L0 
     /tmp/cc7cacvs.s:247    .text:0000000000000158 .L0 
     /tmp/cc7cacvs.s:250    .text:0000000000000160 .L0 
     /tmp/cc7cacvs.s:251    .text:0000000000000160 .L0 
     /tmp/cc7cacvs.s:252    .text:0000000000000164 .L0 
     /tmp/cc7cacvs.s:254    .text:0000000000000168 .L0 
     /tmp/cc7cacvs.s:255    .text:0000000000000168 .L0 
     /tmp/cc7cacvs.s:257    .text:000000000000016c .L0 
     /tmp/cc7cacvs.s:260    .text:0000000000000170 .L0 
GAS LISTING /tmp/cc7cacvs.s 			page 10


     /tmp/cc7cacvs.s:262    .text:0000000000000174 .L0 
     /tmp/cc7cacvs.s:268    .text:0000000000000174 _ZN9GetBuffer6getCntEv
     /tmp/cc7cacvs.s:271    .text:0000000000000174 .L0 
     /tmp/cc7cacvs.s:273    .text:0000000000000174 .L0 
     /tmp/cc7cacvs.s:274    .text:0000000000000178 .L0 
     /tmp/cc7cacvs.s:276    .text:000000000000017c .L0 
     /tmp/cc7cacvs.s:278    .text:0000000000000180 .L0 
     /tmp/cc7cacvs.s:280    .text:0000000000000180 .L0 
     /tmp/cc7cacvs.s:281    .text:0000000000000180 .L0 
     /tmp/cc7cacvs.s:282    .text:0000000000000180 .L0 
     /tmp/cc7cacvs.s:284    .text:0000000000000184 .L0 
     /tmp/cc7cacvs.s:286    .text:0000000000000188 .L0 
     /tmp/cc7cacvs.s:288    .text:000000000000018c .L0 
     /tmp/cc7cacvs.s:289    .text:000000000000018c .L0 
     /tmp/cc7cacvs.s:293    .text:0000000000000190 .L0 
     /tmp/cc7cacvs.s:294    .text:0000000000000190 .L0 
     /tmp/cc7cacvs.s:295    .text:0000000000000194 .L0 
     /tmp/cc7cacvs.s:296    .text:0000000000000194 .L0 
     /tmp/cc7cacvs.s:297    .text:0000000000000194 .L0 
     /tmp/cc7cacvs.s:299    .text:0000000000000198 .L0 
     /tmp/cc7cacvs.s:303    .text:000000000000019c .L0 
     /tmp/cc7cacvs.s:305    .text:000000000000019c .L0 
     /tmp/cc7cacvs.s:306    .text:000000000000019c .L0 
     /tmp/cc7cacvs.s:309    .text:00000000000001a0 .L0 
     /tmp/cc7cacvs.s:311    .text:00000000000001a4 .L0 
     /tmp/cc7cacvs.s:314    .text:00000000000001ac .L0 
     /tmp/cc7cacvs.s:322    .bss:0000000000000000 _ZN9GetBuffer9getBufferE
     /tmp/cc7cacvs.s:332    .text:00000000000001ac .L0 
     /tmp/cc7cacvs.s:195    .text:000000000000010c .L8
     /tmp/cc7cacvs.s:302    .text:000000000000019c .L14
     /tmp/cc7cacvs.s:291    .text:0000000000000190 .L15
     /tmp/cc7cacvs.s:1432   .debug_abbrev:0000000000000000 .Ldebug_abbrev0
     /tmp/cc7cacvs.s:2799   .debug_str:0000000000000682 .LASF122
     /tmp/cc7cacvs.s:2783   .debug_str:0000000000000617 .LASF123
     /tmp/cc7cacvs.s:2779   .debug_str:00000000000005df .LASF124
     /tmp/cc7cacvs.s:5      .text:0000000000000000 .Ltext0
     /tmp/cc7cacvs.s:325    .text:00000000000001ac .Letext0
     /tmp/cc7cacvs.s:2571   .debug_line:0000000000000000 .Ldebug_line0
     /tmp/cc7cacvs.s:2711   .debug_str:0000000000000463 .LASF0
     /tmp/cc7cacvs.s:2733   .debug_str:00000000000004c9 .LASF1
     /tmp/cc7cacvs.s:2693   .debug_str:00000000000003f7 .LASF2
     /tmp/cc7cacvs.s:2671   .debug_str:000000000000034a .LASF4
     /tmp/cc7cacvs.s:2781   .debug_str:0000000000000605 .LASF3
     /tmp/cc7cacvs.s:2597   .debug_str:00000000000000b1 .LASF5
     /tmp/cc7cacvs.s:2737   .debug_str:00000000000004e3 .LASF6
     /tmp/cc7cacvs.s:2709   .debug_str:0000000000000450 .LASF7
     /tmp/cc7cacvs.s:2815   .debug_str:00000000000007a0 .LASF8
     /tmp/cc7cacvs.s:2661   .debug_str:00000000000002de .LASF9
     /tmp/cc7cacvs.s:2753   .debug_str:0000000000000532 .LASF10
     /tmp/cc7cacvs.s:2803   .debug_str:0000000000000752 .LASF11
     /tmp/cc7cacvs.s:2603   .debug_str:00000000000000d7 .LASF12
     /tmp/cc7cacvs.s:2583   .debug_str:0000000000000036 .LASF13
     /tmp/cc7cacvs.s:2611   .debug_str:000000000000011a .LASF14
     /tmp/cc7cacvs.s:2773   .debug_str:00000000000005a9 .LASF15
     /tmp/cc7cacvs.s:2619   .debug_str:0000000000000145 .LASF16
     /tmp/cc7cacvs.s:2691   .debug_str:00000000000003e7 .LASF26
     /tmp/cc7cacvs.s:2669   .debug_str:000000000000033a .LASF33
GAS LISTING /tmp/cc7cacvs.s 			page 11


     /tmp/cc7cacvs.s:2793   .debug_str:0000000000000661 .LASF17
     /tmp/cc7cacvs.s:2833   .debug_str:0000000000000844 .LASF18
     /tmp/cc7cacvs.s:2623   .debug_str:000000000000017b .LASF19
     /tmp/cc7cacvs.s:2641   .debug_str:000000000000023c .LASF20
     /tmp/cc7cacvs.s:2637   .debug_str:00000000000001fe .LASF22
     /tmp/cc7cacvs.s:2631   .debug_str:00000000000001bc .LASF38
     /tmp/cc7cacvs.s:2801   .debug_str:0000000000000746 .LASF125
     /tmp/cc7cacvs.s:2595   .debug_str:000000000000008d .LASF126
     /tmp/cc7cacvs.s:2687   .debug_str:00000000000003c8 .LASF21
     /tmp/cc7cacvs.s:2681   .debug_str:000000000000037f .LASF23
     /tmp/cc7cacvs.s:2727   .debug_str:00000000000004b2 .LASF24
     /tmp/cc7cacvs.s:2621   .debug_str:000000000000015b .LASF25
     /tmp/cc7cacvs.s:2823   .debug_str:00000000000007dc .LASF27
     /tmp/cc7cacvs.s:2805   .debug_str:0000000000000761 .LASF127
     /tmp/cc7cacvs.s:2751   .debug_str:000000000000052c .LASF28
     /tmp/cc7cacvs.s:2785   .debug_str:0000000000000629 .LASF29
     /tmp/cc7cacvs.s:2729   .debug_str:00000000000004bb .LASF30
     /tmp/cc7cacvs.s:2673   .debug_str:0000000000000351 .LASF31
     /tmp/cc7cacvs.s:2745   .debug_str:000000000000050b .LASF32
     /tmp/cc7cacvs.s:2585   .debug_str:0000000000000046 .LASF34
     /tmp/cc7cacvs.s:2825   .debug_str:00000000000007e4 .LASF35
     /tmp/cc7cacvs.s:2725   .debug_str:00000000000004a2 .LASF36
     /tmp/cc7cacvs.s:2635   .debug_str:00000000000001ee .LASF37
     /tmp/cc7cacvs.s:2713   .debug_str:0000000000000470 .LASF39
     /tmp/cc7cacvs.s:2789   .debug_str:0000000000000644 .LASF40
     /tmp/cc7cacvs.s:2759   .debug_str:0000000000000564 .LASF41
     /tmp/cc7cacvs.s:2579   .debug_str:000000000000001f .LASF42
     /tmp/cc7cacvs.s:2827   .debug_str:00000000000007f1 .LASF43
     /tmp/cc7cacvs.s:2767   .debug_str:0000000000000592 .LASF128
     /tmp/cc7cacvs.s:2715   .debug_str:0000000000000481 .LASF52
     /tmp/cc7cacvs.s:2655   .debug_str:000000000000029c .LASF54
     /tmp/cc7cacvs.s:2581   .debug_str:000000000000002c .LASF85
     /tmp/cc7cacvs.s:2587   .debug_str:000000000000004e .LASF87
     /tmp/cc7cacvs.s:2695   .debug_str:0000000000000405 .LASF44
     /tmp/cc7cacvs.s:2829   .debug_str:0000000000000819 .LASF45
     /tmp/cc7cacvs.s:2723   .debug_str:000000000000049d .LASF46
     /tmp/cc7cacvs.s:2809   .debug_str:000000000000077b .LASF50
     /tmp/cc7cacvs.s:2707   .debug_str:000000000000044b .LASF47
     /tmp/cc7cacvs.s:2639   .debug_str:0000000000000234 .LASF48
     /tmp/cc7cacvs.s:2607   .debug_str:00000000000000fb .LASF49
     /tmp/cc7cacvs.s:2735   .debug_str:00000000000004dc .LASF51
     /tmp/cc7cacvs.s:2775   .debug_str:00000000000005bf .LASF53
     /tmp/cc7cacvs.s:2837   .debug_str:0000000000000861 .LASF55
     /tmp/cc7cacvs.s:2627   .debug_str:0000000000000192 .LASF56
     /tmp/cc7cacvs.s:2703   .debug_str:0000000000000437 .LASF57
     /tmp/cc7cacvs.s:2831   .debug_str:0000000000000834 .LASF58
     /tmp/cc7cacvs.s:2617   .debug_str:000000000000013d .LASF59
     /tmp/cc7cacvs.s:2651   .debug_str:000000000000027d .LASF61
     /tmp/cc7cacvs.s:2769   .debug_str:0000000000000597 .LASF60
     /tmp/cc7cacvs.s:2777   .debug_str:00000000000005c5 .LASF62
     /tmp/cc7cacvs.s:2679   .debug_str:0000000000000367 .LASF63
     /tmp/cc7cacvs.s:2677   .debug_str:0000000000000362 .LASF64
     /tmp/cc7cacvs.s:2719   .debug_str:0000000000000490 .LASF65
     /tmp/cc7cacvs.s:2717   .debug_str:000000000000048a .LASF66
     /tmp/cc7cacvs.s:2721   .debug_str:0000000000000495 .LASF67
     /tmp/cc7cacvs.s:2821   .debug_str:00000000000007ce .LASF75
     /tmp/cc7cacvs.s:2667   .debug_str:000000000000030e .LASF76
GAS LISTING /tmp/cc7cacvs.s 			page 12


     /tmp/cc7cacvs.s:2683   .debug_str:00000000000003a3 .LASF129
     /tmp/cc7cacvs.s:2739   .debug_str:00000000000004f6 .LASF68
     /tmp/cc7cacvs.s:2601   .debug_str:00000000000000c0 .LASF69
     /tmp/cc7cacvs.s:2731   .debug_str:00000000000004c1 .LASF70
     /tmp/cc7cacvs.s:2811   .debug_str:0000000000000785 .LASF71
     /tmp/cc7cacvs.s:2649   .debug_str:0000000000000278 .LASF72
     /tmp/cc7cacvs.s:2705   .debug_str:0000000000000440 .LASF73
     /tmp/cc7cacvs.s:2663   .debug_str:00000000000002ec .LASF74
     /tmp/cc7cacvs.s:2817   .debug_str:00000000000007b0 .LASF77
     /tmp/cc7cacvs.s:2593   .debug_str:0000000000000084 .LASF78
     /tmp/cc7cacvs.s:2653   .debug_str:0000000000000293 .LASF79
     /tmp/cc7cacvs.s:2761   .debug_str:0000000000000575 .LASF80
     /tmp/cc7cacvs.s:2835   .debug_str:0000000000000849 .LASF81
     /tmp/cc7cacvs.s:2599   .debug_str:00000000000000b8 .LASF82
     /tmp/cc7cacvs.s:2609   .debug_str:0000000000000100 .LASF83
     /tmp/cc7cacvs.s:2689   .debug_str:00000000000003d3 .LASF84
     /tmp/cc7cacvs.s:2647   .debug_str:0000000000000273 .LASF86
     /tmp/cc7cacvs.s:2697   .debug_str:0000000000000411 .LASF88
     /tmp/cc7cacvs.s:2743   .debug_str:0000000000000504 .LASF89
     /tmp/cc7cacvs.s:2633   .debug_str:00000000000001d5 .LASF90
     /tmp/cc7cacvs.s:2813   .debug_str:000000000000079b .LASF91
     /tmp/cc7cacvs.s:2657   .debug_str:00000000000002b3 .LASF92
     /tmp/cc7cacvs.s:2575   .debug_str:0000000000000006 .LASF93
     /tmp/cc7cacvs.s:2629   .debug_str:00000000000001a2 .LASF94
     /tmp/cc7cacvs.s:2795   .debug_str:0000000000000666 .LASF95
     /tmp/cc7cacvs.s:2771   .debug_str:00000000000005a2 .LASF96
     /tmp/cc7cacvs.s:2701   .debug_str:0000000000000432 .LASF97
     /tmp/cc7cacvs.s:2573   .debug_str:0000000000000000 .LASF98
     /tmp/cc7cacvs.s:2665   .debug_str:0000000000000300 .LASF99
     /tmp/cc7cacvs.s:2699   .debug_str:0000000000000428 .LASF100
     /tmp/cc7cacvs.s:2659   .debug_str:00000000000002ce .LASF101
     /tmp/cc7cacvs.s:2625   .debug_str:0000000000000180 .LASF102
     /tmp/cc7cacvs.s:2787   .debug_str:0000000000000632 .LASF103
     /tmp/cc7cacvs.s:2577   .debug_str:000000000000000c .LASF104
     /tmp/cc7cacvs.s:2807   .debug_str:0000000000000768 .LASF105
     /tmp/cc7cacvs.s:2645   .debug_str:0000000000000261 .LASF106
     /tmp/cc7cacvs.s:2747   .debug_str:0000000000000513 .LASF107
     /tmp/cc7cacvs.s:2615   .debug_str:000000000000012b .LASF108
     /tmp/cc7cacvs.s:2839   .debug_str:0000000000000875 .LASF130
     /tmp/cc7cacvs.s:2605   .debug_str:00000000000000e7 .LASF131
     /tmp/cc7cacvs.s:2591   .debug_str:000000000000007d .LASF109
     /tmp/cc7cacvs.s:2589   .debug_str:0000000000000066 .LASF110
     /tmp/cc7cacvs.s:2741   .debug_str:00000000000004ff .LASF111
     /tmp/cc7cacvs.s:2757   .debug_str:000000000000054b .LASF132
     /tmp/cc7cacvs.s:269    .text:0000000000000174 .LFB24
     /tmp/cc7cacvs.s:315    .text:00000000000001ac .LFE24
     /tmp/cc7cacvs.s:2763   .debug_str:000000000000057b .LASF112
     /tmp/cc7cacvs.s:2407   .debug_loc:0000000000000000 .LLST6
     /tmp/cc7cacvs.s:2432   .debug_loc:0000000000000062 .LLST7
     /tmp/cc7cacvs.s:204    .text:0000000000000110 .LFB23
     /tmp/cc7cacvs.s:263    .text:0000000000000174 .LFE23
     /tmp/cc7cacvs.s:2454   .debug_loc:00000000000000a3 .LLST5
     /tmp/cc7cacvs.s:224    .text:0000000000000134 .LVL16
     /tmp/cc7cacvs.s:138    .text:00000000000000ac .LFB22
     /tmp/cc7cacvs.s:198    .text:0000000000000110 .LFE22
     /tmp/cc7cacvs.s:2472   .debug_loc:00000000000000ef .LLST3
     /tmp/cc7cacvs.s:2490   .debug_loc:000000000000013b .LLST4
GAS LISTING /tmp/cc7cacvs.s 			page 13


     /tmp/cc7cacvs.s:184    .text:00000000000000fc .LVL12
     /tmp/cc7cacvs.s:2755   .debug_str:0000000000000541 .LASF113
     /tmp/cc7cacvs.s:2797   .debug_str:0000000000000670 .LASF114
     /tmp/cc7cacvs.s:79     .text:0000000000000068 .LFB20
     /tmp/cc7cacvs.s:122    .text:00000000000000ac .LFE20
     /tmp/cc7cacvs.s:2508   .debug_loc:0000000000000187 .LLST2
     /tmp/cc7cacvs.s:102    .text:000000000000008c .LVL7
     /tmp/cc7cacvs.s:107    .text:0000000000000098 .LVL8
     /tmp/cc7cacvs.s:2613   .debug_str:0000000000000126 .LASF133
     /tmp/cc7cacvs.s:2765   .debug_str:0000000000000580 .LASF115
     /tmp/cc7cacvs.s:10     .text:0000000000000000 .LFB17
     /tmp/cc7cacvs.s:71     .text:0000000000000068 .LFE17
     /tmp/cc7cacvs.s:2526   .debug_loc:00000000000001d3 .LLST0
     /tmp/cc7cacvs.s:2544   .debug_loc:000000000000021f .LLST1
     /tmp/cc7cacvs.s:39     .text:000000000000002c .LVL1
     /tmp/cc7cacvs.s:43     .text:0000000000000038 .LVL2
     /tmp/cc7cacvs.s:56     .text:0000000000000054 .LVL3
     /tmp/cc7cacvs.s:2749   .debug_str:000000000000051e .LASF116
     /tmp/cc7cacvs.s:2675   .debug_str:0000000000000359 .LASF118
     /tmp/cc7cacvs.s:2685   .debug_str:00000000000003ae .LASF117
     /tmp/cc7cacvs.s:2791   .debug_str:0000000000000657 .LASF119
     /tmp/cc7cacvs.s:2643   .debug_str:0000000000000246 .LASF120
     /tmp/cc7cacvs.s:2819   .debug_str:00000000000007c5 .LASF121
     /tmp/cc7cacvs.s:272    .text:0000000000000174 .LVL19
     /tmp/cc7cacvs.s:290    .text:0000000000000190 .LVL20
     /tmp/cc7cacvs.s:301    .text:000000000000019c .LVL21
     /tmp/cc7cacvs.s:307    .text:00000000000001a0 .LVL22
     /tmp/cc7cacvs.s:312    .text:00000000000001a8 .LVL23
     /tmp/cc7cacvs.s:207    .text:0000000000000110 .LVL14
     /tmp/cc7cacvs.s:222    .text:000000000000012c .LVL15
     /tmp/cc7cacvs.s:258    .text:000000000000016c .LVL18
     /tmp/cc7cacvs.s:141    .text:00000000000000ac .LVL10
     /tmp/cc7cacvs.s:182    .text:00000000000000f4 .LVL11
     /tmp/cc7cacvs.s:194    .text:000000000000010c .LVL13
     /tmp/cc7cacvs.s:84     .text:0000000000000068 .LVL5
     /tmp/cc7cacvs.s:100    .text:0000000000000084 .LVL6
     /tmp/cc7cacvs.s:117    .text:00000000000000a4 .LVL9
     /tmp/cc7cacvs.s:14     .text:0000000000000000 .LVL0
     /tmp/cc7cacvs.s:66     .text:0000000000000060 .LVL4
     /tmp/cc7cacvs.s:333    .debug_info:0000000000000000 .Ldebug_info0
     /tmp/cc7cacvs.s:125    .gcc_except_table:0000000000000000 .LLSDA20

UNDEFINED SYMBOLS
_ZN15MemoryAllocator11getInstanceEv
_ZN15MemoryAllocator8allocateEm
_Z8sem_openPP10CSemaphorej
_Z8mem_freePv
_Z9sem_closeP10CSemaphore
__gxx_personality_v0
_ZN10CSemaphore6signalEv
_ZN10CSemaphore4waitEv
