GAS LISTING /tmp/ccx9Uhqi.s 			page 1


   1              		.file	"main.cpp"
   2              		.option pic
   3              		.option norelax
   4              		.text
   5              	.Ltext0:
   6              		.section	.text._ZN6Thread3runEv,"axG",@progbits,_ZN6Thread3runEv,comdat
   7              		.align	2
   8              		.weak	_ZN6Thread3runEv
  10              	_ZN6Thread3runEv:
  11              	.LFB12:
  12              		.file 1 "src/../test/../h/syscall_cpp.hpp"
   1:src/../test/../h/syscall_cpp.hpp **** //
   2:src/../test/../h/syscall_cpp.hpp **** // Created by os on 6/30/22.
   3:src/../test/../h/syscall_cpp.hpp **** //
   4:src/../test/../h/syscall_cpp.hpp **** 
   5:src/../test/../h/syscall_cpp.hpp **** #ifndef SEM_TH_EXIT_SYSCALL_CPP_HPP
   6:src/../test/../h/syscall_cpp.hpp **** #define SEM_TH_EXIT_SYSCALL_CPP_HPP
   7:src/../test/../h/syscall_cpp.hpp **** 
   8:src/../test/../h/syscall_cpp.hpp **** 
   9:src/../test/../h/syscall_cpp.hpp **** #include "syscall_c.h"
  10:src/../test/../h/syscall_cpp.hpp **** 
  11:src/../test/../h/syscall_cpp.hpp **** void* operator new (size_t);
  12:src/../test/../h/syscall_cpp.hpp **** void* operator new[](size_t);
  13:src/../test/../h/syscall_cpp.hpp **** void operator delete (void*);
  14:src/../test/../h/syscall_cpp.hpp **** void operator delete[](void*);
  15:src/../test/../h/syscall_cpp.hpp **** 
  16:src/../test/../h/syscall_cpp.hpp **** class Thread {
  17:src/../test/../h/syscall_cpp.hpp **** public:
  18:src/../test/../h/syscall_cpp.hpp ****     Thread (void (*body)(void*), void* arg);
  19:src/../test/../h/syscall_cpp.hpp ****     virtual ~Thread ();
  20:src/../test/../h/syscall_cpp.hpp ****     int start ();
  21:src/../test/../h/syscall_cpp.hpp ****     static void dispatch ();
  22:src/../test/../h/syscall_cpp.hpp ****     static int sleep (time_t);
  23:src/../test/../h/syscall_cpp.hpp **** protected:
  24:src/../test/../h/syscall_cpp.hpp ****     Thread ();
  25:src/../test/../h/syscall_cpp.hpp ****     virtual void run () {}
  13              		.loc 1 25 18
  14              		.cfi_startproc
  15              	.LVL0:
  16 0000 130101FF 		addi	sp,sp,-16
  17              		.cfi_def_cfa_offset 16
  18 0004 23348100 		sd	s0,8(sp)
  19              		.cfi_offset 8, -8
  20 0008 13040101 		addi	s0,sp,16
  21              		.cfi_def_cfa 8, 0
  22              		.loc 1 25 26 is_stmt 0
  23 000c 03348100 		ld	s0,8(sp)
  24              		.cfi_restore 8
  25              		.cfi_def_cfa 2, 16
  26 0010 13010101 		addi	sp,sp,16
  27              		.cfi_def_cfa_offset 0
  28 0014 67800000 		jr	ra
  29              		.cfi_endproc
  30              	.LFE12:
  32              		.section	.text._ZN14PeriodicThread18periodicActivationEv,"axG",@progbits,_ZN14PeriodicThread18peri
  33              		.align	2
  34              		.weak	_ZN14PeriodicThread18periodicActivationEv
GAS LISTING /tmp/ccx9Uhqi.s 			page 2


  36              	_ZN14PeriodicThread18periodicActivationEv:
  37              	.LFB13:
  26:src/../test/../h/syscall_cpp.hpp **** private:
  27:src/../test/../h/syscall_cpp.hpp ****     static void wrapper(void*);
  28:src/../test/../h/syscall_cpp.hpp ****     thread_t myHandle;
  29:src/../test/../h/syscall_cpp.hpp **** };
  30:src/../test/../h/syscall_cpp.hpp **** 
  31:src/../test/../h/syscall_cpp.hpp **** class Semaphore {
  32:src/../test/../h/syscall_cpp.hpp **** public:
  33:src/../test/../h/syscall_cpp.hpp ****     Semaphore (unsigned init = 1);
  34:src/../test/../h/syscall_cpp.hpp ****     virtual ~Semaphore ();
  35:src/../test/../h/syscall_cpp.hpp ****     int wait ();
  36:src/../test/../h/syscall_cpp.hpp ****     int signal ();
  37:src/../test/../h/syscall_cpp.hpp **** private:
  38:src/../test/../h/syscall_cpp.hpp ****     sem_t myHandle;
  39:src/../test/../h/syscall_cpp.hpp **** };
  40:src/../test/../h/syscall_cpp.hpp **** 
  41:src/../test/../h/syscall_cpp.hpp **** class PeriodicThread : public Thread {
  42:src/../test/../h/syscall_cpp.hpp **** public:
  43:src/../test/../h/syscall_cpp.hpp ****     static bool flag;
  44:src/../test/../h/syscall_cpp.hpp **** protected:
  45:src/../test/../h/syscall_cpp.hpp ****     PeriodicThread (time_t period);
  46:src/../test/../h/syscall_cpp.hpp ****     virtual void periodicActivation () {}
  38              		.loc 1 46 18 is_stmt 1
  39              		.cfi_startproc
  40              	.LVL1:
  41 0000 130101FF 		addi	sp,sp,-16
  42              		.cfi_def_cfa_offset 16
  43 0004 23348100 		sd	s0,8(sp)
  44              		.cfi_offset 8, -8
  45 0008 13040101 		addi	s0,sp,16
  46              		.cfi_def_cfa 8, 0
  47              		.loc 1 46 41 is_stmt 0
  48 000c 03348100 		ld	s0,8(sp)
  49              		.cfi_restore 8
  50              		.cfi_def_cfa 2, 16
  51 0010 13010101 		addi	sp,sp,16
  52              		.cfi_def_cfa_offset 0
  53 0014 67800000 		jr	ra
  54              		.cfi_endproc
  55              	.LFE13:
  57              		.section	.text._ZN19ConsumerProducerCPP8Consumer3runEv,"axG",@progbits,_ZN19ConsumerProducerCPP8Co
  58              		.align	2
  59              		.weak	_ZN19ConsumerProducerCPP8Consumer3runEv
  61              	_ZN19ConsumerProducerCPP8Consumer3runEv:
  62              	.LFB28:
  63              		.file 2 "src/../test/ConsumerProducer_CPP_API_test.hpp"
   1:src/../test/ConsumerProducer_CPP_API_test.hpp **** //
   2:src/../test/ConsumerProducer_CPP_API_test.hpp **** // Created by os on 4/17/22.
   3:src/../test/ConsumerProducer_CPP_API_test.hpp **** //
   4:src/../test/ConsumerProducer_CPP_API_test.hpp **** 
   5:src/../test/ConsumerProducer_CPP_API_test.hpp **** #ifndef XV6_CONSUMERPRODUCER_CPP_API_TEST_HPP
   6:src/../test/ConsumerProducer_CPP_API_test.hpp **** #define XV6_CONSUMERPRODUCER_CPP_API_TEST_HPP
   7:src/../test/ConsumerProducer_CPP_API_test.hpp **** 
   8:src/../test/ConsumerProducer_CPP_API_test.hpp **** #include "../h/syscall_cpp.hpp"
   9:src/../test/ConsumerProducer_CPP_API_test.hpp **** 
  10:src/../test/ConsumerProducer_CPP_API_test.hpp **** #include "buffer_CPP_API.hpp"
GAS LISTING /tmp/ccx9Uhqi.s 			page 3


  11:src/../test/ConsumerProducer_CPP_API_test.hpp **** #include "printing.hpp"
  12:src/../test/ConsumerProducer_CPP_API_test.hpp **** 
  13:src/../test/ConsumerProducer_CPP_API_test.hpp **** namespace ConsumerProducerCPP {
  14:src/../test/ConsumerProducer_CPP_API_test.hpp **** 
  15:src/../test/ConsumerProducer_CPP_API_test.hpp ****     Semaphore *waitForAll;
  16:src/../test/ConsumerProducer_CPP_API_test.hpp **** 
  17:src/../test/ConsumerProducer_CPP_API_test.hpp ****     struct thread_data {
  18:src/../test/ConsumerProducer_CPP_API_test.hpp ****         int id;
  19:src/../test/ConsumerProducer_CPP_API_test.hpp ****         BufferCPP *buffer;
  20:src/../test/ConsumerProducer_CPP_API_test.hpp ****         Semaphore *sem;
  21:src/../test/ConsumerProducer_CPP_API_test.hpp ****     };
  22:src/../test/ConsumerProducer_CPP_API_test.hpp **** 
  23:src/../test/ConsumerProducer_CPP_API_test.hpp ****     volatile int threadEnd = 0;
  24:src/../test/ConsumerProducer_CPP_API_test.hpp **** 
  25:src/../test/ConsumerProducer_CPP_API_test.hpp ****     class ProducerKeyborad : public Thread {
  26:src/../test/ConsumerProducer_CPP_API_test.hpp ****         thread_data *td;
  27:src/../test/ConsumerProducer_CPP_API_test.hpp ****     public:
  28:src/../test/ConsumerProducer_CPP_API_test.hpp ****         ProducerKeyborad(thread_data *_td) : Thread(), td(_td) {}
  29:src/../test/ConsumerProducer_CPP_API_test.hpp **** 
  30:src/../test/ConsumerProducer_CPP_API_test.hpp ****         void run() override {
  31:src/../test/ConsumerProducer_CPP_API_test.hpp ****             int key;
  32:src/../test/ConsumerProducer_CPP_API_test.hpp ****             int i = 0;
  33:src/../test/ConsumerProducer_CPP_API_test.hpp ****             while ((key = getc()) != 0x51) {
  34:src/../test/ConsumerProducer_CPP_API_test.hpp ****                 td->buffer->put(key);
  35:src/../test/ConsumerProducer_CPP_API_test.hpp ****                 i++;
  36:src/../test/ConsumerProducer_CPP_API_test.hpp ****             }
  37:src/../test/ConsumerProducer_CPP_API_test.hpp **** 
  38:src/../test/ConsumerProducer_CPP_API_test.hpp ****             threadEnd = 1;
  39:src/../test/ConsumerProducer_CPP_API_test.hpp ****             td->buffer->put('!');
  40:src/../test/ConsumerProducer_CPP_API_test.hpp **** 
  41:src/../test/ConsumerProducer_CPP_API_test.hpp ****             td->sem->signal();
  42:src/../test/ConsumerProducer_CPP_API_test.hpp ****         }
  43:src/../test/ConsumerProducer_CPP_API_test.hpp ****     };
  44:src/../test/ConsumerProducer_CPP_API_test.hpp **** 
  45:src/../test/ConsumerProducer_CPP_API_test.hpp ****     class Producer : public Thread {
  46:src/../test/ConsumerProducer_CPP_API_test.hpp ****         thread_data *td;
  47:src/../test/ConsumerProducer_CPP_API_test.hpp ****     public:
  48:src/../test/ConsumerProducer_CPP_API_test.hpp ****         Producer(thread_data *_td) : Thread(), td(_td) {}
  49:src/../test/ConsumerProducer_CPP_API_test.hpp **** 
  50:src/../test/ConsumerProducer_CPP_API_test.hpp ****         void run() override {
  51:src/../test/ConsumerProducer_CPP_API_test.hpp ****             int i = 0;
  52:src/../test/ConsumerProducer_CPP_API_test.hpp ****             while (!threadEnd) {
  53:src/../test/ConsumerProducer_CPP_API_test.hpp ****                 td->buffer->put(td->id + '0');
  54:src/../test/ConsumerProducer_CPP_API_test.hpp ****                 i++;
  55:src/../test/ConsumerProducer_CPP_API_test.hpp ****                 Thread::sleep((i+td->id)%5);
  56:src/../test/ConsumerProducer_CPP_API_test.hpp ****             }
  57:src/../test/ConsumerProducer_CPP_API_test.hpp **** 
  58:src/../test/ConsumerProducer_CPP_API_test.hpp ****             td->sem->signal();
  59:src/../test/ConsumerProducer_CPP_API_test.hpp ****         }
  60:src/../test/ConsumerProducer_CPP_API_test.hpp ****     };
  61:src/../test/ConsumerProducer_CPP_API_test.hpp **** 
  62:src/../test/ConsumerProducer_CPP_API_test.hpp ****     class Consumer : public Thread {
  63:src/../test/ConsumerProducer_CPP_API_test.hpp ****         thread_data *td;
  64:src/../test/ConsumerProducer_CPP_API_test.hpp ****     public:
  65:src/../test/ConsumerProducer_CPP_API_test.hpp ****         Consumer(thread_data *_td) : Thread(), td(_td) {}
  66:src/../test/ConsumerProducer_CPP_API_test.hpp **** 
  67:src/../test/ConsumerProducer_CPP_API_test.hpp ****         void run() override {
GAS LISTING /tmp/ccx9Uhqi.s 			page 4


  64              		.loc 2 67 14 is_stmt 1
  65              		.cfi_startproc
  66              	.LVL2:
  67 0000 130101FD 		addi	sp,sp,-48
  68              		.cfi_def_cfa_offset 48
  69 0004 23341102 		sd	ra,40(sp)
  70 0008 23308102 		sd	s0,32(sp)
  71 000c 233C9100 		sd	s1,24(sp)
  72 0010 23382101 		sd	s2,16(sp)
  73 0014 23343101 		sd	s3,8(sp)
  74              		.cfi_offset 1, -8
  75              		.cfi_offset 8, -16
  76              		.cfi_offset 9, -24
  77              		.cfi_offset 18, -32
  78              		.cfi_offset 19, -40
  79 0018 13040103 		addi	s0,sp,48
  80              		.cfi_def_cfa 8, 0
  81 001c 13090500 		mv	s2,a0
  68:src/../test/ConsumerProducer_CPP_API_test.hpp ****             int i = 0;
  82              		.loc 2 68 13
  83              	.LVL3:
  84              		.loc 2 68 17 is_stmt 0
  85 0020 93090000 		li	s3,0
  86 0024 6F000001 		j	.L6
  87              	.LVL4:
  88              	.L11:
  89              	.LBB81:
  69:src/../test/ConsumerProducer_CPP_API_test.hpp ****             while (!threadEnd) {
  70:src/../test/ConsumerProducer_CPP_API_test.hpp ****                 int key = td->buffer->get();
  71:src/../test/ConsumerProducer_CPP_API_test.hpp ****                 i++;
  72:src/../test/ConsumerProducer_CPP_API_test.hpp **** 
  73:src/../test/ConsumerProducer_CPP_API_test.hpp ****                 Console::putc(key);
  74:src/../test/ConsumerProducer_CPP_API_test.hpp **** 
  75:src/../test/ConsumerProducer_CPP_API_test.hpp ****                 if (i % 80 == 0) {
  76:src/../test/ConsumerProducer_CPP_API_test.hpp ****                     Console::putc('\n');
  90              		.loc 2 76 21 is_stmt 1
  91              		.loc 2 76 34 is_stmt 0
  92 0028 1305A000 		li	a0,10
  93 002c 97000000 		call	_ZN7Console4putcEc@plt
  93      E7800000 
  94              	.LVL5:
  95              	.L6:
  96              	.LBE81:
  69:src/../test/ConsumerProducer_CPP_API_test.hpp ****             while (!threadEnd) {
  97              		.loc 2 69 13 is_stmt 1
  69:src/../test/ConsumerProducer_CPP_API_test.hpp ****             while (!threadEnd) {
  98              		.loc 2 69 20
  99 0034 97070000 		lw	a5,.LANCHOR0
  99      83A70700 
 100 003c 639A0704 		bnez	a5,.L7
 101              	.LBB82:
  70:src/../test/ConsumerProducer_CPP_API_test.hpp ****                 i++;
 102              		.loc 2 70 17
  70:src/../test/ConsumerProducer_CPP_API_test.hpp ****                 i++;
 103              		.loc 2 70 27 is_stmt 0
 104 0040 83370901 		ld	a5,16(s2)
  70:src/../test/ConsumerProducer_CPP_API_test.hpp ****                 i++;
GAS LISTING /tmp/ccx9Uhqi.s 			page 5


 105              		.loc 2 70 42
 106 0044 03B58700 		ld	a0,8(a5)
 107 0048 97000000 		call	_ZN9BufferCPP3getEv@plt
 107      E7800000 
 108              	.LVL6:
  71:src/../test/ConsumerProducer_CPP_API_test.hpp **** 
 109              		.loc 2 71 17 is_stmt 1
  71:src/../test/ConsumerProducer_CPP_API_test.hpp **** 
 110              		.loc 2 71 18 is_stmt 0
 111 0050 9B841900 		addiw	s1,s3,1
 112 0054 9B890400 		sext.w	s3,s1
 113              	.LVL7:
  73:src/../test/ConsumerProducer_CPP_API_test.hpp **** 
 114              		.loc 2 73 17 is_stmt 1
  73:src/../test/ConsumerProducer_CPP_API_test.hpp **** 
 115              		.loc 2 73 30 is_stmt 0
 116 0058 1375F50F 		andi	a0,a0,0xff
 117              	.LVL8:
 118 005c 97000000 		call	_ZN7Console4putcEc@plt
 118      E7800000 
 119              	.LVL9:
  75:src/../test/ConsumerProducer_CPP_API_test.hpp ****                     Console::putc('\n');
 120              		.loc 2 75 17 is_stmt 1
  75:src/../test/ConsumerProducer_CPP_API_test.hpp ****                     Console::putc('\n');
 121              		.loc 2 75 23 is_stmt 0
 122 0064 93070005 		li	a5,80
 123 0068 BBE4F402 		remw	s1,s1,a5
 124              	.LVL10:
  75:src/../test/ConsumerProducer_CPP_API_test.hpp ****                     Console::putc('\n');
 125              		.loc 2 75 17
 126 006c E39404FC 		bnez	s1,.L6
 127 0070 6FF09FFB 		j	.L11
 128              	.L12:
 129              	.LBE82:
 130              	.LBB83:
  77:src/../test/ConsumerProducer_CPP_API_test.hpp ****                 }
  78:src/../test/ConsumerProducer_CPP_API_test.hpp ****             }
  79:src/../test/ConsumerProducer_CPP_API_test.hpp **** 
  80:src/../test/ConsumerProducer_CPP_API_test.hpp ****             while (td->buffer->getCnt() > 0) {
  81:src/../test/ConsumerProducer_CPP_API_test.hpp ****                 int key = td->buffer->get();
 131              		.loc 2 81 17 is_stmt 1
 132              		.loc 2 81 27 is_stmt 0
 133 0074 83370901 		ld	a5,16(s2)
 134              		.loc 2 81 42
 135 0078 03B58700 		ld	a0,8(a5)
 136 007c 97000000 		call	_ZN9BufferCPP3getEv@plt
 136      E7800000 
 137              	.LVL11:
  82:src/../test/ConsumerProducer_CPP_API_test.hpp ****                 Console::putc(key);
 138              		.loc 2 82 17 is_stmt 1
 139              		.loc 2 82 30 is_stmt 0
 140 0084 1375F50F 		andi	a0,a0,0xff
 141              	.LVL12:
 142 0088 97000000 		call	_ZN7Console4putcEc@plt
 142      E7800000 
 143              	.LVL13:
 144              	.L7:
GAS LISTING /tmp/ccx9Uhqi.s 			page 6


 145              	.LBE83:
  80:src/../test/ConsumerProducer_CPP_API_test.hpp ****                 int key = td->buffer->get();
 146              		.loc 2 80 13 is_stmt 1
  80:src/../test/ConsumerProducer_CPP_API_test.hpp ****                 int key = td->buffer->get();
 147              		.loc 2 80 41
  80:src/../test/ConsumerProducer_CPP_API_test.hpp ****                 int key = td->buffer->get();
 148              		.loc 2 80 20 is_stmt 0
 149 0090 83370901 		ld	a5,16(s2)
  80:src/../test/ConsumerProducer_CPP_API_test.hpp ****                 int key = td->buffer->get();
 150              		.loc 2 80 38
 151 0094 03B58700 		ld	a0,8(a5)
 152 0098 97000000 		call	_ZN9BufferCPP6getCntEv@plt
 152      E7800000 
 153              	.LVL14:
  80:src/../test/ConsumerProducer_CPP_API_test.hpp ****                 int key = td->buffer->get();
 154              		.loc 2 80 41
 155 00a0 E34AA0FC 		bgtz	a0,.L12
  83:src/../test/ConsumerProducer_CPP_API_test.hpp ****             }
  84:src/../test/ConsumerProducer_CPP_API_test.hpp **** 
  85:src/../test/ConsumerProducer_CPP_API_test.hpp ****             td->sem->signal();
 156              		.loc 2 85 13 is_stmt 1
 157 00a4 83370901 		ld	a5,16(s2)
 158              		.loc 2 85 28 is_stmt 0
 159 00a8 03B50701 		ld	a0,16(a5)
 160 00ac 97000000 		call	_ZN9Semaphore6signalEv@plt
 160      E7800000 
 161              	.LVL15:
  86:src/../test/ConsumerProducer_CPP_API_test.hpp ****         }
 162              		.loc 2 86 9
 163 00b4 83308102 		ld	ra,40(sp)
 164              		.cfi_restore 1
 165 00b8 03340102 		ld	s0,32(sp)
 166              		.cfi_restore 8
 167              		.cfi_def_cfa 2, 48
 168 00bc 83348101 		ld	s1,24(sp)
 169              		.cfi_restore 9
 170 00c0 03390101 		ld	s2,16(sp)
 171              		.cfi_restore 18
 172              	.LVL16:
 173 00c4 83398100 		ld	s3,8(sp)
 174              		.cfi_restore 19
 175              	.LVL17:
 176 00c8 13010103 		addi	sp,sp,48
 177              		.cfi_def_cfa_offset 0
 178 00cc 67800000 		jr	ra
 179              		.cfi_endproc
 180              	.LFE28:
 182              		.section	.text._ZN19ConsumerProducerCPP8ConsumerD2Ev,"axG",@progbits,_ZN19ConsumerProducerCPP8Cons
 183              		.align	2
 184              		.weak	_ZN19ConsumerProducerCPP8ConsumerD2Ev
 186              	_ZN19ConsumerProducerCPP8ConsumerD2Ev:
 187              	.LFB96:
  62:src/../test/ConsumerProducer_CPP_API_test.hpp ****         thread_data *td;
 188              		.loc 2 62 11 is_stmt 1
 189              		.cfi_startproc
 190              	.LVL18:
 191 0000 130101FF 		addi	sp,sp,-16
GAS LISTING /tmp/ccx9Uhqi.s 			page 7


 192              		.cfi_def_cfa_offset 16
 193 0004 23341100 		sd	ra,8(sp)
 194 0008 23308100 		sd	s0,0(sp)
 195              		.cfi_offset 1, -8
 196              		.cfi_offset 8, -16
 197 000c 13040101 		addi	s0,sp,16
 198              		.cfi_def_cfa 8, 0
 199              	.LBB84:
  62:src/../test/ConsumerProducer_CPP_API_test.hpp ****         thread_data *td;
 200              		.loc 2 62 11 is_stmt 0
 201 0010 97070000 		lla	a5,_ZTVN19ConsumerProducerCPP8ConsumerE+16
 201      93870700 
 202 0018 2330F500 		sd	a5,0(a0)
 203 001c 97000000 		call	_ZN6ThreadD2Ev@plt
 203      E7800000 
 204              	.LVL19:
 205              	.LBE84:
 206 0024 83308100 		ld	ra,8(sp)
 207              		.cfi_restore 1
 208 0028 03340100 		ld	s0,0(sp)
 209              		.cfi_restore 8
 210              		.cfi_def_cfa 2, 16
 211 002c 13010101 		addi	sp,sp,16
 212              		.cfi_def_cfa_offset 0
 213 0030 67800000 		jr	ra
 214              		.cfi_endproc
 215              	.LFE96:
 217              		.weak	_ZN19ConsumerProducerCPP8ConsumerD1Ev
 218              		.set	_ZN19ConsumerProducerCPP8ConsumerD1Ev,_ZN19ConsumerProducerCPP8ConsumerD2Ev
 219              		.section	.text._ZN19ConsumerProducerCPP8ConsumerD0Ev,"axG",@progbits,_ZN19ConsumerProducerCPP8Cons
 220              		.align	2
 221              		.weak	_ZN19ConsumerProducerCPP8ConsumerD0Ev
 223              	_ZN19ConsumerProducerCPP8ConsumerD0Ev:
 224              	.LFB98:
  62:src/../test/ConsumerProducer_CPP_API_test.hpp ****         thread_data *td;
 225              		.loc 2 62 11 is_stmt 1
 226              		.cfi_startproc
 227              	.LVL20:
 228 0000 130101FE 		addi	sp,sp,-32
 229              		.cfi_def_cfa_offset 32
 230 0004 233C1100 		sd	ra,24(sp)
 231 0008 23388100 		sd	s0,16(sp)
 232 000c 23349100 		sd	s1,8(sp)
 233              		.cfi_offset 1, -8
 234              		.cfi_offset 8, -16
 235              		.cfi_offset 9, -24
 236 0010 13040102 		addi	s0,sp,32
 237              		.cfi_def_cfa 8, 0
 238 0014 93040500 		mv	s1,a0
 239              	.LVL21:
 240              	.LBB85:
 241              	.LBB86:
  62:src/../test/ConsumerProducer_CPP_API_test.hpp ****         thread_data *td;
 242              		.loc 2 62 11 is_stmt 0
 243 0018 97070000 		lla	a5,_ZTVN19ConsumerProducerCPP8ConsumerE+16
 243      93870700 
 244 0020 2330F500 		sd	a5,0(a0)
GAS LISTING /tmp/ccx9Uhqi.s 			page 8


 245 0024 97000000 		call	_ZN6ThreadD2Ev@plt
 245      E7800000 
 246              	.LVL22:
 247              	.LBE86:
 248              	.LBE85:
 249 002c 13850400 		mv	a0,s1
 250 0030 97000000 		call	_ZdlPv@plt
 250      E7800000 
 251              	.LVL23:
 252 0038 83308101 		ld	ra,24(sp)
 253              		.cfi_restore 1
 254 003c 03340101 		ld	s0,16(sp)
 255              		.cfi_restore 8
 256              		.cfi_def_cfa 2, 32
 257 0040 83348100 		ld	s1,8(sp)
 258              		.cfi_restore 9
 259              	.LVL24:
 260 0044 13010102 		addi	sp,sp,32
 261              		.cfi_def_cfa_offset 0
 262 0048 67800000 		jr	ra
 263              		.cfi_endproc
 264              	.LFE98:
 266              		.section	.text._ZN19ConsumerProducerCPP16ProducerKeyboradD2Ev,"axG",@progbits,_ZN19ConsumerProduce
 267              		.align	2
 268              		.weak	_ZN19ConsumerProducerCPP16ProducerKeyboradD2Ev
 270              	_ZN19ConsumerProducerCPP16ProducerKeyboradD2Ev:
 271              	.LFB104:
  25:src/../test/ConsumerProducer_CPP_API_test.hpp ****         thread_data *td;
 272              		.loc 2 25 11 is_stmt 1
 273              		.cfi_startproc
 274              	.LVL25:
 275 0000 130101FF 		addi	sp,sp,-16
 276              		.cfi_def_cfa_offset 16
 277 0004 23341100 		sd	ra,8(sp)
 278 0008 23308100 		sd	s0,0(sp)
 279              		.cfi_offset 1, -8
 280              		.cfi_offset 8, -16
 281 000c 13040101 		addi	s0,sp,16
 282              		.cfi_def_cfa 8, 0
 283              	.LBB87:
  25:src/../test/ConsumerProducer_CPP_API_test.hpp ****         thread_data *td;
 284              		.loc 2 25 11 is_stmt 0
 285 0010 97070000 		lla	a5,_ZTVN19ConsumerProducerCPP16ProducerKeyboradE+16
 285      93870700 
 286 0018 2330F500 		sd	a5,0(a0)
 287 001c 97000000 		call	_ZN6ThreadD2Ev@plt
 287      E7800000 
 288              	.LVL26:
 289              	.LBE87:
 290 0024 83308100 		ld	ra,8(sp)
 291              		.cfi_restore 1
 292 0028 03340100 		ld	s0,0(sp)
 293              		.cfi_restore 8
 294              		.cfi_def_cfa 2, 16
 295 002c 13010101 		addi	sp,sp,16
 296              		.cfi_def_cfa_offset 0
 297 0030 67800000 		jr	ra
GAS LISTING /tmp/ccx9Uhqi.s 			page 9


 298              		.cfi_endproc
 299              	.LFE104:
 301              		.weak	_ZN19ConsumerProducerCPP16ProducerKeyboradD1Ev
 302              		.set	_ZN19ConsumerProducerCPP16ProducerKeyboradD1Ev,_ZN19ConsumerProducerCPP16ProducerKeyboradD2Ev
 303              		.section	.text._ZN19ConsumerProducerCPP16ProducerKeyboradD0Ev,"axG",@progbits,_ZN19ConsumerProduce
 304              		.align	2
 305              		.weak	_ZN19ConsumerProducerCPP16ProducerKeyboradD0Ev
 307              	_ZN19ConsumerProducerCPP16ProducerKeyboradD0Ev:
 308              	.LFB106:
  25:src/../test/ConsumerProducer_CPP_API_test.hpp ****         thread_data *td;
 309              		.loc 2 25 11 is_stmt 1
 310              		.cfi_startproc
 311              	.LVL27:
 312 0000 130101FE 		addi	sp,sp,-32
 313              		.cfi_def_cfa_offset 32
 314 0004 233C1100 		sd	ra,24(sp)
 315 0008 23388100 		sd	s0,16(sp)
 316 000c 23349100 		sd	s1,8(sp)
 317              		.cfi_offset 1, -8
 318              		.cfi_offset 8, -16
 319              		.cfi_offset 9, -24
 320 0010 13040102 		addi	s0,sp,32
 321              		.cfi_def_cfa 8, 0
 322 0014 93040500 		mv	s1,a0
 323              	.LVL28:
 324              	.LBB88:
 325              	.LBB89:
  25:src/../test/ConsumerProducer_CPP_API_test.hpp ****         thread_data *td;
 326              		.loc 2 25 11 is_stmt 0
 327 0018 97070000 		lla	a5,_ZTVN19ConsumerProducerCPP16ProducerKeyboradE+16
 327      93870700 
 328 0020 2330F500 		sd	a5,0(a0)
 329 0024 97000000 		call	_ZN6ThreadD2Ev@plt
 329      E7800000 
 330              	.LVL29:
 331              	.LBE89:
 332              	.LBE88:
 333 002c 13850400 		mv	a0,s1
 334 0030 97000000 		call	_ZdlPv@plt
 334      E7800000 
 335              	.LVL30:
 336 0038 83308101 		ld	ra,24(sp)
 337              		.cfi_restore 1
 338 003c 03340101 		ld	s0,16(sp)
 339              		.cfi_restore 8
 340              		.cfi_def_cfa 2, 32
 341 0040 83348100 		ld	s1,8(sp)
 342              		.cfi_restore 9
 343              	.LVL31:
 344 0044 13010102 		addi	sp,sp,32
 345              		.cfi_def_cfa_offset 0
 346 0048 67800000 		jr	ra
 347              		.cfi_endproc
 348              	.LFE106:
 350              		.section	.text._ZN19ConsumerProducerCPP8ProducerD2Ev,"axG",@progbits,_ZN19ConsumerProducerCPP8Prod
 351              		.align	2
 352              		.weak	_ZN19ConsumerProducerCPP8ProducerD2Ev
GAS LISTING /tmp/ccx9Uhqi.s 			page 10


 354              	_ZN19ConsumerProducerCPP8ProducerD2Ev:
 355              	.LFB100:
  45:src/../test/ConsumerProducer_CPP_API_test.hpp ****         thread_data *td;
 356              		.loc 2 45 11 is_stmt 1
 357              		.cfi_startproc
 358              	.LVL32:
 359 0000 130101FF 		addi	sp,sp,-16
 360              		.cfi_def_cfa_offset 16
 361 0004 23341100 		sd	ra,8(sp)
 362 0008 23308100 		sd	s0,0(sp)
 363              		.cfi_offset 1, -8
 364              		.cfi_offset 8, -16
 365 000c 13040101 		addi	s0,sp,16
 366              		.cfi_def_cfa 8, 0
 367              	.LBB90:
  45:src/../test/ConsumerProducer_CPP_API_test.hpp ****         thread_data *td;
 368              		.loc 2 45 11 is_stmt 0
 369 0010 97070000 		lla	a5,_ZTVN19ConsumerProducerCPP8ProducerE+16
 369      93870700 
 370 0018 2330F500 		sd	a5,0(a0)
 371 001c 97000000 		call	_ZN6ThreadD2Ev@plt
 371      E7800000 
 372              	.LVL33:
 373              	.LBE90:
 374 0024 83308100 		ld	ra,8(sp)
 375              		.cfi_restore 1
 376 0028 03340100 		ld	s0,0(sp)
 377              		.cfi_restore 8
 378              		.cfi_def_cfa 2, 16
 379 002c 13010101 		addi	sp,sp,16
 380              		.cfi_def_cfa_offset 0
 381 0030 67800000 		jr	ra
 382              		.cfi_endproc
 383              	.LFE100:
 385              		.weak	_ZN19ConsumerProducerCPP8ProducerD1Ev
 386              		.set	_ZN19ConsumerProducerCPP8ProducerD1Ev,_ZN19ConsumerProducerCPP8ProducerD2Ev
 387              		.section	.text._ZN19ConsumerProducerCPP8ProducerD0Ev,"axG",@progbits,_ZN19ConsumerProducerCPP8Prod
 388              		.align	2
 389              		.weak	_ZN19ConsumerProducerCPP8ProducerD0Ev
 391              	_ZN19ConsumerProducerCPP8ProducerD0Ev:
 392              	.LFB102:
  45:src/../test/ConsumerProducer_CPP_API_test.hpp ****         thread_data *td;
 393              		.loc 2 45 11 is_stmt 1
 394              		.cfi_startproc
 395              	.LVL34:
 396 0000 130101FE 		addi	sp,sp,-32
 397              		.cfi_def_cfa_offset 32
 398 0004 233C1100 		sd	ra,24(sp)
 399 0008 23388100 		sd	s0,16(sp)
 400 000c 23349100 		sd	s1,8(sp)
 401              		.cfi_offset 1, -8
 402              		.cfi_offset 8, -16
 403              		.cfi_offset 9, -24
 404 0010 13040102 		addi	s0,sp,32
 405              		.cfi_def_cfa 8, 0
 406 0014 93040500 		mv	s1,a0
 407              	.LVL35:
GAS LISTING /tmp/ccx9Uhqi.s 			page 11


 408              	.LBB91:
 409              	.LBB92:
  45:src/../test/ConsumerProducer_CPP_API_test.hpp ****         thread_data *td;
 410              		.loc 2 45 11 is_stmt 0
 411 0018 97070000 		lla	a5,_ZTVN19ConsumerProducerCPP8ProducerE+16
 411      93870700 
 412 0020 2330F500 		sd	a5,0(a0)
 413 0024 97000000 		call	_ZN6ThreadD2Ev@plt
 413      E7800000 
 414              	.LVL36:
 415              	.LBE92:
 416              	.LBE91:
 417 002c 13850400 		mv	a0,s1
 418 0030 97000000 		call	_ZdlPv@plt
 418      E7800000 
 419              	.LVL37:
 420 0038 83308101 		ld	ra,24(sp)
 421              		.cfi_restore 1
 422 003c 03340101 		ld	s0,16(sp)
 423              		.cfi_restore 8
 424              		.cfi_def_cfa 2, 32
 425 0040 83348100 		ld	s1,8(sp)
 426              		.cfi_restore 9
 427              	.LVL38:
 428 0044 13010102 		addi	sp,sp,32
 429              		.cfi_def_cfa_offset 0
 430 0048 67800000 		jr	ra
 431              		.cfi_endproc
 432              	.LFE102:
 434              		.section	.text._ZN7WorkerAD2Ev,"axG",@progbits,_ZN7WorkerAD5Ev,comdat
 435              		.align	2
 436              		.weak	_ZN7WorkerAD2Ev
 438              	_ZN7WorkerAD2Ev:
 439              	.LFB92:
 440              		.file 3 "src/../test/Threads_CPP_API_test.hpp"
   1:src/../test/Threads_CPP_API_test.hpp **** #ifndef XV6_THREADS_CPP_API_TEST_HPP
   2:src/../test/Threads_CPP_API_test.hpp **** #define XV6_THREADS_CPP_API_TEST_HPP
   3:src/../test/Threads_CPP_API_test.hpp **** 
   4:src/../test/Threads_CPP_API_test.hpp **** #include "../h/syscall_cpp.hpp"
   5:src/../test/Threads_CPP_API_test.hpp **** 
   6:src/../test/Threads_CPP_API_test.hpp **** #include "printing.hpp"
   7:src/../test/Threads_CPP_API_test.hpp **** 
   8:src/../test/Threads_CPP_API_test.hpp **** bool finishedA = false;
   9:src/../test/Threads_CPP_API_test.hpp **** bool finishedB = false;
  10:src/../test/Threads_CPP_API_test.hpp **** bool finishedC = false;
  11:src/../test/Threads_CPP_API_test.hpp **** bool finishedD = false;
  12:src/../test/Threads_CPP_API_test.hpp **** 
  13:src/../test/Threads_CPP_API_test.hpp **** uint64 fibonacci(uint64 n) {
  14:src/../test/Threads_CPP_API_test.hpp ****     if (n == 0 || n == 1) { return n; }
  15:src/../test/Threads_CPP_API_test.hpp ****     if (n % 10 == 0) { thread_dispatch(); }
  16:src/../test/Threads_CPP_API_test.hpp ****     return fibonacci(n - 1) + fibonacci(n - 2);
  17:src/../test/Threads_CPP_API_test.hpp **** }
  18:src/../test/Threads_CPP_API_test.hpp **** 
  19:src/../test/Threads_CPP_API_test.hpp **** class WorkerA: public Thread {
 441              		.loc 3 19 7 is_stmt 1
 442              		.cfi_startproc
 443              	.LVL39:
GAS LISTING /tmp/ccx9Uhqi.s 			page 12


 444 0000 130101FF 		addi	sp,sp,-16
 445              		.cfi_def_cfa_offset 16
 446 0004 23341100 		sd	ra,8(sp)
 447 0008 23308100 		sd	s0,0(sp)
 448              		.cfi_offset 1, -8
 449              		.cfi_offset 8, -16
 450 000c 13040101 		addi	s0,sp,16
 451              		.cfi_def_cfa 8, 0
 452              	.LBB93:
 453              		.loc 3 19 7 is_stmt 0
 454 0010 97070000 		lla	a5,_ZTV7WorkerA+16
 454      93870700 
 455 0018 2330F500 		sd	a5,0(a0)
 456 001c 97000000 		call	_ZN6ThreadD2Ev@plt
 456      E7800000 
 457              	.LVL40:
 458              	.LBE93:
 459 0024 83308100 		ld	ra,8(sp)
 460              		.cfi_restore 1
 461 0028 03340100 		ld	s0,0(sp)
 462              		.cfi_restore 8
 463              		.cfi_def_cfa 2, 16
 464 002c 13010101 		addi	sp,sp,16
 465              		.cfi_def_cfa_offset 0
 466 0030 67800000 		jr	ra
 467              		.cfi_endproc
 468              	.LFE92:
 470              		.weak	_ZN7WorkerAD1Ev
 471              		.set	_ZN7WorkerAD1Ev,_ZN7WorkerAD2Ev
 472              		.section	.text._ZN7WorkerAD0Ev,"axG",@progbits,_ZN7WorkerAD5Ev,comdat
 473              		.align	2
 474              		.weak	_ZN7WorkerAD0Ev
 476              	_ZN7WorkerAD0Ev:
 477              	.LFB94:
 478              		.loc 3 19 7 is_stmt 1
 479              		.cfi_startproc
 480              	.LVL41:
 481 0000 130101FE 		addi	sp,sp,-32
 482              		.cfi_def_cfa_offset 32
 483 0004 233C1100 		sd	ra,24(sp)
 484 0008 23388100 		sd	s0,16(sp)
 485 000c 23349100 		sd	s1,8(sp)
 486              		.cfi_offset 1, -8
 487              		.cfi_offset 8, -16
 488              		.cfi_offset 9, -24
 489 0010 13040102 		addi	s0,sp,32
 490              		.cfi_def_cfa 8, 0
 491 0014 93040500 		mv	s1,a0
 492              	.LVL42:
 493              	.LBB94:
 494              	.LBB95:
 495              		.loc 3 19 7 is_stmt 0
 496 0018 97070000 		lla	a5,_ZTV7WorkerA+16
 496      93870700 
 497 0020 2330F500 		sd	a5,0(a0)
 498 0024 97000000 		call	_ZN6ThreadD2Ev@plt
 498      E7800000 
GAS LISTING /tmp/ccx9Uhqi.s 			page 13


 499              	.LVL43:
 500              	.LBE95:
 501              	.LBE94:
 502 002c 13850400 		mv	a0,s1
 503 0030 97000000 		call	_ZdlPv@plt
 503      E7800000 
 504              	.LVL44:
 505 0038 83308101 		ld	ra,24(sp)
 506              		.cfi_restore 1
 507 003c 03340101 		ld	s0,16(sp)
 508              		.cfi_restore 8
 509              		.cfi_def_cfa 2, 32
 510 0040 83348100 		ld	s1,8(sp)
 511              		.cfi_restore 9
 512              	.LVL45:
 513 0044 13010102 		addi	sp,sp,32
 514              		.cfi_def_cfa_offset 0
 515 0048 67800000 		jr	ra
 516              		.cfi_endproc
 517              	.LFE94:
 519              		.section	.text._ZN7WorkerBD2Ev,"axG",@progbits,_ZN7WorkerBD5Ev,comdat
 520              		.align	2
 521              		.weak	_ZN7WorkerBD2Ev
 523              	_ZN7WorkerBD2Ev:
 524              	.LFB88:
  20:src/../test/Threads_CPP_API_test.hpp ****     void workerBodyA(void* arg);
  21:src/../test/Threads_CPP_API_test.hpp **** public:
  22:src/../test/Threads_CPP_API_test.hpp ****     WorkerA():Thread() {}
  23:src/../test/Threads_CPP_API_test.hpp **** 
  24:src/../test/Threads_CPP_API_test.hpp ****     void run() override {
  25:src/../test/Threads_CPP_API_test.hpp ****         workerBodyA(nullptr);
  26:src/../test/Threads_CPP_API_test.hpp ****     }
  27:src/../test/Threads_CPP_API_test.hpp **** };
  28:src/../test/Threads_CPP_API_test.hpp **** 
  29:src/../test/Threads_CPP_API_test.hpp **** class WorkerB: public Thread {
 525              		.loc 3 29 7 is_stmt 1
 526              		.cfi_startproc
 527              	.LVL46:
 528 0000 130101FF 		addi	sp,sp,-16
 529              		.cfi_def_cfa_offset 16
 530 0004 23341100 		sd	ra,8(sp)
 531 0008 23308100 		sd	s0,0(sp)
 532              		.cfi_offset 1, -8
 533              		.cfi_offset 8, -16
 534 000c 13040101 		addi	s0,sp,16
 535              		.cfi_def_cfa 8, 0
 536              	.LBB96:
 537              		.loc 3 29 7 is_stmt 0
 538 0010 97070000 		lla	a5,_ZTV7WorkerB+16
 538      93870700 
 539 0018 2330F500 		sd	a5,0(a0)
 540 001c 97000000 		call	_ZN6ThreadD2Ev@plt
 540      E7800000 
 541              	.LVL47:
 542              	.LBE96:
 543 0024 83308100 		ld	ra,8(sp)
 544              		.cfi_restore 1
GAS LISTING /tmp/ccx9Uhqi.s 			page 14


 545 0028 03340100 		ld	s0,0(sp)
 546              		.cfi_restore 8
 547              		.cfi_def_cfa 2, 16
 548 002c 13010101 		addi	sp,sp,16
 549              		.cfi_def_cfa_offset 0
 550 0030 67800000 		jr	ra
 551              		.cfi_endproc
 552              	.LFE88:
 554              		.weak	_ZN7WorkerBD1Ev
 555              		.set	_ZN7WorkerBD1Ev,_ZN7WorkerBD2Ev
 556              		.section	.text._ZN7WorkerBD0Ev,"axG",@progbits,_ZN7WorkerBD5Ev,comdat
 557              		.align	2
 558              		.weak	_ZN7WorkerBD0Ev
 560              	_ZN7WorkerBD0Ev:
 561              	.LFB90:
 562              		.loc 3 29 7 is_stmt 1
 563              		.cfi_startproc
 564              	.LVL48:
 565 0000 130101FE 		addi	sp,sp,-32
 566              		.cfi_def_cfa_offset 32
 567 0004 233C1100 		sd	ra,24(sp)
 568 0008 23388100 		sd	s0,16(sp)
 569 000c 23349100 		sd	s1,8(sp)
 570              		.cfi_offset 1, -8
 571              		.cfi_offset 8, -16
 572              		.cfi_offset 9, -24
 573 0010 13040102 		addi	s0,sp,32
 574              		.cfi_def_cfa 8, 0
 575 0014 93040500 		mv	s1,a0
 576              	.LVL49:
 577              	.LBB97:
 578              	.LBB98:
 579              		.loc 3 29 7 is_stmt 0
 580 0018 97070000 		lla	a5,_ZTV7WorkerB+16
 580      93870700 
 581 0020 2330F500 		sd	a5,0(a0)
 582 0024 97000000 		call	_ZN6ThreadD2Ev@plt
 582      E7800000 
 583              	.LVL50:
 584              	.LBE98:
 585              	.LBE97:
 586 002c 13850400 		mv	a0,s1
 587 0030 97000000 		call	_ZdlPv@plt
 587      E7800000 
 588              	.LVL51:
 589 0038 83308101 		ld	ra,24(sp)
 590              		.cfi_restore 1
 591 003c 03340101 		ld	s0,16(sp)
 592              		.cfi_restore 8
 593              		.cfi_def_cfa 2, 32
 594 0040 83348100 		ld	s1,8(sp)
 595              		.cfi_restore 9
 596              	.LVL52:
 597 0044 13010102 		addi	sp,sp,32
 598              		.cfi_def_cfa_offset 0
 599 0048 67800000 		jr	ra
 600              		.cfi_endproc
GAS LISTING /tmp/ccx9Uhqi.s 			page 15


 601              	.LFE90:
 603              		.section	.text._ZN7WorkerCD2Ev,"axG",@progbits,_ZN7WorkerCD5Ev,comdat
 604              		.align	2
 605              		.weak	_ZN7WorkerCD2Ev
 607              	_ZN7WorkerCD2Ev:
 608              	.LFB84:
  30:src/../test/Threads_CPP_API_test.hpp ****     void workerBodyB(void* arg);
  31:src/../test/Threads_CPP_API_test.hpp **** public:
  32:src/../test/Threads_CPP_API_test.hpp ****     WorkerB():Thread() {}
  33:src/../test/Threads_CPP_API_test.hpp **** 
  34:src/../test/Threads_CPP_API_test.hpp ****     void run() override {
  35:src/../test/Threads_CPP_API_test.hpp ****         workerBodyB(nullptr);
  36:src/../test/Threads_CPP_API_test.hpp ****     }
  37:src/../test/Threads_CPP_API_test.hpp **** };
  38:src/../test/Threads_CPP_API_test.hpp **** 
  39:src/../test/Threads_CPP_API_test.hpp **** class WorkerC: public Thread {
 609              		.loc 3 39 7 is_stmt 1
 610              		.cfi_startproc
 611              	.LVL53:
 612 0000 130101FF 		addi	sp,sp,-16
 613              		.cfi_def_cfa_offset 16
 614 0004 23341100 		sd	ra,8(sp)
 615 0008 23308100 		sd	s0,0(sp)
 616              		.cfi_offset 1, -8
 617              		.cfi_offset 8, -16
 618 000c 13040101 		addi	s0,sp,16
 619              		.cfi_def_cfa 8, 0
 620              	.LBB99:
 621              		.loc 3 39 7 is_stmt 0
 622 0010 97070000 		lla	a5,_ZTV7WorkerC+16
 622      93870700 
 623 0018 2330F500 		sd	a5,0(a0)
 624 001c 97000000 		call	_ZN6ThreadD2Ev@plt
 624      E7800000 
 625              	.LVL54:
 626              	.LBE99:
 627 0024 83308100 		ld	ra,8(sp)
 628              		.cfi_restore 1
 629 0028 03340100 		ld	s0,0(sp)
 630              		.cfi_restore 8
 631              		.cfi_def_cfa 2, 16
 632 002c 13010101 		addi	sp,sp,16
 633              		.cfi_def_cfa_offset 0
 634 0030 67800000 		jr	ra
 635              		.cfi_endproc
 636              	.LFE84:
 638              		.weak	_ZN7WorkerCD1Ev
 639              		.set	_ZN7WorkerCD1Ev,_ZN7WorkerCD2Ev
 640              		.section	.text._ZN7WorkerCD0Ev,"axG",@progbits,_ZN7WorkerCD5Ev,comdat
 641              		.align	2
 642              		.weak	_ZN7WorkerCD0Ev
 644              	_ZN7WorkerCD0Ev:
 645              	.LFB86:
 646              		.loc 3 39 7 is_stmt 1
 647              		.cfi_startproc
 648              	.LVL55:
 649 0000 130101FE 		addi	sp,sp,-32
GAS LISTING /tmp/ccx9Uhqi.s 			page 16


 650              		.cfi_def_cfa_offset 32
 651 0004 233C1100 		sd	ra,24(sp)
 652 0008 23388100 		sd	s0,16(sp)
 653 000c 23349100 		sd	s1,8(sp)
 654              		.cfi_offset 1, -8
 655              		.cfi_offset 8, -16
 656              		.cfi_offset 9, -24
 657 0010 13040102 		addi	s0,sp,32
 658              		.cfi_def_cfa 8, 0
 659 0014 93040500 		mv	s1,a0
 660              	.LVL56:
 661              	.LBB100:
 662              	.LBB101:
 663              		.loc 3 39 7 is_stmt 0
 664 0018 97070000 		lla	a5,_ZTV7WorkerC+16
 664      93870700 
 665 0020 2330F500 		sd	a5,0(a0)
 666 0024 97000000 		call	_ZN6ThreadD2Ev@plt
 666      E7800000 
 667              	.LVL57:
 668              	.LBE101:
 669              	.LBE100:
 670 002c 13850400 		mv	a0,s1
 671 0030 97000000 		call	_ZdlPv@plt
 671      E7800000 
 672              	.LVL58:
 673 0038 83308101 		ld	ra,24(sp)
 674              		.cfi_restore 1
 675 003c 03340101 		ld	s0,16(sp)
 676              		.cfi_restore 8
 677              		.cfi_def_cfa 2, 32
 678 0040 83348100 		ld	s1,8(sp)
 679              		.cfi_restore 9
 680              	.LVL59:
 681 0044 13010102 		addi	sp,sp,32
 682              		.cfi_def_cfa_offset 0
 683 0048 67800000 		jr	ra
 684              		.cfi_endproc
 685              	.LFE86:
 687              		.section	.text._ZN7WorkerDD2Ev,"axG",@progbits,_ZN7WorkerDD5Ev,comdat
 688              		.align	2
 689              		.weak	_ZN7WorkerDD2Ev
 691              	_ZN7WorkerDD2Ev:
 692              	.LFB80:
  40:src/../test/Threads_CPP_API_test.hpp ****     void workerBodyC(void* arg);
  41:src/../test/Threads_CPP_API_test.hpp **** public:
  42:src/../test/Threads_CPP_API_test.hpp ****     WorkerC():Thread() {}
  43:src/../test/Threads_CPP_API_test.hpp **** 
  44:src/../test/Threads_CPP_API_test.hpp ****     void run() override {
  45:src/../test/Threads_CPP_API_test.hpp ****         workerBodyC(nullptr);
  46:src/../test/Threads_CPP_API_test.hpp ****     }
  47:src/../test/Threads_CPP_API_test.hpp **** };
  48:src/../test/Threads_CPP_API_test.hpp **** 
  49:src/../test/Threads_CPP_API_test.hpp **** class WorkerD: public Thread {
 693              		.loc 3 49 7 is_stmt 1
 694              		.cfi_startproc
 695              	.LVL60:
GAS LISTING /tmp/ccx9Uhqi.s 			page 17


 696 0000 130101FF 		addi	sp,sp,-16
 697              		.cfi_def_cfa_offset 16
 698 0004 23341100 		sd	ra,8(sp)
 699 0008 23308100 		sd	s0,0(sp)
 700              		.cfi_offset 1, -8
 701              		.cfi_offset 8, -16
 702 000c 13040101 		addi	s0,sp,16
 703              		.cfi_def_cfa 8, 0
 704              	.LBB102:
 705              		.loc 3 49 7 is_stmt 0
 706 0010 97070000 		lla	a5,_ZTV7WorkerD+16
 706      93870700 
 707 0018 2330F500 		sd	a5,0(a0)
 708 001c 97000000 		call	_ZN6ThreadD2Ev@plt
 708      E7800000 
 709              	.LVL61:
 710              	.LBE102:
 711 0024 83308100 		ld	ra,8(sp)
 712              		.cfi_restore 1
 713 0028 03340100 		ld	s0,0(sp)
 714              		.cfi_restore 8
 715              		.cfi_def_cfa 2, 16
 716 002c 13010101 		addi	sp,sp,16
 717              		.cfi_def_cfa_offset 0
 718 0030 67800000 		jr	ra
 719              		.cfi_endproc
 720              	.LFE80:
 722              		.weak	_ZN7WorkerDD1Ev
 723              		.set	_ZN7WorkerDD1Ev,_ZN7WorkerDD2Ev
 724              		.section	.text._ZN7WorkerDD0Ev,"axG",@progbits,_ZN7WorkerDD5Ev,comdat
 725              		.align	2
 726              		.weak	_ZN7WorkerDD0Ev
 728              	_ZN7WorkerDD0Ev:
 729              	.LFB82:
 730              		.loc 3 49 7 is_stmt 1
 731              		.cfi_startproc
 732              	.LVL62:
 733 0000 130101FE 		addi	sp,sp,-32
 734              		.cfi_def_cfa_offset 32
 735 0004 233C1100 		sd	ra,24(sp)
 736 0008 23388100 		sd	s0,16(sp)
 737 000c 23349100 		sd	s1,8(sp)
 738              		.cfi_offset 1, -8
 739              		.cfi_offset 8, -16
 740              		.cfi_offset 9, -24
 741 0010 13040102 		addi	s0,sp,32
 742              		.cfi_def_cfa 8, 0
 743 0014 93040500 		mv	s1,a0
 744              	.LVL63:
 745              	.LBB103:
 746              	.LBB104:
 747              		.loc 3 49 7 is_stmt 0
 748 0018 97070000 		lla	a5,_ZTV7WorkerD+16
 748      93870700 
 749 0020 2330F500 		sd	a5,0(a0)
 750 0024 97000000 		call	_ZN6ThreadD2Ev@plt
 750      E7800000 
GAS LISTING /tmp/ccx9Uhqi.s 			page 18


 751              	.LVL64:
 752              	.LBE104:
 753              	.LBE103:
 754 002c 13850400 		mv	a0,s1
 755 0030 97000000 		call	_ZdlPv@plt
 755      E7800000 
 756              	.LVL65:
 757 0038 83308101 		ld	ra,24(sp)
 758              		.cfi_restore 1
 759 003c 03340101 		ld	s0,16(sp)
 760              		.cfi_restore 8
 761              		.cfi_def_cfa 2, 32
 762 0040 83348100 		ld	s1,8(sp)
 763              		.cfi_restore 9
 764              	.LVL66:
 765 0044 13010102 		addi	sp,sp,32
 766              		.cfi_def_cfa_offset 0
 767 0048 67800000 		jr	ra
 768              		.cfi_endproc
 769              	.LFE82:
 771              		.section	.text._ZN14PeriodicThreadD2Ev,"axG",@progbits,_ZN14PeriodicThreadD5Ev,comdat
 772              		.align	2
 773              		.weak	_ZN14PeriodicThreadD2Ev
 775              	_ZN14PeriodicThreadD2Ev:
 776              	.LFB65:
  41:src/../test/../h/syscall_cpp.hpp **** public:
 777              		.loc 1 41 7 is_stmt 1
 778              		.cfi_startproc
 779              	.LVL67:
 780 0000 130101FF 		addi	sp,sp,-16
 781              		.cfi_def_cfa_offset 16
 782 0004 23341100 		sd	ra,8(sp)
 783 0008 23308100 		sd	s0,0(sp)
 784              		.cfi_offset 1, -8
 785              		.cfi_offset 8, -16
 786 000c 13040101 		addi	s0,sp,16
 787              		.cfi_def_cfa 8, 0
 788              	.LBB105:
  41:src/../test/../h/syscall_cpp.hpp **** public:
 789              		.loc 1 41 7 is_stmt 0
 790 0010 97070000 		lla	a5,_ZTV14PeriodicThread+16
 790      93870700 
 791 0018 2330F500 		sd	a5,0(a0)
 792 001c 97000000 		call	_ZN6ThreadD2Ev@plt
 792      E7800000 
 793              	.LVL68:
 794              	.LBE105:
 795 0024 83308100 		ld	ra,8(sp)
 796              		.cfi_restore 1
 797 0028 03340100 		ld	s0,0(sp)
 798              		.cfi_restore 8
 799              		.cfi_def_cfa 2, 16
 800 002c 13010101 		addi	sp,sp,16
 801              		.cfi_def_cfa_offset 0
 802 0030 67800000 		jr	ra
 803              		.cfi_endproc
 804              	.LFE65:
GAS LISTING /tmp/ccx9Uhqi.s 			page 19


 806              		.weak	_ZN14PeriodicThreadD1Ev
 807              		.set	_ZN14PeriodicThreadD1Ev,_ZN14PeriodicThreadD2Ev
 808              		.section	.text._ZN14PeriodicThreadD0Ev,"axG",@progbits,_ZN14PeriodicThreadD5Ev,comdat
 809              		.align	2
 810              		.weak	_ZN14PeriodicThreadD0Ev
 812              	_ZN14PeriodicThreadD0Ev:
 813              	.LFB67:
  41:src/../test/../h/syscall_cpp.hpp **** public:
 814              		.loc 1 41 7 is_stmt 1
 815              		.cfi_startproc
 816              	.LVL69:
 817 0000 130101FE 		addi	sp,sp,-32
 818              		.cfi_def_cfa_offset 32
 819 0004 233C1100 		sd	ra,24(sp)
 820 0008 23388100 		sd	s0,16(sp)
 821 000c 23349100 		sd	s1,8(sp)
 822              		.cfi_offset 1, -8
 823              		.cfi_offset 8, -16
 824              		.cfi_offset 9, -24
 825 0010 13040102 		addi	s0,sp,32
 826              		.cfi_def_cfa 8, 0
 827 0014 93040500 		mv	s1,a0
 828              	.LVL70:
 829              	.LBB106:
 830              	.LBB107:
  41:src/../test/../h/syscall_cpp.hpp **** public:
 831              		.loc 1 41 7 is_stmt 0
 832 0018 97070000 		lla	a5,_ZTV14PeriodicThread+16
 832      93870700 
 833 0020 2330F500 		sd	a5,0(a0)
 834 0024 97000000 		call	_ZN6ThreadD2Ev@plt
 834      E7800000 
 835              	.LVL71:
 836              	.LBE107:
 837              	.LBE106:
 838 002c 13850400 		mv	a0,s1
 839 0030 97000000 		call	_ZdlPv@plt
 839      E7800000 
 840              	.LVL72:
 841 0038 83308101 		ld	ra,24(sp)
 842              		.cfi_restore 1
 843 003c 03340101 		ld	s0,16(sp)
 844              		.cfi_restore 8
 845              		.cfi_def_cfa 2, 32
 846 0040 83348100 		ld	s1,8(sp)
 847              		.cfi_restore 9
 848              	.LVL73:
 849 0044 13010102 		addi	sp,sp,32
 850              		.cfi_def_cfa_offset 0
 851 0048 67800000 		jr	ra
 852              		.cfi_endproc
 853              	.LFE67:
 855              		.section	.text._ZN11MojPeriodicD2Ev,"axG",@progbits,_ZN11MojPeriodicD5Ev,comdat
 856              		.align	2
 857              		.weak	_ZN11MojPeriodicD2Ev
 859              	_ZN11MojPeriodicD2Ev:
 860              	.LFB76:
GAS LISTING /tmp/ccx9Uhqi.s 			page 20


 861              		.file 4 "src/main.cpp"
   1:src/main.cpp  **** //
   2:src/main.cpp  **** // Created by os on 5/26/22.
   3:src/main.cpp  **** //
   4:src/main.cpp  **** 
   5:src/main.cpp  **** #include "../h/syscall_c.h"
   6:src/main.cpp  **** #include "../lib/hw.h"
   7:src/main.cpp  **** #include "../lib/console.h"
   8:src/main.cpp  **** #include "../lib/mem.h"
   9:src/main.cpp  **** #include "../h/CThread.h"
  10:src/main.cpp  **** #include "../h/print.h"
  11:src/main.cpp  **** #include "../test/Threads_C_API_test.hpp"
  12:src/main.cpp  **** #include "../test/ConsumerProducer_CPP_API_test.hpp"
  13:src/main.cpp  **** #include "../test/ConsumerProducer_CPP_Sync_API_test.hpp"
  14:src/main.cpp  **** #include "../test/ConsumerProducer_C_API_test.h"
  15:src/main.cpp  **** #include "../test/ThreadSleep_C_API_test.hpp"
  16:src/main.cpp  **** #include "../h/PutBuffer.h"
  17:src/main.cpp  **** #include "../h/GetBuffer.h"
  18:src/main.cpp  **** #include "../test/Threads_CPP_API_test.hpp"
  19:src/main.cpp  **** 
  20:src/main.cpp  **** extern "C" void interruptvec();
  21:src/main.cpp  **** 
  22:src/main.cpp  **** void idleFun(void*){
  23:src/main.cpp  ****     while(1){
  24:src/main.cpp  ****         if(!Scheduler::getInstance().headNull()) thread_dispatch();
  25:src/main.cpp  ****     }
  26:src/main.cpp  **** }
  27:src/main.cpp  **** void funA(void*);
  28:src/main.cpp  **** void funB(void*);
  29:src/main.cpp  **** void funE(void*);
  30:src/main.cpp  **** 
  31:src/main.cpp  **** class MojPeriodic: public PeriodicThread {
 862              		.loc 4 31 7 is_stmt 1
 863              		.cfi_startproc
 864              	.LVL74:
 865 0000 130101FF 		addi	sp,sp,-16
 866              		.cfi_def_cfa_offset 16
 867 0004 23341100 		sd	ra,8(sp)
 868 0008 23308100 		sd	s0,0(sp)
 869              		.cfi_offset 1, -8
 870              		.cfi_offset 8, -16
 871 000c 13040101 		addi	s0,sp,16
 872              		.cfi_def_cfa 8, 0
 873              	.LVL75:
 874              	.LBB108:
 875              	.LBB109:
  41:src/../test/../h/syscall_cpp.hpp **** public:
 876              		.loc 1 41 7 is_stmt 0
 877 0010 97070000 		lla	a5,_ZTV14PeriodicThread+16
 877      93870700 
 878 0018 2330F500 		sd	a5,0(a0)
 879 001c 97000000 		call	_ZN6ThreadD2Ev@plt
 879      E7800000 
 880              	.LVL76:
 881              	.LBE109:
 882              	.LBE108:
 883              		.loc 4 31 7
GAS LISTING /tmp/ccx9Uhqi.s 			page 21


 884 0024 83308100 		ld	ra,8(sp)
 885              		.cfi_restore 1
 886 0028 03340100 		ld	s0,0(sp)
 887              		.cfi_restore 8
 888              		.cfi_def_cfa 2, 16
 889 002c 13010101 		addi	sp,sp,16
 890              		.cfi_def_cfa_offset 0
 891 0030 67800000 		jr	ra
 892              		.cfi_endproc
 893              	.LFE76:
 895              		.weak	_ZN11MojPeriodicD1Ev
 896              		.set	_ZN11MojPeriodicD1Ev,_ZN11MojPeriodicD2Ev
 897              		.section	.text._ZN11MojPeriodicD0Ev,"axG",@progbits,_ZN11MojPeriodicD5Ev,comdat
 898              		.align	2
 899              		.weak	_ZN11MojPeriodicD0Ev
 901              	_ZN11MojPeriodicD0Ev:
 902              	.LFB78:
 903              		.loc 4 31 7 is_stmt 1
 904              		.cfi_startproc
 905              	.LVL77:
 906 0000 130101FE 		addi	sp,sp,-32
 907              		.cfi_def_cfa_offset 32
 908 0004 233C1100 		sd	ra,24(sp)
 909 0008 23388100 		sd	s0,16(sp)
 910 000c 23349100 		sd	s1,8(sp)
 911              		.cfi_offset 1, -8
 912              		.cfi_offset 8, -16
 913              		.cfi_offset 9, -24
 914 0010 13040102 		addi	s0,sp,32
 915              		.cfi_def_cfa 8, 0
 916 0014 93040500 		mv	s1,a0
 917              	.LVL78:
 918              	.LBB110:
 919              	.LBB111:
 920              	.LBB112:
  41:src/../test/../h/syscall_cpp.hpp **** public:
 921              		.loc 1 41 7 is_stmt 0
 922 0018 97070000 		lla	a5,_ZTV14PeriodicThread+16
 922      93870700 
 923 0020 2330F500 		sd	a5,0(a0)
 924 0024 97000000 		call	_ZN6ThreadD2Ev@plt
 924      E7800000 
 925              	.LVL79:
 926              	.LBE112:
 927              	.LBE111:
 928              	.LBE110:
 929              		.loc 4 31 7
 930 002c 13850400 		mv	a0,s1
 931 0030 97000000 		call	_ZdlPv@plt
 931      E7800000 
 932              	.LVL80:
 933 0038 83308101 		ld	ra,24(sp)
 934              		.cfi_restore 1
 935 003c 03340101 		ld	s0,16(sp)
 936              		.cfi_restore 8
 937              		.cfi_def_cfa 2, 32
 938 0040 83348100 		ld	s1,8(sp)
GAS LISTING /tmp/ccx9Uhqi.s 			page 22


 939              		.cfi_restore 9
 940              	.LVL81:
 941 0044 13010102 		addi	sp,sp,32
 942              		.cfi_def_cfa_offset 0
 943 0048 67800000 		jr	ra
 944              		.cfi_endproc
 945              	.LFE78:
 947              		.section	.text._ZN19ConsumerProducerCPP16ProducerKeyborad3runEv,"axG",@progbits,_ZN19ConsumerProdu
 948              		.align	2
 949              		.weak	_ZN19ConsumerProducerCPP16ProducerKeyborad3runEv
 951              	_ZN19ConsumerProducerCPP16ProducerKeyborad3runEv:
 952              	.LFB20:
  30:src/../test/ConsumerProducer_CPP_API_test.hpp ****             int key;
 953              		.loc 2 30 14 is_stmt 1
 954              		.cfi_startproc
 955              	.LVL82:
 956 0000 130101FE 		addi	sp,sp,-32
 957              		.cfi_def_cfa_offset 32
 958 0004 233C1100 		sd	ra,24(sp)
 959 0008 23388100 		sd	s0,16(sp)
 960 000c 23349100 		sd	s1,8(sp)
 961              		.cfi_offset 1, -8
 962              		.cfi_offset 8, -16
 963              		.cfi_offset 9, -24
 964 0010 13040102 		addi	s0,sp,32
 965              		.cfi_def_cfa 8, 0
 966 0014 93040500 		mv	s1,a0
  31:src/../test/ConsumerProducer_CPP_API_test.hpp ****             int i = 0;
 967              		.loc 2 31 13
  32:src/../test/ConsumerProducer_CPP_API_test.hpp ****             while ((key = getc()) != 0x51) {
 968              		.loc 2 32 13
 969              	.LVL83:
 970              	.L51:
  33:src/../test/ConsumerProducer_CPP_API_test.hpp ****                 td->buffer->put(key);
 971              		.loc 2 33 13
  33:src/../test/ConsumerProducer_CPP_API_test.hpp ****                 td->buffer->put(key);
 972              		.loc 2 33 35
  33:src/../test/ConsumerProducer_CPP_API_test.hpp ****                 td->buffer->put(key);
 973              		.loc 2 33 31 is_stmt 0
 974 0018 97000000 		call	_Z4getcv@plt
 974      E7800000 
 975              	.LVL84:
  33:src/../test/ConsumerProducer_CPP_API_test.hpp ****                 td->buffer->put(key);
 976              		.loc 2 33 25
 977 0020 9B050500 		sext.w	a1,a0
 978              	.LVL85:
  33:src/../test/ConsumerProducer_CPP_API_test.hpp ****                 td->buffer->put(key);
 979              		.loc 2 33 35
 980 0024 93071005 		li	a5,81
 981 0028 638CF500 		beq	a1,a5,.L50
  34:src/../test/ConsumerProducer_CPP_API_test.hpp ****                 i++;
 982              		.loc 2 34 17 is_stmt 1
 983 002c 83B70401 		ld	a5,16(s1)
  34:src/../test/ConsumerProducer_CPP_API_test.hpp ****                 i++;
 984              		.loc 2 34 32 is_stmt 0
 985 0030 03B58700 		ld	a0,8(a5)
 986 0034 97000000 		call	_ZN9BufferCPP3putEi@plt
GAS LISTING /tmp/ccx9Uhqi.s 			page 23


 986      E7800000 
 987              	.LVL86:
  35:src/../test/ConsumerProducer_CPP_API_test.hpp ****             }
 988              		.loc 2 35 17 is_stmt 1
  33:src/../test/ConsumerProducer_CPP_API_test.hpp ****                 td->buffer->put(key);
 989              		.loc 2 33 13 is_stmt 0
 990 003c 6FF0DFFD 		j	.L51
 991              	.LVL87:
 992              	.L50:
  38:src/../test/ConsumerProducer_CPP_API_test.hpp ****             td->buffer->put('!');
 993              		.loc 2 38 13 is_stmt 1
  38:src/../test/ConsumerProducer_CPP_API_test.hpp ****             td->buffer->put('!');
 994              		.loc 2 38 23 is_stmt 0
 995 0040 93071000 		li	a5,1
 996 0044 17070000 		sw	a5,.LANCHOR0,a4
 996      2320F700 
  39:src/../test/ConsumerProducer_CPP_API_test.hpp **** 
 997              		.loc 2 39 13 is_stmt 1
 998 004c 83B70401 		ld	a5,16(s1)
  39:src/../test/ConsumerProducer_CPP_API_test.hpp **** 
 999              		.loc 2 39 28 is_stmt 0
 1000 0050 93051002 		li	a1,33
 1001              	.LVL88:
 1002 0054 03B58700 		ld	a0,8(a5)
 1003              	.LVL89:
 1004 0058 97000000 		call	_ZN9BufferCPP3putEi@plt
 1004      E7800000 
 1005              	.LVL90:
  41:src/../test/ConsumerProducer_CPP_API_test.hpp ****         }
 1006              		.loc 2 41 13 is_stmt 1
 1007 0060 83B70401 		ld	a5,16(s1)
  41:src/../test/ConsumerProducer_CPP_API_test.hpp ****         }
 1008              		.loc 2 41 28 is_stmt 0
 1009 0064 03B50701 		ld	a0,16(a5)
 1010 0068 97000000 		call	_ZN9Semaphore6signalEv@plt
 1010      E7800000 
 1011              	.LVL91:
  42:src/../test/ConsumerProducer_CPP_API_test.hpp ****     };
 1012              		.loc 2 42 9
 1013 0070 83308101 		ld	ra,24(sp)
 1014              		.cfi_restore 1
 1015 0074 03340101 		ld	s0,16(sp)
 1016              		.cfi_restore 8
 1017              		.cfi_def_cfa 2, 32
 1018 0078 83348100 		ld	s1,8(sp)
 1019              		.cfi_restore 9
 1020              	.LVL92:
 1021 007c 13010102 		addi	sp,sp,32
 1022              		.cfi_def_cfa_offset 0
 1023 0080 67800000 		jr	ra
 1024              		.cfi_endproc
 1025              	.LFE20:
 1027              		.section	.text._ZN19ConsumerProducerCPP8Producer3runEv,"axG",@progbits,_ZN19ConsumerProducerCPP8Pr
 1028              		.align	2
 1029              		.weak	_ZN19ConsumerProducerCPP8Producer3runEv
 1031              	_ZN19ConsumerProducerCPP8Producer3runEv:
 1032              	.LFB24:
GAS LISTING /tmp/ccx9Uhqi.s 			page 24


  50:src/../test/ConsumerProducer_CPP_API_test.hpp ****             int i = 0;
 1033              		.loc 2 50 14 is_stmt 1
 1034              		.cfi_startproc
 1035              	.LVL93:
 1036 0000 130101FE 		addi	sp,sp,-32
 1037              		.cfi_def_cfa_offset 32
 1038 0004 233C1100 		sd	ra,24(sp)
 1039 0008 23388100 		sd	s0,16(sp)
 1040 000c 23349100 		sd	s1,8(sp)
 1041 0010 23302101 		sd	s2,0(sp)
 1042              		.cfi_offset 1, -8
 1043              		.cfi_offset 8, -16
 1044              		.cfi_offset 9, -24
 1045              		.cfi_offset 18, -32
 1046 0014 13040102 		addi	s0,sp,32
 1047              		.cfi_def_cfa 8, 0
 1048 0018 93040500 		mv	s1,a0
  51:src/../test/ConsumerProducer_CPP_API_test.hpp ****             while (!threadEnd) {
 1049              		.loc 2 51 13
 1050              	.LVL94:
  51:src/../test/ConsumerProducer_CPP_API_test.hpp ****             while (!threadEnd) {
 1051              		.loc 2 51 17 is_stmt 0
 1052 001c 13090000 		li	s2,0
 1053              	.LVL95:
 1054              	.L55:
  52:src/../test/ConsumerProducer_CPP_API_test.hpp ****                 td->buffer->put(td->id + '0');
 1055              		.loc 2 52 13 is_stmt 1
  52:src/../test/ConsumerProducer_CPP_API_test.hpp ****                 td->buffer->put(td->id + '0');
 1056              		.loc 2 52 20
 1057 0020 97070000 		lw	a5,.LANCHOR0
 1057      83A70700 
 1058 0028 63920704 		bnez	a5,.L54
  53:src/../test/ConsumerProducer_CPP_API_test.hpp ****                 i++;
 1059              		.loc 2 53 17
 1060 002c 83B70401 		ld	a5,16(s1)
  53:src/../test/ConsumerProducer_CPP_API_test.hpp ****                 i++;
 1061              		.loc 2 53 37 is_stmt 0
 1062 0030 83A50700 		lw	a1,0(a5)
  53:src/../test/ConsumerProducer_CPP_API_test.hpp ****                 i++;
 1063              		.loc 2 53 32
 1064 0034 9B850503 		addiw	a1,a1,48
 1065 0038 03B58700 		ld	a0,8(a5)
 1066 003c 97000000 		call	_ZN9BufferCPP3putEi@plt
 1066      E7800000 
 1067              	.LVL96:
  54:src/../test/ConsumerProducer_CPP_API_test.hpp ****                 Thread::sleep((i+td->id)%5);
 1068              		.loc 2 54 17 is_stmt 1
  54:src/../test/ConsumerProducer_CPP_API_test.hpp ****                 Thread::sleep((i+td->id)%5);
 1069              		.loc 2 54 18 is_stmt 0
 1070 0044 1B071900 		addiw	a4,s2,1
 1071 0048 1B090700 		sext.w	s2,a4
 1072              	.LVL97:
  55:src/../test/ConsumerProducer_CPP_API_test.hpp ****             }
 1073              		.loc 2 55 17 is_stmt 1
  55:src/../test/ConsumerProducer_CPP_API_test.hpp ****             }
 1074              		.loc 2 55 34 is_stmt 0
 1075 004c 83B70401 		ld	a5,16(s1)
GAS LISTING /tmp/ccx9Uhqi.s 			page 25


  55:src/../test/ConsumerProducer_CPP_API_test.hpp ****             }
 1076              		.loc 2 55 38
 1077 0050 83A70700 		lw	a5,0(a5)
  55:src/../test/ConsumerProducer_CPP_API_test.hpp ****             }
 1078              		.loc 2 55 33
 1079 0054 BB87E700 		addw	a5,a5,a4
  55:src/../test/ConsumerProducer_CPP_API_test.hpp ****             }
 1080              		.loc 2 55 30
 1081 0058 13055000 		li	a0,5
 1082 005c 3BE5A702 		remw	a0,a5,a0
 1083 0060 97000000 		call	_ZN6Thread5sleepEm@plt
 1083      E7800000 
 1084              	.LVL98:
  52:src/../test/ConsumerProducer_CPP_API_test.hpp ****                 td->buffer->put(td->id + '0');
 1085              		.loc 2 52 13
 1086 0068 6FF09FFB 		j	.L55
 1087              	.L54:
  58:src/../test/ConsumerProducer_CPP_API_test.hpp ****         }
 1088              		.loc 2 58 13 is_stmt 1
 1089 006c 83B70401 		ld	a5,16(s1)
  58:src/../test/ConsumerProducer_CPP_API_test.hpp ****         }
 1090              		.loc 2 58 28 is_stmt 0
 1091 0070 03B50701 		ld	a0,16(a5)
 1092 0074 97000000 		call	_ZN9Semaphore6signalEv@plt
 1092      E7800000 
 1093              	.LVL99:
  59:src/../test/ConsumerProducer_CPP_API_test.hpp ****     };
 1094              		.loc 2 59 9
 1095 007c 83308101 		ld	ra,24(sp)
 1096              		.cfi_restore 1
 1097 0080 03340101 		ld	s0,16(sp)
 1098              		.cfi_restore 8
 1099              		.cfi_def_cfa 2, 32
 1100 0084 83348100 		ld	s1,8(sp)
 1101              		.cfi_restore 9
 1102              	.LVL100:
 1103 0088 03390100 		ld	s2,0(sp)
 1104              		.cfi_restore 18
 1105              	.LVL101:
 1106 008c 13010102 		addi	sp,sp,32
 1107              		.cfi_def_cfa_offset 0
 1108 0090 67800000 		jr	ra
 1109              		.cfi_endproc
 1110              	.LFE24:
 1112              		.section	.rodata.str1.8,"aMS",@progbits,1
 1113              		.align	3
 1114              	.LC0:
 1115 0000 48656C6C 		.string	"Hello "
 1115      6F2000
 1116 0007 00       		.align	3
 1117              	.LC1:
 1118 0008 20210A00 		.string	" !\n"
 1119              		.text
 1120              		.align	2
 1121              		.globl	_Z9sleepyRunPv
 1123              	_Z9sleepyRunPv:
 1124              	.LFB30:
GAS LISTING /tmp/ccx9Uhqi.s 			page 26


 1125              		.file 5 "src/../test/ThreadSleep_C_API_test.hpp"
   1:src/../test/ThreadSleep_C_API_test.hpp **** //
   2:src/../test/ThreadSleep_C_API_test.hpp **** // Created by os on 4/17/22.
   3:src/../test/ThreadSleep_C_API_test.hpp **** //
   4:src/../test/ThreadSleep_C_API_test.hpp **** 
   5:src/../test/ThreadSleep_C_API_test.hpp **** #ifndef XV6_THREADSLEEP_C_API_TEST_HPP
   6:src/../test/ThreadSleep_C_API_test.hpp **** #define XV6_THREADSLEEP_C_API_TEST_HPP
   7:src/../test/ThreadSleep_C_API_test.hpp **** 
   8:src/../test/ThreadSleep_C_API_test.hpp **** #include "../h/syscall_c.h"
   9:src/../test/ThreadSleep_C_API_test.hpp **** 
  10:src/../test/ThreadSleep_C_API_test.hpp **** #include "printing.hpp"
  11:src/../test/ThreadSleep_C_API_test.hpp **** 
  12:src/../test/ThreadSleep_C_API_test.hpp **** bool finished[2];
  13:src/../test/ThreadSleep_C_API_test.hpp **** 
  14:src/../test/ThreadSleep_C_API_test.hpp **** void sleepyRun(void *arg) {
 1126              		.loc 5 14 27 is_stmt 1
 1127              		.cfi_startproc
 1128              	.LVL102:
 1129 0000 130101FE 		addi	sp,sp,-32
 1130              		.cfi_def_cfa_offset 32
 1131 0004 233C1100 		sd	ra,24(sp)
 1132 0008 23388100 		sd	s0,16(sp)
 1133 000c 23349100 		sd	s1,8(sp)
 1134 0010 23302101 		sd	s2,0(sp)
 1135              		.cfi_offset 1, -8
 1136              		.cfi_offset 8, -16
 1137              		.cfi_offset 9, -24
 1138              		.cfi_offset 18, -32
 1139 0014 13040102 		addi	s0,sp,32
 1140              		.cfi_def_cfa 8, 0
  15:src/../test/ThreadSleep_C_API_test.hpp ****     time_t sleep_time = *((time_t *) arg);
 1141              		.loc 5 15 5
 1142              		.loc 5 15 12 is_stmt 0
 1143 0018 03390500 		ld	s2,0(a0)
 1144              	.LVL103:
  16:src/../test/ThreadSleep_C_API_test.hpp ****     int i = 6;
 1145              		.loc 5 16 5 is_stmt 1
 1146              		.loc 5 16 9 is_stmt 0
 1147 001c 93046000 		li	s1,6
 1148              	.LVL104:
 1149              	.L59:
  17:src/../test/ThreadSleep_C_API_test.hpp ****     while (--i > 0) {
 1150              		.loc 5 17 5 is_stmt 1
 1151              		.loc 5 17 16
 1152 0020 9B84F4FF 		addiw	s1,s1,-1
 1153              	.LVL105:
 1154 0024 63549004 		blez	s1,.L58
  18:src/../test/ThreadSleep_C_API_test.hpp **** 
  19:src/../test/ThreadSleep_C_API_test.hpp ****         printString("Hello ");
 1155              		.loc 5 19 9
 1156              		.loc 5 19 20 is_stmt 0
 1157 0028 17050000 		lla	a0,.LC0
 1157      13050500 
 1158 0030 97000000 		call	_Z11printStringPKc@plt
 1158      E7800000 
 1159              	.LVL106:
  20:src/../test/ThreadSleep_C_API_test.hpp ****         printInt(sleep_time);
GAS LISTING /tmp/ccx9Uhqi.s 			page 27


 1160              		.loc 5 20 9 is_stmt 1
 1161              		.loc 5 20 17 is_stmt 0
 1162 0038 13060000 		li	a2,0
 1163 003c 9305A000 		li	a1,10
 1164 0040 1B050900 		sext.w	a0,s2
 1165 0044 97000000 		call	_Z8printIntiii@plt
 1165      E7800000 
 1166              	.LVL107:
  21:src/../test/ThreadSleep_C_API_test.hpp ****         printString(" !\n");
 1167              		.loc 5 21 9 is_stmt 1
 1168              		.loc 5 21 20 is_stmt 0
 1169 004c 17050000 		lla	a0,.LC1
 1169      13050500 
 1170 0054 97000000 		call	_Z11printStringPKc@plt
 1170      E7800000 
 1171              	.LVL108:
  22:src/../test/ThreadSleep_C_API_test.hpp ****         time_sleep(sleep_time);
 1172              		.loc 5 22 9 is_stmt 1
 1173              		.loc 5 22 19 is_stmt 0
 1174 005c 13050900 		mv	a0,s2
 1175 0060 97000000 		call	_Z10time_sleepm@plt
 1175      E7800000 
 1176              	.LVL109:
  17:src/../test/ThreadSleep_C_API_test.hpp **** 
 1177              		.loc 5 17 5
 1178 0068 6FF09FFB 		j	.L59
 1179              	.L58:
  23:src/../test/ThreadSleep_C_API_test.hpp ****     }
  24:src/../test/ThreadSleep_C_API_test.hpp ****     finished[sleep_time/10-1] = true;
 1180              		.loc 5 24 5 is_stmt 1
 1181              		.loc 5 24 24 is_stmt 0
 1182 006c 9307A000 		li	a5,10
 1183 0070 3359F902 		divu	s2,s2,a5
 1184              	.LVL110:
 1185              		.loc 5 24 27
 1186 0074 1309F9FF 		addi	s2,s2,-1
 1187              		.loc 5 24 31
 1188 0078 97070000 		lla	a5,.LANCHOR0
 1188      93870700 
 1189 0080 33892701 		add	s2,a5,s2
 1190 0084 93071000 		li	a5,1
 1191 0088 2304F900 		sb	a5,8(s2)
  25:src/../test/ThreadSleep_C_API_test.hpp **** }
 1192              		.loc 5 25 1
 1193 008c 83308101 		ld	ra,24(sp)
 1194              		.cfi_restore 1
 1195 0090 03340101 		ld	s0,16(sp)
 1196              		.cfi_restore 8
 1197              		.cfi_def_cfa 2, 32
 1198 0094 83348100 		ld	s1,8(sp)
 1199              		.cfi_restore 9
 1200 0098 03390100 		ld	s2,0(sp)
 1201              		.cfi_restore 18
 1202 009c 13010102 		addi	sp,sp,32
 1203              		.cfi_def_cfa_offset 0
 1204 00a0 67800000 		jr	ra
 1205              		.cfi_endproc
GAS LISTING /tmp/ccx9Uhqi.s 			page 28


 1206              	.LFE30:
 1208              		.align	2
 1209              		.globl	_Z7idleFunPv
 1211              	_Z7idleFunPv:
 1212              	.LFB62:
  22:src/main.cpp  ****     while(1){
 1213              		.loc 4 22 20 is_stmt 1
 1214              		.cfi_startproc
 1215 00a4 130101FF 		addi	sp,sp,-16
 1216              		.cfi_def_cfa_offset 16
 1217 00a8 23341100 		sd	ra,8(sp)
 1218 00ac 23308100 		sd	s0,0(sp)
 1219              		.cfi_offset 1, -8
 1220              		.cfi_offset 8, -16
 1221 00b0 13040101 		addi	s0,sp,16
 1222              		.cfi_def_cfa 8, 0
 1223 00b4 6F00C000 		j	.L62
 1224              	.L65:
  24:src/main.cpp  ****     }
 1225              		.loc 4 24 50 discriminator 1
  24:src/main.cpp  ****     }
 1226              		.loc 4 24 65 is_stmt 0 discriminator 1
 1227 00b8 97000000 		call	_Z15thread_dispatchv@plt
 1227      E7800000 
 1228              	.LVL111:
 1229              	.L62:
  23:src/main.cpp  ****         if(!Scheduler::getInstance().headNull()) thread_dispatch();
 1230              		.loc 4 23 5 is_stmt 1
  24:src/main.cpp  ****     }
 1231              		.loc 4 24 9
  24:src/main.cpp  ****     }
 1232              		.loc 4 24 36 is_stmt 0
 1233 00c0 97000000 		call	_ZN9Scheduler11getInstanceEv@plt
 1233      E7800000 
 1234              	.LVL112:
 1235              	.LBB113:
 1236              	.LBB114:
 1237              		.file 6 "src/../h/../h/Scheduler.h"
   1:src/../h/../h/Scheduler.h **** //
   2:src/../h/../h/Scheduler.h **** // Created by os on 6/21/22.
   3:src/../h/../h/Scheduler.h **** //
   4:src/../h/../h/Scheduler.h **** 
   5:src/../h/../h/Scheduler.h **** #ifndef PROJECT_BASE_V1_1_SCHEDULER_H
   6:src/../h/../h/Scheduler.h **** #define PROJECT_BASE_V1_1_SCHEDULER_H
   7:src/../h/../h/Scheduler.h **** 
   8:src/../h/../h/Scheduler.h **** #include "CThread.h"
   9:src/../h/../h/Scheduler.h **** 
  10:src/../h/../h/Scheduler.h **** class CThread;
  11:src/../h/../h/Scheduler.h **** class Scheduler {
  12:src/../h/../h/Scheduler.h **** private:
  13:src/../h/../h/Scheduler.h ****     Scheduler();
  14:src/../h/../h/Scheduler.h ****     static CThread *tail;
  15:src/../h/../h/Scheduler.h ****     static CThread *head;
  16:src/../h/../h/Scheduler.h **** 
  17:src/../h/../h/Scheduler.h **** public:
  18:src/../h/../h/Scheduler.h ****     static bool headNull(){return head==nullptr;}
 1238              		.loc 6 18 28 is_stmt 1
GAS LISTING /tmp/ccx9Uhqi.s 			page 29


 1239              		.loc 6 18 39 is_stmt 0
 1240 00c8 97070000 		la	a5,_ZN9Scheduler4headE
 1240      83B70700 
 1241 00d0 83B70700 		ld	a5,0(a5)
 1242              	.LBE114:
 1243              	.LBE113:
  24:src/main.cpp  ****     }
 1244              		.loc 4 24 9
 1245 00d4 E39207FE 		bnez	a5,.L65
 1246 00d8 6FF09FFE 		j	.L62
 1247              		.cfi_endproc
 1248              	.LFE62:
 1250              		.section	.text._ZN11MojPeriodic18periodicActivationEv,"axG",@progbits,_ZN11MojPeriodic18periodicAc
 1251              		.align	2
 1252              		.weak	_ZN11MojPeriodic18periodicActivationEv
 1254              	_ZN11MojPeriodic18periodicActivationEv:
 1255              	.LFB70:
  32:src/main.cpp  **** public:
  33:src/main.cpp  ****     char c;
  34:src/main.cpp  ****     MojPeriodic(time_t period, char c) : PeriodicThread(period) { this->c=c;}
  35:src/main.cpp  ****     void periodicActivation() override{
 1256              		.loc 4 35 10 is_stmt 1
 1257              		.cfi_startproc
 1258              	.LVL113:
 1259 0000 130101FF 		addi	sp,sp,-16
 1260              		.cfi_def_cfa_offset 16
 1261 0004 23341100 		sd	ra,8(sp)
 1262 0008 23308100 		sd	s0,0(sp)
 1263              		.cfi_offset 1, -8
 1264              		.cfi_offset 8, -16
 1265 000c 13040101 		addi	s0,sp,16
 1266              		.cfi_def_cfa 8, 0
  36:src/main.cpp  ****         putc(c);
 1267              		.loc 4 36 9
 1268              		.loc 4 36 13 is_stmt 0
 1269 0010 03450501 		lbu	a0,16(a0)
 1270              	.LVL114:
 1271 0014 97000000 		call	_Z4putcc@plt
 1271      E7800000 
 1272              	.LVL115:
  37:src/main.cpp  ****     }
 1273              		.loc 4 37 5
 1274 001c 83308100 		ld	ra,8(sp)
 1275              		.cfi_restore 1
 1276 0020 03340100 		ld	s0,0(sp)
 1277              		.cfi_restore 8
 1278              		.cfi_def_cfa 2, 16
 1279 0024 13010101 		addi	sp,sp,16
 1280              		.cfi_def_cfa_offset 0
 1281 0028 67800000 		jr	ra
 1282              		.cfi_endproc
 1283              	.LFE70:
 1285              		.text
 1286              		.align	2
 1287              		.globl	_Z4funAPv
 1289              	_Z4funAPv:
 1290              	.LFB72:
GAS LISTING /tmp/ccx9Uhqi.s 			page 30


  38:src/main.cpp  **** };
  39:src/main.cpp  **** 
  40:src/main.cpp  **** int main(){
  41:src/main.cpp  ****     asm volatile("csrw stvec, %0": : "r"(&interruptvec));
  42:src/main.cpp  **** 
  43:src/main.cpp  ****     CThread::main=new CThread;
  44:src/main.cpp  ****     CThread::running=CThread::main;
  45:src/main.cpp  ****     PutBuffer::putBuffer= new PutBuffer(1024);
  46:src/main.cpp  ****     GetBuffer::getBuffer= new GetBuffer(1024);
  47:src/main.cpp  ****     thread_create(&CThread::idle, &idleFun, nullptr);
  48:src/main.cpp  ****     user();
  49:src/main.cpp  **** 
  50:src/main.cpp  ****     //Threads_C_API_test();
  51:src/main.cpp  ****     //producerConsumer_C_API();
  52:src/main.cpp  ****     //testSleeping();
  53:src/main.cpp  ****     //ConsumerProducerCPP::testConsumerProducer();
  54:src/main.cpp  ****     //Threads_CPP_API_test();
  55:src/main.cpp  ****     //producerConsumer_CPP_Sync_API();
  56:src/main.cpp  **** 
  57:src/main.cpp  ****     Thread* A = new Thread(&funA, nullptr);
  58:src/main.cpp  ****     Thread* B = new Thread(&funB, nullptr);
  59:src/main.cpp  ****     PeriodicThread* C = new MojPeriodic(5, 'C');
  60:src/main.cpp  ****     PeriodicThread* D = new MojPeriodic(10, 'D');
  61:src/main.cpp  ****     Thread* E = new Thread(&funE, nullptr);
  62:src/main.cpp  **** 
  63:src/main.cpp  ****     A->start();
  64:src/main.cpp  ****     B->start();
  65:src/main.cpp  ****     C->start();
  66:src/main.cpp  ****     D->start();
  67:src/main.cpp  ****     E->start();
  68:src/main.cpp  ****     thread_dispatch();
  69:src/main.cpp  **** 
  70:src/main.cpp  ****     while (1);
  71:src/main.cpp  **** 
  72:src/main.cpp  ****     return 0;
  73:src/main.cpp  **** }
  74:src/main.cpp  **** 
  75:src/main.cpp  **** void funA(void*){
 1291              		.loc 4 75 17 is_stmt 1
 1292              		.cfi_startproc
 1293 00dc 130101FF 		addi	sp,sp,-16
 1294              		.cfi_def_cfa_offset 16
 1295 00e0 23341100 		sd	ra,8(sp)
 1296 00e4 23308100 		sd	s0,0(sp)
 1297              		.cfi_offset 1, -8
 1298              		.cfi_offset 8, -16
 1299 00e8 13040101 		addi	s0,sp,16
 1300              		.cfi_def_cfa 8, 0
 1301              	.L69:
  76:src/main.cpp  ****     while(1) {
 1302              		.loc 4 76 5 discriminator 1
  77:src/main.cpp  ****         putc('A');
 1303              		.loc 4 77 9 discriminator 1
 1304              		.loc 4 77 13 is_stmt 0 discriminator 1
 1305 00ec 13051004 		li	a0,65
 1306 00f0 97000000 		call	_Z4putcc@plt
 1306      E7800000 
GAS LISTING /tmp/ccx9Uhqi.s 			page 31


 1307              	.LVL116:
  78:src/main.cpp  ****         time_sleep(5);
 1308              		.loc 4 78 9 is_stmt 1 discriminator 1
 1309              		.loc 4 78 19 is_stmt 0 discriminator 1
 1310 00f8 13055000 		li	a0,5
 1311 00fc 97000000 		call	_Z10time_sleepm@plt
 1311      E7800000 
 1312              	.LVL117:
  76:src/main.cpp  ****     while(1) {
 1313              		.loc 4 76 5 is_stmt 1 discriminator 1
 1314 0104 6FF09FFE 		j	.L69
 1315              		.cfi_endproc
 1316              	.LFE72:
 1318              		.align	2
 1319              		.globl	_Z4funBPv
 1321              	_Z4funBPv:
 1322              	.LFB73:
  79:src/main.cpp  ****     }
  80:src/main.cpp  **** }
  81:src/main.cpp  **** void funB(void*){
 1323              		.loc 4 81 17
 1324              		.cfi_startproc
 1325 0108 130101FF 		addi	sp,sp,-16
 1326              		.cfi_def_cfa_offset 16
 1327 010c 23341100 		sd	ra,8(sp)
 1328 0110 23308100 		sd	s0,0(sp)
 1329              		.cfi_offset 1, -8
 1330              		.cfi_offset 8, -16
 1331 0114 13040101 		addi	s0,sp,16
 1332              		.cfi_def_cfa 8, 0
 1333              	.L72:
  82:src/main.cpp  ****     while(1) {
 1334              		.loc 4 82 5 discriminator 1
  83:src/main.cpp  ****         putc('B');
 1335              		.loc 4 83 9 discriminator 1
 1336              		.loc 4 83 13 is_stmt 0 discriminator 1
 1337 0118 13052004 		li	a0,66
 1338 011c 97000000 		call	_Z4putcc@plt
 1338      E7800000 
 1339              	.LVL118:
  84:src/main.cpp  ****         time_sleep(5);
 1340              		.loc 4 84 9 is_stmt 1 discriminator 1
 1341              		.loc 4 84 19 is_stmt 0 discriminator 1
 1342 0124 13055000 		li	a0,5
 1343 0128 97000000 		call	_Z10time_sleepm@plt
 1343      E7800000 
 1344              	.LVL119:
  82:src/main.cpp  ****     while(1) {
 1345              		.loc 4 82 5 is_stmt 1 discriminator 1
 1346 0130 6FF09FFE 		j	.L72
 1347              		.cfi_endproc
 1348              	.LFE73:
 1350              		.align	2
 1351              		.globl	_Z4funEPv
 1353              	_Z4funEPv:
 1354              	.LFB74:
  85:src/main.cpp  ****     }
GAS LISTING /tmp/ccx9Uhqi.s 			page 32


  86:src/main.cpp  **** }
  87:src/main.cpp  **** void funE(void*){
 1355              		.loc 4 87 17
 1356              		.cfi_startproc
 1357 0134 130101FF 		addi	sp,sp,-16
 1358              		.cfi_def_cfa_offset 16
 1359 0138 23341100 		sd	ra,8(sp)
 1360 013c 23308100 		sd	s0,0(sp)
 1361              		.cfi_offset 1, -8
 1362              		.cfi_offset 8, -16
 1363 0140 13040101 		addi	s0,sp,16
 1364              		.cfi_def_cfa 8, 0
 1365              	.L75:
  88:src/main.cpp  ****     while(1){
 1366              		.loc 4 88 5 discriminator 1
 1367              	.LBB115:
  89:src/main.cpp  ****         char c = Console::getc();
 1368              		.loc 4 89 9 discriminator 1
 1369              		.loc 4 89 31 is_stmt 0 discriminator 1
 1370 0144 97000000 		call	_ZN7Console4getcEv@plt
 1370      E7800000 
 1371              	.LVL120:
  90:src/main.cpp  ****         Console::putc(c);
 1372              		.loc 4 90 9 is_stmt 1 discriminator 1
 1373              		.loc 4 90 22 is_stmt 0 discriminator 1
 1374 014c 97000000 		call	_ZN7Console4putcEc@plt
 1374      E7800000 
 1375              	.LVL121:
 1376              	.LBE115:
  88:src/main.cpp  ****     while(1){
 1377              		.loc 4 88 5 is_stmt 1 discriminator 1
 1378 0154 6FF01FFF 		j	.L75
 1379              		.cfi_endproc
 1380              	.LFE74:
 1382              		.section	.rodata.str1.8
 1383 000c 00000000 		.align	3
 1384              	.LC2:
 1385 0010 556E6573 		.string	"Unesite broj proizvodjaca?\n"
 1385      69746520 
 1385      62726F6A 
 1385      2070726F 
 1385      697A766F 
 1386 002c 00000000 		.align	3
 1387              	.LC3:
 1388 0030 556E6573 		.string	"Unesite velicinu bafera?\n"
 1388      69746520 
 1388      76656C69 
 1388      63696E75 
 1388      20626166 
 1389 004a 00000000 		.align	3
 1389      0000
 1390              	.LC4:
 1391 0050 42726F6A 		.string	"Broj proizvodjaca "
 1391      2070726F 
 1391      697A766F 
 1391      646A6163 
 1391      612000
GAS LISTING /tmp/ccx9Uhqi.s 			page 33


 1392 0063 00000000 		.align	3
 1392      00
 1393              	.LC5:
 1394 0068 20692076 		.string	" i velicina bafera "
 1394      656C6963 
 1394      696E6120 
 1394      62616665 
 1394      72612000 
 1395 007c 00000000 		.align	3
 1396              	.LC6:
 1397 0080 2E0A00   		.string	".\n"
 1398 0083 00000000 		.align	3
 1398      00
 1399              	.LC7:
 1400 0088 42726F6A 		.string	"Broj proizvodjaca ne sme biti manji od velicine bafera!\n"
 1400      2070726F 
 1400      697A766F 
 1400      646A6163 
 1400      61206E65 
 1401 00c1 00000000 		.align	3
 1401      000000
 1402              	.LC8:
 1403 00c8 42726F6A 		.string	"Broj proizvodjaca mora biti veci od nula!\n"
 1403      2070726F 
 1403      697A766F 
 1403      646A6163 
 1403      61206D6F 
 1404              		.text
 1405              		.align	2
 1406              		.globl	_ZN19ConsumerProducerCPP20testConsumerProducerEv
 1408              	_ZN19ConsumerProducerCPP20testConsumerProducerEv:
 1409              	.LFB29:
  87:src/../test/ConsumerProducer_CPP_API_test.hpp ****     };
  88:src/../test/ConsumerProducer_CPP_API_test.hpp **** 
  89:src/../test/ConsumerProducer_CPP_API_test.hpp ****     void testConsumerProducer() {
 1410              		.loc 2 89 33
 1411              		.cfi_startproc
 1412              		.cfi_personality 0x9b,DW.ref.__gxx_personality_v0
 1413              		.cfi_lsda 0x1b,.LLSDA29
 1414 0158 130101F8 		addi	sp,sp,-128
 1415              		.cfi_def_cfa_offset 128
 1416 015c 233C1106 		sd	ra,120(sp)
 1417 0160 23388106 		sd	s0,112(sp)
 1418 0164 23349106 		sd	s1,104(sp)
 1419 0168 23302107 		sd	s2,96(sp)
 1420 016c 233C3105 		sd	s3,88(sp)
 1421 0170 23384105 		sd	s4,80(sp)
 1422 0174 23345105 		sd	s5,72(sp)
 1423 0178 23306105 		sd	s6,64(sp)
 1424 017c 233C7103 		sd	s7,56(sp)
 1425 0180 23388103 		sd	s8,48(sp)
 1426 0184 23349103 		sd	s9,40(sp)
 1427              		.cfi_offset 1, -8
 1428              		.cfi_offset 8, -16
 1429              		.cfi_offset 9, -24
 1430              		.cfi_offset 18, -32
 1431              		.cfi_offset 19, -40
GAS LISTING /tmp/ccx9Uhqi.s 			page 34


 1432              		.cfi_offset 20, -48
 1433              		.cfi_offset 21, -56
 1434              		.cfi_offset 22, -64
 1435              		.cfi_offset 23, -72
 1436              		.cfi_offset 24, -80
 1437              		.cfi_offset 25, -88
 1438 0188 13040108 		addi	s0,sp,128
 1439              		.cfi_def_cfa 8, 0
  90:src/../test/ConsumerProducer_CPP_API_test.hpp ****         char input[30];
  91:src/../test/ConsumerProducer_CPP_API_test.hpp ****         int n, threadNum;
  92:src/../test/ConsumerProducer_CPP_API_test.hpp **** 
  93:src/../test/ConsumerProducer_CPP_API_test.hpp ****         printString("Unesite broj proizvodjaca?\n");
  94:src/../test/ConsumerProducer_CPP_API_test.hpp ****         getString(input, 30);
  95:src/../test/ConsumerProducer_CPP_API_test.hpp ****         threadNum = stringToInt(input);
  96:src/../test/ConsumerProducer_CPP_API_test.hpp **** 
  97:src/../test/ConsumerProducer_CPP_API_test.hpp ****         printString("Unesite velicinu bafera?\n");
  98:src/../test/ConsumerProducer_CPP_API_test.hpp ****         getString(input, 30);
  99:src/../test/ConsumerProducer_CPP_API_test.hpp ****         n = stringToInt(input);
 100:src/../test/ConsumerProducer_CPP_API_test.hpp **** 
 101:src/../test/ConsumerProducer_CPP_API_test.hpp ****         printString("Broj proizvodjaca "); printInt(threadNum);
 102:src/../test/ConsumerProducer_CPP_API_test.hpp ****         printString(" i velicina bafera "); printInt(n);
 103:src/../test/ConsumerProducer_CPP_API_test.hpp ****         printString(".\n");
 104:src/../test/ConsumerProducer_CPP_API_test.hpp **** 
 105:src/../test/ConsumerProducer_CPP_API_test.hpp ****         if(threadNum > n) {
 106:src/../test/ConsumerProducer_CPP_API_test.hpp ****             printString("Broj proizvodjaca ne sme biti manji od velicine bafera!\n");
 107:src/../test/ConsumerProducer_CPP_API_test.hpp ****             return;
 108:src/../test/ConsumerProducer_CPP_API_test.hpp ****         } else if (threadNum < 1) {
 109:src/../test/ConsumerProducer_CPP_API_test.hpp ****             printString("Broj proizvodjaca mora biti veci od nula!\n");
 110:src/../test/ConsumerProducer_CPP_API_test.hpp ****             return;
 111:src/../test/ConsumerProducer_CPP_API_test.hpp ****         }
 112:src/../test/ConsumerProducer_CPP_API_test.hpp **** 
 113:src/../test/ConsumerProducer_CPP_API_test.hpp ****         BufferCPP *buffer = new BufferCPP(n);
 114:src/../test/ConsumerProducer_CPP_API_test.hpp **** 
 115:src/../test/ConsumerProducer_CPP_API_test.hpp ****         waitForAll = new Semaphore(0);
 116:src/../test/ConsumerProducer_CPP_API_test.hpp ****         Thread *producers[threadNum];
 117:src/../test/ConsumerProducer_CPP_API_test.hpp ****         thread_data threadData[threadNum + 1];
 118:src/../test/ConsumerProducer_CPP_API_test.hpp **** 
 119:src/../test/ConsumerProducer_CPP_API_test.hpp ****         threadData[threadNum].id = threadNum;
 120:src/../test/ConsumerProducer_CPP_API_test.hpp ****         threadData[threadNum].buffer = buffer;
 121:src/../test/ConsumerProducer_CPP_API_test.hpp ****         threadData[threadNum].sem = waitForAll;
 122:src/../test/ConsumerProducer_CPP_API_test.hpp ****         Thread *consumer = new Consumer(&threadData[threadNum]);
 123:src/../test/ConsumerProducer_CPP_API_test.hpp ****         consumer->start();
 124:src/../test/ConsumerProducer_CPP_API_test.hpp **** 
 125:src/../test/ConsumerProducer_CPP_API_test.hpp ****         threadData[0].id = 0;
 126:src/../test/ConsumerProducer_CPP_API_test.hpp ****         threadData[0].buffer = buffer;
 127:src/../test/ConsumerProducer_CPP_API_test.hpp ****         threadData[0].sem = waitForAll;
 128:src/../test/ConsumerProducer_CPP_API_test.hpp ****         producers[0] = new ProducerKeyborad(&threadData[0]);
 129:src/../test/ConsumerProducer_CPP_API_test.hpp ****         producers[0]->start();
 130:src/../test/ConsumerProducer_CPP_API_test.hpp **** 
 131:src/../test/ConsumerProducer_CPP_API_test.hpp ****         for (int i = 1; i < threadNum; i++) {
 132:src/../test/ConsumerProducer_CPP_API_test.hpp ****             threadData[i].id = i;
 133:src/../test/ConsumerProducer_CPP_API_test.hpp ****             threadData[i].buffer = buffer;
 134:src/../test/ConsumerProducer_CPP_API_test.hpp ****             threadData[i].sem = waitForAll;
 135:src/../test/ConsumerProducer_CPP_API_test.hpp **** 
 136:src/../test/ConsumerProducer_CPP_API_test.hpp ****             producers[i] = new Producer(&threadData[i]);
 137:src/../test/ConsumerProducer_CPP_API_test.hpp ****             producers[i]->start();
 138:src/../test/ConsumerProducer_CPP_API_test.hpp **** 
GAS LISTING /tmp/ccx9Uhqi.s 			page 35


 139:src/../test/ConsumerProducer_CPP_API_test.hpp ****         }
 140:src/../test/ConsumerProducer_CPP_API_test.hpp **** 
 141:src/../test/ConsumerProducer_CPP_API_test.hpp ****         Thread::dispatch();
 142:src/../test/ConsumerProducer_CPP_API_test.hpp **** 
 143:src/../test/ConsumerProducer_CPP_API_test.hpp ****         for (int i = 0; i <= threadNum; i++) {
 144:src/../test/ConsumerProducer_CPP_API_test.hpp ****             waitForAll->wait();
 145:src/../test/ConsumerProducer_CPP_API_test.hpp ****         }
 146:src/../test/ConsumerProducer_CPP_API_test.hpp **** 
 147:src/../test/ConsumerProducer_CPP_API_test.hpp ****         delete waitForAll;
 148:src/../test/ConsumerProducer_CPP_API_test.hpp ****         for (int i = 0; i < threadNum; i++) {
 149:src/../test/ConsumerProducer_CPP_API_test.hpp ****             delete producers[i];
 150:src/../test/ConsumerProducer_CPP_API_test.hpp ****         }
 151:src/../test/ConsumerProducer_CPP_API_test.hpp ****         delete consumer;
 152:src/../test/ConsumerProducer_CPP_API_test.hpp ****         delete buffer;
 1440              		.loc 2 152 22 is_stmt 0
 1441 018c 130C0100 		mv	s8,sp
  90:src/../test/ConsumerProducer_CPP_API_test.hpp ****         char input[30];
 1442              		.loc 2 90 9 is_stmt 1
  91:src/../test/ConsumerProducer_CPP_API_test.hpp **** 
 1443              		.loc 2 91 9
  93:src/../test/ConsumerProducer_CPP_API_test.hpp ****         getString(input, 30);
 1444              		.loc 2 93 9
  93:src/../test/ConsumerProducer_CPP_API_test.hpp ****         getString(input, 30);
 1445              		.loc 2 93 20 is_stmt 0
 1446 0190 17050000 		lla	a0,.LC2
 1446      13050500 
 1447              	.LEHB0:
 1448 0198 97000000 		call	_Z11printStringPKc@plt
 1448      E7800000 
 1449              	.LVL122:
  94:src/../test/ConsumerProducer_CPP_API_test.hpp ****         threadNum = stringToInt(input);
 1450              		.loc 2 94 9 is_stmt 1
  94:src/../test/ConsumerProducer_CPP_API_test.hpp ****         threadNum = stringToInt(input);
 1451              		.loc 2 94 18 is_stmt 0
 1452 01a0 9305E001 		li	a1,30
 1453 01a4 930404F8 		addi	s1,s0,-128
 1454 01a8 13850400 		mv	a0,s1
 1455 01ac 97000000 		call	_Z9getStringPci@plt
 1455      E7800000 
 1456              	.LVL123:
  95:src/../test/ConsumerProducer_CPP_API_test.hpp **** 
 1457              		.loc 2 95 9 is_stmt 1
  95:src/../test/ConsumerProducer_CPP_API_test.hpp **** 
 1458              		.loc 2 95 32 is_stmt 0
 1459 01b4 13850400 		mv	a0,s1
 1460 01b8 97000000 		call	_Z11stringToIntPKc@plt
 1460      E7800000 
 1461              	.LVL124:
 1462 01c0 93090500 		mv	s3,a0
 1463              	.LVL125:
  97:src/../test/ConsumerProducer_CPP_API_test.hpp ****         getString(input, 30);
 1464              		.loc 2 97 9 is_stmt 1
  97:src/../test/ConsumerProducer_CPP_API_test.hpp ****         getString(input, 30);
 1465              		.loc 2 97 20 is_stmt 0
 1466 01c4 17050000 		lla	a0,.LC3
 1466      13050500 
 1467 01cc 97000000 		call	_Z11printStringPKc@plt
GAS LISTING /tmp/ccx9Uhqi.s 			page 36


 1467      E7800000 
 1468              	.LVL126:
  98:src/../test/ConsumerProducer_CPP_API_test.hpp ****         n = stringToInt(input);
 1469              		.loc 2 98 9 is_stmt 1
  98:src/../test/ConsumerProducer_CPP_API_test.hpp ****         n = stringToInt(input);
 1470              		.loc 2 98 18 is_stmt 0
 1471 01d4 9305E001 		li	a1,30
 1472 01d8 13850400 		mv	a0,s1
 1473 01dc 97000000 		call	_Z9getStringPci@plt
 1473      E7800000 
 1474              	.LVL127:
  99:src/../test/ConsumerProducer_CPP_API_test.hpp **** 
 1475              		.loc 2 99 9 is_stmt 1
  99:src/../test/ConsumerProducer_CPP_API_test.hpp **** 
 1476              		.loc 2 99 24 is_stmt 0
 1477 01e4 13850400 		mv	a0,s1
 1478 01e8 97000000 		call	_Z11stringToIntPKc@plt
 1478      E7800000 
 1479              	.LVL128:
 1480 01f0 93040500 		mv	s1,a0
 1481              	.LVL129:
 101:src/../test/ConsumerProducer_CPP_API_test.hpp ****         printString(" i velicina bafera "); printInt(n);
 1482              		.loc 2 101 9 is_stmt 1
 101:src/../test/ConsumerProducer_CPP_API_test.hpp ****         printString(" i velicina bafera "); printInt(n);
 1483              		.loc 2 101 20 is_stmt 0
 1484 01f4 17050000 		lla	a0,.LC4
 1484      13050500 
 1485 01fc 97000000 		call	_Z11printStringPKc@plt
 1485      E7800000 
 1486              	.LVL130:
 101:src/../test/ConsumerProducer_CPP_API_test.hpp ****         printString(" i velicina bafera "); printInt(n);
 1487              		.loc 2 101 44 is_stmt 1
 101:src/../test/ConsumerProducer_CPP_API_test.hpp ****         printString(" i velicina bafera "); printInt(n);
 1488              		.loc 2 101 52 is_stmt 0
 1489 0204 13060000 		li	a2,0
 1490 0208 9305A000 		li	a1,10
 1491 020c 13850900 		mv	a0,s3
 1492 0210 97000000 		call	_Z8printIntiii@plt
 1492      E7800000 
 1493              	.LVL131:
 102:src/../test/ConsumerProducer_CPP_API_test.hpp ****         printString(".\n");
 1494              		.loc 2 102 9 is_stmt 1
 102:src/../test/ConsumerProducer_CPP_API_test.hpp ****         printString(".\n");
 1495              		.loc 2 102 20 is_stmt 0
 1496 0218 17050000 		lla	a0,.LC5
 1496      13050500 
 1497 0220 97000000 		call	_Z11printStringPKc@plt
 1497      E7800000 
 1498              	.LVL132:
 102:src/../test/ConsumerProducer_CPP_API_test.hpp ****         printString(".\n");
 1499              		.loc 2 102 45 is_stmt 1
 102:src/../test/ConsumerProducer_CPP_API_test.hpp ****         printString(".\n");
 1500              		.loc 2 102 53 is_stmt 0
 1501 0228 13060000 		li	a2,0
 1502 022c 9305A000 		li	a1,10
 1503 0230 13850400 		mv	a0,s1
 1504 0234 97000000 		call	_Z8printIntiii@plt
GAS LISTING /tmp/ccx9Uhqi.s 			page 37


 1504      E7800000 
 1505              	.LVL133:
 103:src/../test/ConsumerProducer_CPP_API_test.hpp **** 
 1506              		.loc 2 103 9 is_stmt 1
 103:src/../test/ConsumerProducer_CPP_API_test.hpp **** 
 1507              		.loc 2 103 20 is_stmt 0
 1508 023c 17050000 		lla	a0,.LC6
 1508      13050500 
 1509 0244 97000000 		call	_Z11printStringPKc@plt
 1509      E7800000 
 1510              	.LVL134:
 105:src/../test/ConsumerProducer_CPP_API_test.hpp ****             printString("Broj proizvodjaca ne sme biti manji od velicine bafera!\n");
 1511              		.loc 2 105 9 is_stmt 1
 1512 024c 63C43403 		bgt	s3,s1,.L103
 108:src/../test/ConsumerProducer_CPP_API_test.hpp ****             printString("Broj proizvodjaca mora biti veci od nula!\n");
 1513              		.loc 2 108 16
 1514 0250 635C3003 		blez	s3,.L104
 113:src/../test/ConsumerProducer_CPP_API_test.hpp **** 
 1515              		.loc 2 113 9
 113:src/../test/ConsumerProducer_CPP_API_test.hpp **** 
 1516              		.loc 2 113 44 is_stmt 0
 1517 0254 13058003 		li	a0,56
 1518 0258 97000000 		call	_Znwm@plt
 1518      E7800000 
 1519              	.LVL135:
 1520              	.LEHE0:
 1521 0260 930A0500 		mv	s5,a0
 1522 0264 93850400 		mv	a1,s1
 1523              	.LEHB1:
 1524 0268 97000000 		call	_ZN9BufferCPPC1Ei@plt
 1524      E7800000 
 1525              	.LVL136:
 1526              	.LEHE1:
 1527 0270 6F000003 		j	.L105
 1528              	.L103:
 106:src/../test/ConsumerProducer_CPP_API_test.hpp ****             return;
 1529              		.loc 2 106 13 is_stmt 1
 106:src/../test/ConsumerProducer_CPP_API_test.hpp ****             return;
 1530              		.loc 2 106 24 is_stmt 0
 1531 0274 17050000 		lla	a0,.LC7
 1531      13050500 
 1532              	.LEHB2:
 1533 027c 97000000 		call	_Z11printStringPKc@plt
 1533      E7800000 
 1534              	.LVL137:
 107:src/../test/ConsumerProducer_CPP_API_test.hpp ****         } else if (threadNum < 1) {
 1535              		.loc 2 107 13 is_stmt 1
 1536 0284 6F004001 		j	.L79
 1537              	.L104:
 109:src/../test/ConsumerProducer_CPP_API_test.hpp ****             return;
 1538              		.loc 2 109 13
 109:src/../test/ConsumerProducer_CPP_API_test.hpp ****             return;
 1539              		.loc 2 109 24 is_stmt 0
 1540 0288 17050000 		lla	a0,.LC8
 1540      13050500 
 1541 0290 97000000 		call	_Z11printStringPKc@plt
 1541      E7800000 
GAS LISTING /tmp/ccx9Uhqi.s 			page 38


 1542              	.LVL138:
 110:src/../test/ConsumerProducer_CPP_API_test.hpp ****         }
 1543              		.loc 2 110 13 is_stmt 1
 1544              	.L79:
 1545 0298 13010C00 		mv	sp,s8
 1546 029c 6F00C021 		j	.L77
 1547              	.L105:
 1548              	.LVL139:
 115:src/../test/ConsumerProducer_CPP_API_test.hpp ****         Thread *producers[threadNum];
 1549              		.loc 2 115 9 discriminator 3
 115:src/../test/ConsumerProducer_CPP_API_test.hpp ****         Thread *producers[threadNum];
 1550              		.loc 2 115 37 is_stmt 0 discriminator 3
 1551 02a0 13050001 		li	a0,16
 1552 02a4 97000000 		call	_Znwm@plt
 1552      E7800000 
 1553              	.LVL140:
 1554              	.LEHE2:
 1555 02ac 93040500 		mv	s1,a0
 1556              	.LVL141:
 1557 02b0 93050000 		li	a1,0
 1558              	.LEHB3:
 1559 02b4 97000000 		call	_ZN9SemaphoreC1Ej@plt
 1559      E7800000 
 1560              	.LVL142:
 1561              	.LEHE3:
 115:src/../test/ConsumerProducer_CPP_API_test.hpp ****         Thread *producers[threadNum];
 1562              		.loc 2 115 20 discriminator 3
 1563 02bc 17070000 		lla	a4,.LANCHOR0
 1563      13070700 
 1564 02c4 23389700 		sd	s1,16(a4)
 116:src/../test/ConsumerProducer_CPP_API_test.hpp ****         thread_data threadData[threadNum + 1];
 1565              		.loc 2 116 9 is_stmt 1 discriminator 3
 1566              	.LVL143:
 116:src/../test/ConsumerProducer_CPP_API_test.hpp ****         thread_data threadData[threadNum + 1];
 1567              		.loc 2 116 17 is_stmt 0 discriminator 3
 1568 02c8 93973900 		slli	a5,s3,3
 1569 02cc 9387F700 		addi	a5,a5,15
 1570 02d0 93F707FF 		andi	a5,a5,-16
 1571 02d4 3301F140 		sub	sp,sp,a5
 1572 02d8 130A0100 		mv	s4,sp
 1573              	.LVL144:
 117:src/../test/ConsumerProducer_CPP_API_test.hpp **** 
 1574              		.loc 2 117 9 is_stmt 1 discriminator 3
 117:src/../test/ConsumerProducer_CPP_API_test.hpp **** 
 1575              		.loc 2 117 42 is_stmt 0 discriminator 3
 1576 02dc 9B861900 		addiw	a3,s3,1
 1577              	.LVL145:
 117:src/../test/ConsumerProducer_CPP_API_test.hpp **** 
 1578              		.loc 2 117 21 discriminator 3
 1579 02e0 93971600 		slli	a5,a3,1
 1580 02e4 B387D700 		add	a5,a5,a3
 1581 02e8 93973700 		slli	a5,a5,3
 1582 02ec 9387F700 		addi	a5,a5,15
 1583 02f0 93F707FF 		andi	a5,a5,-16
 1584 02f4 3301F140 		sub	sp,sp,a5
 1585              	.LVL146:
 1586 02f8 130B0100 		mv	s6,sp
GAS LISTING /tmp/ccx9Uhqi.s 			page 39


 1587              	.LVL147:
 119:src/../test/ConsumerProducer_CPP_API_test.hpp ****         threadData[threadNum].buffer = buffer;
 1588              		.loc 2 119 9 is_stmt 1 discriminator 3
 119:src/../test/ConsumerProducer_CPP_API_test.hpp ****         threadData[threadNum].buffer = buffer;
 1589              		.loc 2 119 34 is_stmt 0 discriminator 3
 1590 02fc 93941900 		slli	s1,s3,1
 1591 0300 B3843401 		add	s1,s1,s3
 1592 0304 93943400 		slli	s1,s1,3
 1593 0308 B3049B00 		add	s1,s6,s1
 1594 030c 23A03401 		sw	s3,0(s1)
 120:src/../test/ConsumerProducer_CPP_API_test.hpp ****         threadData[threadNum].sem = waitForAll;
 1595              		.loc 2 120 9 is_stmt 1 discriminator 3
 120:src/../test/ConsumerProducer_CPP_API_test.hpp ****         threadData[threadNum].sem = waitForAll;
 1596              		.loc 2 120 38 is_stmt 0 discriminator 3
 1597 0310 23B45401 		sd	s5,8(s1)
 121:src/../test/ConsumerProducer_CPP_API_test.hpp ****         Thread *consumer = new Consumer(&threadData[threadNum]);
 1598              		.loc 2 121 9 is_stmt 1 discriminator 3
 121:src/../test/ConsumerProducer_CPP_API_test.hpp ****         Thread *consumer = new Consumer(&threadData[threadNum]);
 1599              		.loc 2 121 35 is_stmt 0 discriminator 3
 1600 0314 83370701 		ld	a5,16(a4)
 1601 0318 23B8F400 		sd	a5,16(s1)
 122:src/../test/ConsumerProducer_CPP_API_test.hpp ****         consumer->start();
 1602              		.loc 2 122 9 is_stmt 1 discriminator 3
 122:src/../test/ConsumerProducer_CPP_API_test.hpp ****         consumer->start();
 1603              		.loc 2 122 63 is_stmt 0 discriminator 3
 1604 031c 13058001 		li	a0,24
 1605              	.LEHB4:
 1606 0320 97000000 		call	_Znwm@plt
 1606      E7800000 
 1607              	.LVL148:
 1608              	.LEHE4:
 1609 0328 930B0500 		mv	s7,a0
 1610              	.LVL149:
 1611              	.LEHB5:
 1612              	.LBB116:
 1613              	.LBB117:
  65:src/../test/ConsumerProducer_CPP_API_test.hpp **** 
 1614              		.loc 2 65 54 discriminator 3
 1615 032c 97000000 		call	_ZN6ThreadC2Ev@plt
 1615      E7800000 
 1616              	.LVL150:
 1617              	.LEHE5:
  65:src/../test/ConsumerProducer_CPP_API_test.hpp **** 
 1618              		.loc 2 65 54
 1619 0334 97070000 		lla	a5,_ZTVN19ConsumerProducerCPP8ConsumerE+16
 1619      93870700 
 1620 033c 23B0FB00 		sd	a5,0(s7)
 1621 0340 23B89B00 		sd	s1,16(s7)
 1622              	.LVL151:
 1623              	.LBE117:
 1624              	.LBE116:
 123:src/../test/ConsumerProducer_CPP_API_test.hpp **** 
 1625              		.loc 2 123 9 is_stmt 1
 123:src/../test/ConsumerProducer_CPP_API_test.hpp **** 
 1626              		.loc 2 123 24 is_stmt 0
 1627 0344 13850B00 		mv	a0,s7
 1628              	.LEHB6:
GAS LISTING /tmp/ccx9Uhqi.s 			page 40


 1629 0348 97000000 		call	_ZN6Thread5startEv@plt
 1629      E7800000 
 1630              	.LVL152:
 125:src/../test/ConsumerProducer_CPP_API_test.hpp ****         threadData[0].buffer = buffer;
 1631              		.loc 2 125 9 is_stmt 1
 125:src/../test/ConsumerProducer_CPP_API_test.hpp ****         threadData[0].buffer = buffer;
 1632              		.loc 2 125 26 is_stmt 0
 1633 0350 23200B00 		sw	zero,0(s6)
 126:src/../test/ConsumerProducer_CPP_API_test.hpp ****         threadData[0].sem = waitForAll;
 1634              		.loc 2 126 9 is_stmt 1
 126:src/../test/ConsumerProducer_CPP_API_test.hpp ****         threadData[0].sem = waitForAll;
 1635              		.loc 2 126 30 is_stmt 0
 1636 0354 23345B01 		sd	s5,8(s6)
 127:src/../test/ConsumerProducer_CPP_API_test.hpp ****         producers[0] = new ProducerKeyborad(&threadData[0]);
 1637              		.loc 2 127 9 is_stmt 1
 127:src/../test/ConsumerProducer_CPP_API_test.hpp ****         producers[0] = new ProducerKeyborad(&threadData[0]);
 1638              		.loc 2 127 27 is_stmt 0
 1639 0358 97070000 		ld	a5,.LANCHOR0+16
 1639      83B70700 
 1640 0360 2338FB00 		sd	a5,16(s6)
 128:src/../test/ConsumerProducer_CPP_API_test.hpp ****         producers[0]->start();
 1641              		.loc 2 128 9 is_stmt 1
 128:src/../test/ConsumerProducer_CPP_API_test.hpp ****         producers[0]->start();
 1642              		.loc 2 128 59 is_stmt 0
 1643 0364 13058001 		li	a0,24
 1644 0368 97000000 		call	_Znwm@plt
 1644      E7800000 
 1645              	.LVL153:
 1646              	.LEHE6:
 1647 0370 93040500 		mv	s1,a0
 1648              	.LVL154:
 1649              	.LEHB7:
 1650              	.LBB118:
 1651              	.LBB119:
  28:src/../test/ConsumerProducer_CPP_API_test.hpp **** 
 1652              		.loc 2 28 62
 1653 0374 97000000 		call	_ZN6ThreadC2Ev@plt
 1653      E7800000 
 1654              	.LVL155:
 1655              	.LEHE7:
 1656 037c 97070000 		lla	a5,_ZTVN19ConsumerProducerCPP16ProducerKeyboradE+16
 1656      93870700 
 1657 0384 23B0F400 		sd	a5,0(s1)
 1658 0388 23B86401 		sd	s6,16(s1)
 1659              	.LVL156:
 1660              	.LBE119:
 1661              	.LBE118:
 128:src/../test/ConsumerProducer_CPP_API_test.hpp ****         producers[0]->start();
 1662              		.loc 2 128 22
 1663 038c 23309A00 		sd	s1,0(s4)
 129:src/../test/ConsumerProducer_CPP_API_test.hpp **** 
 1664              		.loc 2 129 9 is_stmt 1
 129:src/../test/ConsumerProducer_CPP_API_test.hpp **** 
 1665              		.loc 2 129 28 is_stmt 0
 1666 0390 13850400 		mv	a0,s1
 1667              	.LEHB8:
 1668 0394 97000000 		call	_ZN6Thread5startEv@plt
GAS LISTING /tmp/ccx9Uhqi.s 			page 41


 1668      E7800000 
 1669              	.LVL157:
 1670              	.LBB120:
 131:src/../test/ConsumerProducer_CPP_API_test.hpp ****             threadData[i].id = i;
 1671              		.loc 2 131 18
 1672 039c 13091000 		li	s2,1
 1673 03a0 6F000003 		j	.L82
 1674              	.LVL158:
 1675              	.L106:
 1676              	.LBB121:
 1677              	.LBB122:
  48:src/../test/ConsumerProducer_CPP_API_test.hpp **** 
 1678              		.loc 2 48 54
 1679 03a4 97070000 		lla	a5,_ZTVN19ConsumerProducerCPP8ProducerE+16
 1679      93870700 
 1680 03ac 23B0FC00 		sd	a5,0(s9)
 1681 03b0 23B89C00 		sd	s1,16(s9)
 1682              	.LVL159:
 1683              	.LBE122:
 1684              	.LBE121:
 136:src/../test/ConsumerProducer_CPP_API_test.hpp ****             producers[i]->start();
 1685              		.loc 2 136 26
 1686 03b4 93173900 		slli	a5,s2,3
 1687 03b8 B307FA00 		add	a5,s4,a5
 1688 03bc 23B09701 		sd	s9,0(a5)
 137:src/../test/ConsumerProducer_CPP_API_test.hpp **** 
 1689              		.loc 2 137 13 is_stmt 1
 137:src/../test/ConsumerProducer_CPP_API_test.hpp **** 
 1690              		.loc 2 137 32 is_stmt 0
 1691 03c0 13850C00 		mv	a0,s9
 1692 03c4 97000000 		call	_ZN6Thread5startEv@plt
 1692      E7800000 
 1693              	.LVL160:
 131:src/../test/ConsumerProducer_CPP_API_test.hpp ****             threadData[i].id = i;
 1694              		.loc 2 131 9 is_stmt 1
 1695 03cc 1B091900 		addiw	s2,s2,1
 1696              	.LVL161:
 1697              	.L82:
 131:src/../test/ConsumerProducer_CPP_API_test.hpp ****             threadData[i].id = i;
 1698              		.loc 2 131 27 discriminator 1
 1699 03d0 63523905 		bge	s2,s3,.L81
 132:src/../test/ConsumerProducer_CPP_API_test.hpp ****             threadData[i].buffer = buffer;
 1700              		.loc 2 132 13
 132:src/../test/ConsumerProducer_CPP_API_test.hpp ****             threadData[i].buffer = buffer;
 1701              		.loc 2 132 30 is_stmt 0
 1702 03d4 93141900 		slli	s1,s2,1
 1703 03d8 B3842401 		add	s1,s1,s2
 1704 03dc 93943400 		slli	s1,s1,3
 1705 03e0 B3049B00 		add	s1,s6,s1
 1706 03e4 23A02401 		sw	s2,0(s1)
 133:src/../test/ConsumerProducer_CPP_API_test.hpp ****             threadData[i].sem = waitForAll;
 1707              		.loc 2 133 13 is_stmt 1
 133:src/../test/ConsumerProducer_CPP_API_test.hpp ****             threadData[i].sem = waitForAll;
 1708              		.loc 2 133 34 is_stmt 0
 1709 03e8 23B45401 		sd	s5,8(s1)
 134:src/../test/ConsumerProducer_CPP_API_test.hpp **** 
 1710              		.loc 2 134 13 is_stmt 1
GAS LISTING /tmp/ccx9Uhqi.s 			page 42


 134:src/../test/ConsumerProducer_CPP_API_test.hpp **** 
 1711              		.loc 2 134 31 is_stmt 0
 1712 03ec 97070000 		ld	a5,.LANCHOR0+16
 1712      83B70700 
 1713 03f4 23B8F400 		sd	a5,16(s1)
 136:src/../test/ConsumerProducer_CPP_API_test.hpp ****             producers[i]->start();
 1714              		.loc 2 136 13 is_stmt 1
 136:src/../test/ConsumerProducer_CPP_API_test.hpp ****             producers[i]->start();
 1715              		.loc 2 136 55 is_stmt 0
 1716 03f8 13058001 		li	a0,24
 1717 03fc 97000000 		call	_Znwm@plt
 1717      E7800000 
 1718              	.LVL162:
 1719              	.LEHE8:
 1720 0404 930C0500 		mv	s9,a0
 1721              	.LVL163:
 1722              	.LEHB9:
 1723              	.LBB124:
 1724              	.LBB123:
  48:src/../test/ConsumerProducer_CPP_API_test.hpp **** 
 1725              		.loc 2 48 54
 1726 0408 97000000 		call	_ZN6ThreadC2Ev@plt
 1726      E7800000 
 1727              	.LVL164:
 1728              	.LEHE9:
 1729 0410 6FF05FF9 		j	.L106
 1730              	.LVL165:
 1731              	.L81:
 1732              	.LBE123:
 1733              	.LBE124:
 1734              	.LBE120:
 141:src/../test/ConsumerProducer_CPP_API_test.hpp **** 
 1735              		.loc 2 141 9 is_stmt 1
 1736              	.LEHB10:
 141:src/../test/ConsumerProducer_CPP_API_test.hpp **** 
 1737              		.loc 2 141 25 is_stmt 0
 1738 0414 97000000 		call	_ZN6Thread8dispatchEv@plt
 1738      E7800000 
 1739              	.LVL166:
 1740              	.LBB125:
 143:src/../test/ConsumerProducer_CPP_API_test.hpp ****             waitForAll->wait();
 1741              		.loc 2 143 18
 1742 041c 93040000 		li	s1,0
 1743              	.L84:
 1744              	.LVL167:
 143:src/../test/ConsumerProducer_CPP_API_test.hpp ****             waitForAll->wait();
 1745              		.loc 2 143 27 is_stmt 1 discriminator 1
 1746 0420 63CE9900 		bgt	s1,s3,.L83
 144:src/../test/ConsumerProducer_CPP_API_test.hpp ****         }
 1747              		.loc 2 144 13
 144:src/../test/ConsumerProducer_CPP_API_test.hpp ****         }
 1748              		.loc 2 144 29 is_stmt 0
 1749 0424 17050000 		ld	a0,.LANCHOR0+16
 1749      03350500 
 1750 042c 97000000 		call	_ZN9Semaphore4waitEv@plt
 1750      E7800000 
 1751              	.LVL168:
GAS LISTING /tmp/ccx9Uhqi.s 			page 43


 143:src/../test/ConsumerProducer_CPP_API_test.hpp ****             waitForAll->wait();
 1752              		.loc 2 143 9 is_stmt 1
 1753 0434 9B841400 		addiw	s1,s1,1
 1754              	.LVL169:
 1755 0438 6FF09FFE 		j	.L84
 1756              	.LVL170:
 1757              	.L83:
 1758              	.LBE125:
 147:src/../test/ConsumerProducer_CPP_API_test.hpp ****         for (int i = 0; i < threadNum; i++) {
 1759              		.loc 2 147 9
 147:src/../test/ConsumerProducer_CPP_API_test.hpp ****         for (int i = 0; i < threadNum; i++) {
 1760              		.loc 2 147 16 is_stmt 0
 1761 043c 17050000 		ld	a0,.LANCHOR0+16
 1761      03350500 
 147:src/../test/ConsumerProducer_CPP_API_test.hpp ****         for (int i = 0; i < threadNum; i++) {
 1762              		.loc 2 147 26
 1763 0444 63080500 		beqz	a0,.L85
 147:src/../test/ConsumerProducer_CPP_API_test.hpp ****         for (int i = 0; i < threadNum; i++) {
 1764              		.loc 2 147 16 discriminator 1
 1765 0448 83370500 		ld	a5,0(a0)
 1766 044c 83B78700 		ld	a5,8(a5)
 1767 0450 E7800700 		jalr	a5
 1768              	.LVL171:
 1769              	.L85:
 1770              	.LBB126:
 143:src/../test/ConsumerProducer_CPP_API_test.hpp ****             waitForAll->wait();
 1771              		.loc 2 143 18 discriminator 1
 1772 0454 93040000 		li	s1,0
 1773              	.LVL172:
 1774 0458 6F008000 		j	.L88
 1775              	.LVL173:
 1776              	.L87:
 1777              	.LBE126:
 1778              	.LBB127:
 148:src/../test/ConsumerProducer_CPP_API_test.hpp ****             delete producers[i];
 1779              		.loc 2 148 9 is_stmt 1 discriminator 2
 1780 045c 9B841400 		addiw	s1,s1,1
 1781              	.LVL174:
 1782              	.L88:
 148:src/../test/ConsumerProducer_CPP_API_test.hpp ****             delete producers[i];
 1783              		.loc 2 148 27 discriminator 1
 1784 0460 63D23403 		bge	s1,s3,.L86
 149:src/../test/ConsumerProducer_CPP_API_test.hpp ****         }
 1785              		.loc 2 149 13
 149:src/../test/ConsumerProducer_CPP_API_test.hpp ****         }
 1786              		.loc 2 149 31 is_stmt 0
 1787 0464 93973400 		slli	a5,s1,3
 1788 0468 B307FA00 		add	a5,s4,a5
 1789 046c 03B50700 		ld	a0,0(a5)
 149:src/../test/ConsumerProducer_CPP_API_test.hpp ****         }
 1790              		.loc 2 149 32
 1791 0470 E30605FE 		beqz	a0,.L87
 149:src/../test/ConsumerProducer_CPP_API_test.hpp ****         }
 1792              		.loc 2 149 31 discriminator 1
 1793 0474 83370500 		ld	a5,0(a0)
 1794 0478 83B78700 		ld	a5,8(a5)
 1795 047c E7800700 		jalr	a5
GAS LISTING /tmp/ccx9Uhqi.s 			page 44


 1796              	.LVL175:
 1797 0480 6FF0DFFD 		j	.L87
 1798              	.L86:
 1799              	.LBE127:
 151:src/../test/ConsumerProducer_CPP_API_test.hpp ****         delete buffer;
 1800              		.loc 2 151 9 is_stmt 1
 151:src/../test/ConsumerProducer_CPP_API_test.hpp ****         delete buffer;
 1801              		.loc 2 151 24 is_stmt 0
 1802 0484 638A0B00 		beqz	s7,.L89
 151:src/../test/ConsumerProducer_CPP_API_test.hpp ****         delete buffer;
 1803              		.loc 2 151 16 discriminator 1
 1804 0488 83B70B00 		ld	a5,0(s7)
 1805 048c 83B78700 		ld	a5,8(a5)
 1806 0490 13850B00 		mv	a0,s7
 1807 0494 E7800700 		jalr	a5
 1808              	.LVL176:
 1809              	.L89:
 1810              		.loc 2 152 9 is_stmt 1
 1811              		.loc 2 152 22 is_stmt 0
 1812 0498 638E0A00 		beqz	s5,.L90
 1813              		.loc 2 152 16 discriminator 1
 1814 049c 13850A00 		mv	a0,s5
 1815 04a0 97000000 		call	_ZN9BufferCPPD1Ev@plt
 1815      E7800000 
 1816              	.LVL177:
 1817 04a8 13850A00 		mv	a0,s5
 1818 04ac 97000000 		call	_ZdlPv@plt
 1818      E7800000 
 1819              	.LVL178:
 1820              	.LEHE10:
 1821              	.L90:
 1822 04b4 13010C00 		mv	sp,s8
 1823              	.LVL179:
 1824              	.L77:
 153:src/../test/ConsumerProducer_CPP_API_test.hpp ****     }
 1825              		.loc 2 153 5
 1826 04b8 130104F8 		addi	sp,s0,-128
 1827              		.cfi_remember_state
 1828              		.cfi_def_cfa 2, 128
 1829 04bc 83308107 		ld	ra,120(sp)
 1830              		.cfi_restore 1
 1831 04c0 03340107 		ld	s0,112(sp)
 1832              		.cfi_restore 8
 1833 04c4 83348106 		ld	s1,104(sp)
 1834              		.cfi_restore 9
 1835 04c8 03390106 		ld	s2,96(sp)
 1836              		.cfi_restore 18
 1837 04cc 83398105 		ld	s3,88(sp)
 1838              		.cfi_restore 19
 1839              	.LVL180:
 1840 04d0 033A0105 		ld	s4,80(sp)
 1841              		.cfi_restore 20
 1842 04d4 833A8104 		ld	s5,72(sp)
 1843              		.cfi_restore 21
 1844 04d8 033B0104 		ld	s6,64(sp)
 1845              		.cfi_restore 22
 1846 04dc 833B8103 		ld	s7,56(sp)
GAS LISTING /tmp/ccx9Uhqi.s 			page 45


 1847              		.cfi_restore 23
 1848 04e0 033C0103 		ld	s8,48(sp)
 1849              		.cfi_restore 24
 1850 04e4 833C8102 		ld	s9,40(sp)
 1851              		.cfi_restore 25
 1852 04e8 13010108 		addi	sp,sp,128
 1853              		.cfi_def_cfa_offset 0
 1854 04ec 67800000 		jr	ra
 1855              	.LVL181:
 1856              	.L97:
 1857              		.cfi_restore_state
 1858 04f0 93040500 		mv	s1,a0
 1859              	.LVL182:
 113:src/../test/ConsumerProducer_CPP_API_test.hpp **** 
 1860              		.loc 2 113 44
 1861 04f4 13850A00 		mv	a0,s5
 1862 04f8 97000000 		call	_ZdlPv@plt
 1862      E7800000 
 1863              	.LVL183:
 1864 0500 13850400 		mv	a0,s1
 1865              	.LEHB11:
 1866 0504 97000000 		call	_Unwind_Resume@plt
 1866      E7800000 
 1867              	.LVL184:
 1868              	.LEHE11:
 1869              	.L98:
 1870 050c 13090500 		mv	s2,a0
 115:src/../test/ConsumerProducer_CPP_API_test.hpp ****         Thread *producers[threadNum];
 1871              		.loc 2 115 37
 1872 0510 13850400 		mv	a0,s1
 1873 0514 97000000 		call	_ZdlPv@plt
 1873      E7800000 
 1874              	.LVL185:
 1875 051c 13050900 		mv	a0,s2
 1876              	.LEHB12:
 1877 0520 97000000 		call	_Unwind_Resume@plt
 1877      E7800000 
 1878              	.LVL186:
 1879              	.LEHE12:
 1880              	.L99:
 1881 0528 93040500 		mv	s1,a0
 1882              	.LVL187:
 122:src/../test/ConsumerProducer_CPP_API_test.hpp ****         consumer->start();
 1883              		.loc 2 122 63
 1884 052c 13850B00 		mv	a0,s7
 1885 0530 97000000 		call	_ZdlPv@plt
 1885      E7800000 
 1886              	.LVL188:
 1887 0538 13850400 		mv	a0,s1
 1888              	.LEHB13:
 1889 053c 97000000 		call	_Unwind_Resume@plt
 1889      E7800000 
 1890              	.LVL189:
 1891              	.LEHE13:
 1892              	.L100:
 1893 0544 13090500 		mv	s2,a0
 128:src/../test/ConsumerProducer_CPP_API_test.hpp ****         producers[0]->start();
GAS LISTING /tmp/ccx9Uhqi.s 			page 46


 1894              		.loc 2 128 59
 1895 0548 13850400 		mv	a0,s1
 1896 054c 97000000 		call	_ZdlPv@plt
 1896      E7800000 
 1897              	.LVL190:
 1898 0554 13050900 		mv	a0,s2
 1899              	.LEHB14:
 1900 0558 97000000 		call	_Unwind_Resume@plt
 1900      E7800000 
 1901              	.LVL191:
 1902              	.LEHE14:
 1903              	.L101:
 1904 0560 93040500 		mv	s1,a0
 1905              	.LVL192:
 1906              	.LBB128:
 136:src/../test/ConsumerProducer_CPP_API_test.hpp ****             producers[i]->start();
 1907              		.loc 2 136 55
 1908 0564 13850C00 		mv	a0,s9
 1909 0568 97000000 		call	_ZdlPv@plt
 1909      E7800000 
 1910              	.LVL193:
 1911 0570 13850400 		mv	a0,s1
 1912              	.LEHB15:
 1913 0574 97000000 		call	_Unwind_Resume@plt
 1913      E7800000 
 1914              	.LVL194:
 1915              	.LEHE15:
 1916              	.LBE128:
 1917              		.cfi_endproc
 1918              	.LFE29:
 1919              		.globl	__gxx_personality_v0
 1920              		.section	.gcc_except_table,"a",@progbits
 1921              	.LLSDA29:
 1922 0000 FF       		.byte	0xff
 1923 0001 FF       		.byte	0xff
 1924 0002 03       		.byte	0x3
 1925 0003 D001     		.byte	0xd0,0x1
 1926 0005 00000000 		.4byte	.LEHB0-.LFB29
 1927 0009 00000000 		.4byte	.LEHE0-.LEHB0
 1928 000d 00000000 		.4byte	0
 1929 0011 00       		.byte	0
 1930 0012 00000000 		.4byte	.LEHB1-.LFB29
 1931 0016 00000000 		.4byte	.LEHE1-.LEHB1
 1932 001a 00000000 		.4byte	.L97-.LFB29
 1933 001e 00       		.byte	0
 1934 001f 00000000 		.4byte	.LEHB2-.LFB29
 1935 0023 00000000 		.4byte	.LEHE2-.LEHB2
 1936 0027 00000000 		.4byte	0
 1937 002b 00       		.byte	0
 1938 002c 00000000 		.4byte	.LEHB3-.LFB29
 1939 0030 00000000 		.4byte	.LEHE3-.LEHB3
 1940 0034 00000000 		.4byte	.L98-.LFB29
 1941 0038 00       		.byte	0
 1942 0039 00000000 		.4byte	.LEHB4-.LFB29
 1943 003d 00000000 		.4byte	.LEHE4-.LEHB4
 1944 0041 00000000 		.4byte	0
 1945 0045 00       		.byte	0
GAS LISTING /tmp/ccx9Uhqi.s 			page 47


 1946 0046 00000000 		.4byte	.LEHB5-.LFB29
 1947 004a 00000000 		.4byte	.LEHE5-.LEHB5
 1948 004e 00000000 		.4byte	.L99-.LFB29
 1949 0052 00       		.byte	0
 1950 0053 00000000 		.4byte	.LEHB6-.LFB29
 1951 0057 00000000 		.4byte	.LEHE6-.LEHB6
 1952 005b 00000000 		.4byte	0
 1953 005f 00       		.byte	0
 1954 0060 00000000 		.4byte	.LEHB7-.LFB29
 1955 0064 00000000 		.4byte	.LEHE7-.LEHB7
 1956 0068 00000000 		.4byte	.L100-.LFB29
 1957 006c 00       		.byte	0
 1958 006d 00000000 		.4byte	.LEHB8-.LFB29
 1959 0071 00000000 		.4byte	.LEHE8-.LEHB8
 1960 0075 00000000 		.4byte	0
 1961 0079 00       		.byte	0
 1962 007a 00000000 		.4byte	.LEHB9-.LFB29
 1963 007e 00000000 		.4byte	.LEHE9-.LEHB9
 1964 0082 00000000 		.4byte	.L101-.LFB29
 1965 0086 00       		.byte	0
 1966 0087 00000000 		.4byte	.LEHB10-.LFB29
 1967 008b 00000000 		.4byte	.LEHE10-.LEHB10
 1968 008f 00000000 		.4byte	0
 1969 0093 00       		.byte	0
 1970 0094 00000000 		.4byte	.LEHB11-.LFB29
 1971 0098 00000000 		.4byte	.LEHE11-.LEHB11
 1972 009c 00000000 		.4byte	0
 1973 00a0 00       		.byte	0
 1974 00a1 00000000 		.4byte	.LEHB12-.LFB29
 1975 00a5 00000000 		.4byte	.LEHE12-.LEHB12
 1976 00a9 00000000 		.4byte	0
 1977 00ad 00       		.byte	0
 1978 00ae 00000000 		.4byte	.LEHB13-.LFB29
 1979 00b2 00000000 		.4byte	.LEHE13-.LEHB13
 1980 00b6 00000000 		.4byte	0
 1981 00ba 00       		.byte	0
 1982 00bb 00000000 		.4byte	.LEHB14-.LFB29
 1983 00bf 00000000 		.4byte	.LEHE14-.LEHB14
 1984 00c3 00000000 		.4byte	0
 1985 00c7 00       		.byte	0
 1986 00c8 00000000 		.4byte	.LEHB15-.LFB29
 1987 00cc 00000000 		.4byte	.LEHE15-.LEHB15
 1988 00d0 00000000 		.4byte	0
 1989 00d4 00       		.byte	0
 1990              		.text
 1992              		.align	2
 1993              		.globl	_Z12testSleepingv
 1995              	_Z12testSleepingv:
 1996              	.LFB31:
  26:src/../test/ThreadSleep_C_API_test.hpp **** 
  27:src/../test/ThreadSleep_C_API_test.hpp **** void testSleeping() {
 1997              		.loc 5 27 21 is_stmt 1
 1998              		.cfi_startproc
 1999 057c 130101FC 		addi	sp,sp,-64
 2000              		.cfi_def_cfa_offset 64
 2001 0580 233C1102 		sd	ra,56(sp)
 2002 0584 23388102 		sd	s0,48(sp)
GAS LISTING /tmp/ccx9Uhqi.s 			page 48


 2003 0588 23349102 		sd	s1,40(sp)
 2004              		.cfi_offset 1, -8
 2005              		.cfi_offset 8, -16
 2006              		.cfi_offset 9, -24
 2007 058c 13040104 		addi	s0,sp,64
 2008              		.cfi_def_cfa 8, 0
  28:src/../test/ThreadSleep_C_API_test.hpp ****     const int sleepy_thread_count = 2;
 2009              		.loc 5 28 5
 2010              	.LVL195:
  29:src/../test/ThreadSleep_C_API_test.hpp ****     time_t sleep_times[sleepy_thread_count] = {10, 20};
 2011              		.loc 5 29 5
 2012              		.loc 5 29 12 is_stmt 0
 2013 0590 9307A000 		li	a5,10
 2014 0594 2338F4FC 		sd	a5,-48(s0)
 2015 0598 93074001 		li	a5,20
 2016 059c 233CF4FC 		sd	a5,-40(s0)
  30:src/../test/ThreadSleep_C_API_test.hpp ****     thread_t sleepyThread[sleepy_thread_count];
 2017              		.loc 5 30 5 is_stmt 1
  31:src/../test/ThreadSleep_C_API_test.hpp **** 
  32:src/../test/ThreadSleep_C_API_test.hpp ****     for (int i = 0; i < sleepy_thread_count; i++) {
 2018              		.loc 5 32 5
 2019              	.LVL196:
 2020              	.LBB129:
 2021              		.loc 5 32 14 is_stmt 0
 2022 05a0 93040000 		li	s1,0
 2023 05a4 6F00C002 		j	.L109
 2024              	.LVL197:
 2025              	.L112:
  33:src/../test/ThreadSleep_C_API_test.hpp ****         thread_create(&sleepyThread[i], sleepyRun, sleep_times + i);
 2026              		.loc 5 33 9 is_stmt 1
 2027              		.loc 5 33 64 is_stmt 0
 2028 05a8 93973400 		slli	a5,s1,3
 2029              		.loc 5 33 22
 2030 05ac 130604FD 		addi	a2,s0,-48
 2031 05b0 3306F600 		add	a2,a2,a5
 2032 05b4 97050000 		lla	a1,_Z9sleepyRunPv
 2032      93850500 
 2033 05bc 130504FC 		addi	a0,s0,-64
 2034 05c0 3305F500 		add	a0,a0,a5
 2035 05c4 97000000 		call	_Z13thread_createPP7CThreadPFvPvES2_@plt
 2035      E7800000 
 2036              	.LVL198:
  32:src/../test/ThreadSleep_C_API_test.hpp ****         thread_create(&sleepyThread[i], sleepyRun, sleep_times + i);
 2037              		.loc 5 32 5 is_stmt 1
 2038 05cc 9B841400 		addiw	s1,s1,1
 2039              	.LVL199:
 2040              	.L109:
  32:src/../test/ThreadSleep_C_API_test.hpp ****         thread_create(&sleepyThread[i], sleepyRun, sleep_times + i);
 2041              		.loc 5 32 23 discriminator 1
 2042 05d0 93071000 		li	a5,1
 2043 05d4 E3DA97FC 		ble	s1,a5,.L112
 2044              	.L110:
 2045              	.LBE129:
  34:src/../test/ThreadSleep_C_API_test.hpp ****     }
  35:src/../test/ThreadSleep_C_API_test.hpp **** 
  36:src/../test/ThreadSleep_C_API_test.hpp ****     while (!(finished[0] && finished[1])) {}
 2046              		.loc 5 36 5
GAS LISTING /tmp/ccx9Uhqi.s 			page 49


 2047              		.loc 5 36 12
 2048              		.loc 5 36 24 is_stmt 0
 2049 05d8 97070000 		lbu	a5,.LANCHOR0+8
 2049      83C70700 
 2050              		.loc 5 36 12
 2051 05e0 E38C07FE 		beqz	a5,.L110
 2052              		.loc 5 36 39 discriminator 1
 2053 05e4 97070000 		lbu	a5,.LANCHOR0+9
 2053      83C70700 
 2054              		.loc 5 36 12 discriminator 1
 2055 05ec E38607FE 		beqz	a5,.L110
  37:src/../test/ThreadSleep_C_API_test.hpp **** }
 2056              		.loc 5 37 1
 2057 05f0 83308103 		ld	ra,56(sp)
 2058              		.cfi_restore 1
 2059 05f4 03340103 		ld	s0,48(sp)
 2060              		.cfi_restore 8
 2061              		.cfi_def_cfa 2, 64
 2062 05f8 83348102 		ld	s1,40(sp)
 2063              		.cfi_restore 9
 2064              	.LVL200:
 2065 05fc 13010104 		addi	sp,sp,64
 2066              		.cfi_def_cfa_offset 0
 2067 0600 67800000 		jr	ra
 2068              		.cfi_endproc
 2069              	.LFE31:
 2071              		.align	2
 2072              		.globl	_Z9fibonaccim
 2074              	_Z9fibonaccim:
 2075              	.LFB40:
  13:src/../test/Threads_CPP_API_test.hpp ****     if (n == 0 || n == 1) { return n; }
 2076              		.loc 3 13 28 is_stmt 1
 2077              		.cfi_startproc
 2078              	.LVL201:
 2079 0604 130101FE 		addi	sp,sp,-32
 2080              		.cfi_def_cfa_offset 32
 2081 0608 233C1100 		sd	ra,24(sp)
 2082 060c 23388100 		sd	s0,16(sp)
 2083 0610 23349100 		sd	s1,8(sp)
 2084 0614 23302101 		sd	s2,0(sp)
 2085              		.cfi_offset 1, -8
 2086              		.cfi_offset 8, -16
 2087              		.cfi_offset 9, -24
 2088              		.cfi_offset 18, -32
 2089 0618 13040102 		addi	s0,sp,32
 2090              		.cfi_def_cfa 8, 0
 2091 061c 93040500 		mv	s1,a0
  14:src/../test/Threads_CPP_API_test.hpp ****     if (n % 10 == 0) { thread_dispatch(); }
 2092              		.loc 3 14 5
 2093 0620 93071000 		li	a5,1
 2094 0624 63F8A702 		bleu	a0,a5,.L113
  15:src/../test/Threads_CPP_API_test.hpp ****     return fibonacci(n - 1) + fibonacci(n - 2);
 2095              		.loc 3 15 5
  15:src/../test/Threads_CPP_API_test.hpp ****     return fibonacci(n - 1) + fibonacci(n - 2);
 2096              		.loc 3 15 11 is_stmt 0
 2097 0628 9307A000 		li	a5,10
 2098 062c B377F502 		remu	a5,a0,a5
GAS LISTING /tmp/ccx9Uhqi.s 			page 50


  15:src/../test/Threads_CPP_API_test.hpp ****     return fibonacci(n - 1) + fibonacci(n - 2);
 2099              		.loc 3 15 5
 2100 0630 638E0702 		beqz	a5,.L118
 2101              	.LVL202:
 2102              	.L115:
  16:src/../test/Threads_CPP_API_test.hpp **** }
 2103              		.loc 3 16 5 is_stmt 1
  16:src/../test/Threads_CPP_API_test.hpp **** }
 2104              		.loc 3 16 21 is_stmt 0
 2105 0634 1385F4FF 		addi	a0,s1,-1
 2106 0638 97000000 		call	_Z9fibonaccim
 2106      E7800000 
 2107              	.LVL203:
 2108 0640 13090500 		mv	s2,a0
  16:src/../test/Threads_CPP_API_test.hpp **** }
 2109              		.loc 3 16 40
 2110 0644 1385E4FF 		addi	a0,s1,-2
 2111 0648 97000000 		call	_Z9fibonaccim
 2111      E7800000 
 2112              	.LVL204:
  16:src/../test/Threads_CPP_API_test.hpp **** }
 2113              		.loc 3 16 46
 2114 0650 3305A900 		add	a0,s2,a0
 2115              	.L113:
  17:src/../test/Threads_CPP_API_test.hpp **** 
 2116              		.loc 3 17 1
 2117 0654 83308101 		ld	ra,24(sp)
 2118              		.cfi_remember_state
 2119              		.cfi_restore 1
 2120 0658 03340101 		ld	s0,16(sp)
 2121              		.cfi_restore 8
 2122              		.cfi_def_cfa 2, 32
 2123 065c 83348100 		ld	s1,8(sp)
 2124              		.cfi_restore 9
 2125              	.LVL205:
 2126 0660 03390100 		ld	s2,0(sp)
 2127              		.cfi_restore 18
 2128 0664 13010102 		addi	sp,sp,32
 2129              		.cfi_def_cfa_offset 0
 2130 0668 67800000 		jr	ra
 2131              	.LVL206:
 2132              	.L118:
 2133              		.cfi_restore_state
  15:src/../test/Threads_CPP_API_test.hpp ****     return fibonacci(n - 1) + fibonacci(n - 2);
 2134              		.loc 3 15 24 is_stmt 1 discriminator 1
  15:src/../test/Threads_CPP_API_test.hpp ****     return fibonacci(n - 1) + fibonacci(n - 2);
 2135              		.loc 3 15 39 is_stmt 0 discriminator 1
 2136 066c 97000000 		call	_Z15thread_dispatchv@plt
 2136      E7800000 
 2137              	.LVL207:
 2138 0674 6FF01FFC 		j	.L115
 2139              		.cfi_endproc
 2140              	.LFE40:
 2142              		.section	.rodata.str1.8
 2143 00f3 00000000 		.align	3
 2143      00
 2144              	.LC9:
GAS LISTING /tmp/ccx9Uhqi.s 			page 51


 2145 00f8 413A2069 		.string	"A: i="
 2145      3D00
 2146 00fe 0000     		.align	3
 2147              	.LC10:
 2148 0100 0A00     		.string	"\n"
 2149 0102 00000000 		.align	3
 2149      0000
 2150              	.LC11:
 2151 0108 41206669 		.string	"A finished!\n"
 2151      6E697368 
 2151      6564210A 
 2151      00
 2152              		.text
 2153              		.align	2
 2154              		.globl	_ZN7WorkerA11workerBodyAEPv
 2156              	_ZN7WorkerA11workerBodyAEPv:
 2157              	.LFB57:
  50:src/../test/Threads_CPP_API_test.hpp ****     void workerBodyD(void* arg);
  51:src/../test/Threads_CPP_API_test.hpp **** public:
  52:src/../test/Threads_CPP_API_test.hpp ****     WorkerD():Thread() {}
  53:src/../test/Threads_CPP_API_test.hpp **** 
  54:src/../test/Threads_CPP_API_test.hpp ****     void run() override {
  55:src/../test/Threads_CPP_API_test.hpp ****         workerBodyD(nullptr);
  56:src/../test/Threads_CPP_API_test.hpp ****     }
  57:src/../test/Threads_CPP_API_test.hpp **** };
  58:src/../test/Threads_CPP_API_test.hpp **** 
  59:src/../test/Threads_CPP_API_test.hpp **** void WorkerA::workerBodyA(void *arg) {
 2158              		.loc 3 59 38 is_stmt 1
 2159              		.cfi_startproc
 2160              	.LVL208:
 2161 0678 130101FE 		addi	sp,sp,-32
 2162              		.cfi_def_cfa_offset 32
 2163 067c 233C1100 		sd	ra,24(sp)
 2164 0680 23388100 		sd	s0,16(sp)
 2165 0684 23349100 		sd	s1,8(sp)
 2166 0688 23302101 		sd	s2,0(sp)
 2167              		.cfi_offset 1, -8
 2168              		.cfi_offset 8, -16
 2169              		.cfi_offset 9, -24
 2170              		.cfi_offset 18, -32
 2171 068c 13040102 		addi	s0,sp,32
 2172              		.cfi_def_cfa 8, 0
  60:src/../test/Threads_CPP_API_test.hpp ****     for (uint64 i = 0; i < 10; i++) {
 2173              		.loc 3 60 5
 2174              	.LVL209:
 2175              	.LBB130:
 2176              		.loc 3 60 17 is_stmt 0
 2177 0690 13090000 		li	s2,0
 2178 0694 6F008003 		j	.L125
 2179              	.LVL210:
 2180              	.L122:
 2181              	.LBB131:
 2182              	.LBB132:
 2183              	.LBB133:
  61:src/../test/Threads_CPP_API_test.hpp ****         printString("A: i="); printInt(i); printString("\n");
  62:src/../test/Threads_CPP_API_test.hpp ****         for (uint64 j = 0; j < 10000; j++) {
  63:src/../test/Threads_CPP_API_test.hpp ****             for (uint64 k = 0; k < 30000; k++) {
GAS LISTING /tmp/ccx9Uhqi.s 			page 52


  64:src/../test/Threads_CPP_API_test.hpp ****  }
  65:src/../test/Threads_CPP_API_test.hpp ****             thread_dispatch();
 2184              		.loc 3 65 13 is_stmt 1 discriminator 2
 2185              		.loc 3 65 28 is_stmt 0 discriminator 2
 2186 0698 97000000 		call	_Z15thread_dispatchv@plt
 2186      E7800000 
 2187              	.LVL211:
 2188              	.LBE133:
  62:src/../test/Threads_CPP_API_test.hpp ****             for (uint64 k = 0; k < 30000; k++) {
 2189              		.loc 3 62 9 is_stmt 1 discriminator 2
 2190 06a0 93841400 		addi	s1,s1,1
 2191              	.LVL212:
 2192              	.L124:
  62:src/../test/Threads_CPP_API_test.hpp ****             for (uint64 k = 0; k < 30000; k++) {
 2193              		.loc 3 62 30 discriminator 1
 2194 06a4 B7270000 		li	a5,8192
 2195 06a8 9387F770 		addi	a5,a5,1807
 2196 06ac 63EE9700 		bgtu	s1,a5,.L121
 2197              	.LBB135:
 2198              	.LBB134:
  63:src/../test/Threads_CPP_API_test.hpp ****  }
 2199              		.loc 3 63 25 is_stmt 0
 2200 06b0 13070000 		li	a4,0
 2201              	.L123:
 2202              	.LVL213:
  63:src/../test/Threads_CPP_API_test.hpp ****  }
 2203              		.loc 3 63 34 is_stmt 1 discriminator 3
 2204 06b4 B7770000 		li	a5,28672
 2205 06b8 9387F752 		addi	a5,a5,1327
 2206 06bc E3EEE7FC 		bgtu	a4,a5,.L122
  63:src/../test/Threads_CPP_API_test.hpp ****  }
 2207              		.loc 3 63 13 discriminator 2
 2208 06c0 13071700 		addi	a4,a4,1
 2209              	.LVL214:
 2210 06c4 6FF01FFF 		j	.L123
 2211              	.LVL215:
 2212              	.L121:
 2213              	.LBE134:
 2214              	.LBE135:
 2215              	.LBE132:
 2216              	.LBE131:
  60:src/../test/Threads_CPP_API_test.hpp ****         printString("A: i="); printInt(i); printString("\n");
 2217              		.loc 3 60 5 discriminator 2
 2218 06c8 13091900 		addi	s2,s2,1
 2219              	.LVL216:
 2220              	.L125:
  60:src/../test/Threads_CPP_API_test.hpp ****         printString("A: i="); printInt(i); printString("\n");
 2221              		.loc 3 60 26 discriminator 1
 2222 06cc 93079000 		li	a5,9
 2223 06d0 63E02705 		bgtu	s2,a5,.L120
 2224              	.LBB137:
  61:src/../test/Threads_CPP_API_test.hpp ****         for (uint64 j = 0; j < 10000; j++) {
 2225              		.loc 3 61 9
  61:src/../test/Threads_CPP_API_test.hpp ****         for (uint64 j = 0; j < 10000; j++) {
 2226              		.loc 3 61 20 is_stmt 0
 2227 06d4 17050000 		lla	a0,.LC9
 2227      13050500 
GAS LISTING /tmp/ccx9Uhqi.s 			page 53


 2228 06dc 97000000 		call	_Z11printStringPKc@plt
 2228      E7800000 
 2229              	.LVL217:
  61:src/../test/Threads_CPP_API_test.hpp ****         for (uint64 j = 0; j < 10000; j++) {
 2230              		.loc 3 61 31 is_stmt 1
  61:src/../test/Threads_CPP_API_test.hpp ****         for (uint64 j = 0; j < 10000; j++) {
 2231              		.loc 3 61 39 is_stmt 0
 2232 06e4 13060000 		li	a2,0
 2233 06e8 9305A000 		li	a1,10
 2234 06ec 1B050900 		sext.w	a0,s2
 2235 06f0 97000000 		call	_Z8printIntiii@plt
 2235      E7800000 
 2236              	.LVL218:
  61:src/../test/Threads_CPP_API_test.hpp ****         for (uint64 j = 0; j < 10000; j++) {
 2237              		.loc 3 61 44 is_stmt 1
  61:src/../test/Threads_CPP_API_test.hpp ****         for (uint64 j = 0; j < 10000; j++) {
 2238              		.loc 3 61 55 is_stmt 0
 2239 06f8 17050000 		lla	a0,.LC10
 2239      13050500 
 2240 0700 97000000 		call	_Z11printStringPKc@plt
 2240      E7800000 
 2241              	.LVL219:
  62:src/../test/Threads_CPP_API_test.hpp ****             for (uint64 k = 0; k < 30000; k++) {
 2242              		.loc 3 62 9 is_stmt 1
 2243              	.LBB136:
  62:src/../test/Threads_CPP_API_test.hpp ****             for (uint64 k = 0; k < 30000; k++) {
 2244              		.loc 3 62 21 is_stmt 0
 2245 0708 93040000 		li	s1,0
 2246 070c 6FF09FF9 		j	.L124
 2247              	.LVL220:
 2248              	.L120:
 2249              	.LBE136:
 2250              	.LBE137:
 2251              	.LBE130:
  66:src/../test/Threads_CPP_API_test.hpp ****         }
  67:src/../test/Threads_CPP_API_test.hpp ****     }
  68:src/../test/Threads_CPP_API_test.hpp ****     printString("A finished!\n");
 2252              		.loc 3 68 5 is_stmt 1
 2253              		.loc 3 68 16 is_stmt 0
 2254 0710 17050000 		lla	a0,.LC11
 2254      13050500 
 2255 0718 97000000 		call	_Z11printStringPKc@plt
 2255      E7800000 
 2256              	.LVL221:
  69:src/../test/Threads_CPP_API_test.hpp ****     finishedA = true;
 2257              		.loc 3 69 5 is_stmt 1
 2258              		.loc 3 69 15 is_stmt 0
 2259 0720 93071000 		li	a5,1
 2260 0724 17070000 		sb	a5,.LANCHOR0+24,a4
 2260      2300F700 
  70:src/../test/Threads_CPP_API_test.hpp **** }
 2261              		.loc 3 70 1
 2262 072c 83308101 		ld	ra,24(sp)
 2263              		.cfi_restore 1
 2264 0730 03340101 		ld	s0,16(sp)
 2265              		.cfi_restore 8
 2266              		.cfi_def_cfa 2, 32
GAS LISTING /tmp/ccx9Uhqi.s 			page 54


 2267 0734 83348100 		ld	s1,8(sp)
 2268              		.cfi_restore 9
 2269 0738 03390100 		ld	s2,0(sp)
 2270              		.cfi_restore 18
 2271              	.LVL222:
 2272 073c 13010102 		addi	sp,sp,32
 2273              		.cfi_def_cfa_offset 0
 2274 0740 67800000 		jr	ra
 2275              		.cfi_endproc
 2276              	.LFE57:
 2278              		.section	.text._ZN7WorkerA3runEv,"axG",@progbits,_ZN7WorkerA3runEv,comdat
 2279              		.align	2
 2280              		.weak	_ZN7WorkerA3runEv
 2282              	_ZN7WorkerA3runEv:
 2283              	.LFB44:
  24:src/../test/Threads_CPP_API_test.hpp ****         workerBodyA(nullptr);
 2284              		.loc 3 24 10 is_stmt 1
 2285              		.cfi_startproc
 2286              	.LVL223:
 2287 0000 130101FF 		addi	sp,sp,-16
 2288              		.cfi_def_cfa_offset 16
 2289 0004 23341100 		sd	ra,8(sp)
 2290 0008 23308100 		sd	s0,0(sp)
 2291              		.cfi_offset 1, -8
 2292              		.cfi_offset 8, -16
 2293 000c 13040101 		addi	s0,sp,16
 2294              		.cfi_def_cfa 8, 0
  25:src/../test/Threads_CPP_API_test.hpp ****     }
 2295              		.loc 3 25 9
  25:src/../test/Threads_CPP_API_test.hpp ****     }
 2296              		.loc 3 25 20 is_stmt 0
 2297 0010 93050000 		li	a1,0
 2298 0014 97000000 		call	_ZN7WorkerA11workerBodyAEPv
 2298      E7800000 
 2299              	.LVL224:
  26:src/../test/Threads_CPP_API_test.hpp **** };
 2300              		.loc 3 26 5
 2301 001c 83308100 		ld	ra,8(sp)
 2302              		.cfi_restore 1
 2303 0020 03340100 		ld	s0,0(sp)
 2304              		.cfi_restore 8
 2305              		.cfi_def_cfa 2, 16
 2306 0024 13010101 		addi	sp,sp,16
 2307              		.cfi_def_cfa_offset 0
 2308 0028 67800000 		jr	ra
 2309              		.cfi_endproc
 2310              	.LFE44:
 2312              		.section	.rodata.str1.8
 2313 0115 000000   		.align	3
 2314              	.LC12:
 2315 0118 423A2069 		.string	"B: i="
 2315      3D00
 2316 011e 0000     		.align	3
 2317              	.LC13:
 2318 0120 42206669 		.string	"B finished!\n"
 2318      6E697368 
 2318      6564210A 
GAS LISTING /tmp/ccx9Uhqi.s 			page 55


 2318      00
 2319              		.text
 2320              		.align	2
 2321              		.globl	_ZN7WorkerB11workerBodyBEPv
 2323              	_ZN7WorkerB11workerBodyBEPv:
 2324              	.LFB58:
  71:src/../test/Threads_CPP_API_test.hpp **** 
  72:src/../test/Threads_CPP_API_test.hpp **** void WorkerB::workerBodyB(void *arg) {
 2325              		.loc 3 72 38 is_stmt 1
 2326              		.cfi_startproc
 2327              	.LVL225:
 2328 0744 130101FE 		addi	sp,sp,-32
 2329              		.cfi_def_cfa_offset 32
 2330 0748 233C1100 		sd	ra,24(sp)
 2331 074c 23388100 		sd	s0,16(sp)
 2332 0750 23349100 		sd	s1,8(sp)
 2333 0754 23302101 		sd	s2,0(sp)
 2334              		.cfi_offset 1, -8
 2335              		.cfi_offset 8, -16
 2336              		.cfi_offset 9, -24
 2337              		.cfi_offset 18, -32
 2338 0758 13040102 		addi	s0,sp,32
 2339              		.cfi_def_cfa 8, 0
  73:src/../test/Threads_CPP_API_test.hpp ****     for (uint64 i = 0; i < 16; i++) {
 2340              		.loc 3 73 5
 2341              	.LVL226:
 2342              	.LBB138:
 2343              		.loc 3 73 17 is_stmt 0
 2344 075c 13090000 		li	s2,0
 2345 0760 6F008003 		j	.L135
 2346              	.LVL227:
 2347              	.L132:
 2348              	.LBB139:
 2349              	.LBB140:
 2350              	.LBB141:
  74:src/../test/Threads_CPP_API_test.hpp ****         printString("B: i="); printInt(i); printString("\n");
  75:src/../test/Threads_CPP_API_test.hpp ****         for (uint64 j = 0; j < 10000; j++) {
  76:src/../test/Threads_CPP_API_test.hpp ****             for (uint64 k = 0; k < 30000; k++) {
  77:src/../test/Threads_CPP_API_test.hpp ****  }
  78:src/../test/Threads_CPP_API_test.hpp ****             thread_dispatch();
 2351              		.loc 3 78 13 is_stmt 1 discriminator 2
 2352              		.loc 3 78 28 is_stmt 0 discriminator 2
 2353 0764 97000000 		call	_Z15thread_dispatchv@plt
 2353      E7800000 
 2354              	.LVL228:
 2355              	.LBE141:
  75:src/../test/Threads_CPP_API_test.hpp ****             for (uint64 k = 0; k < 30000; k++) {
 2356              		.loc 3 75 9 is_stmt 1 discriminator 2
 2357 076c 93841400 		addi	s1,s1,1
 2358              	.LVL229:
 2359              	.L134:
  75:src/../test/Threads_CPP_API_test.hpp ****             for (uint64 k = 0; k < 30000; k++) {
 2360              		.loc 3 75 30 discriminator 1
 2361 0770 B7270000 		li	a5,8192
 2362 0774 9387F770 		addi	a5,a5,1807
 2363 0778 63EE9700 		bgtu	s1,a5,.L131
 2364              	.LBB143:
GAS LISTING /tmp/ccx9Uhqi.s 			page 56


 2365              	.LBB142:
  76:src/../test/Threads_CPP_API_test.hpp ****  }
 2366              		.loc 3 76 25 is_stmt 0
 2367 077c 13070000 		li	a4,0
 2368              	.L133:
 2369              	.LVL230:
  76:src/../test/Threads_CPP_API_test.hpp ****  }
 2370              		.loc 3 76 34 is_stmt 1 discriminator 3
 2371 0780 B7770000 		li	a5,28672
 2372 0784 9387F752 		addi	a5,a5,1327
 2373 0788 E3EEE7FC 		bgtu	a4,a5,.L132
  76:src/../test/Threads_CPP_API_test.hpp ****  }
 2374              		.loc 3 76 13 discriminator 2
 2375 078c 13071700 		addi	a4,a4,1
 2376              	.LVL231:
 2377 0790 6FF01FFF 		j	.L133
 2378              	.LVL232:
 2379              	.L131:
 2380              	.LBE142:
 2381              	.LBE143:
 2382              	.LBE140:
 2383              	.LBE139:
  73:src/../test/Threads_CPP_API_test.hpp ****         printString("B: i="); printInt(i); printString("\n");
 2384              		.loc 3 73 5 discriminator 2
 2385 0794 13091900 		addi	s2,s2,1
 2386              	.LVL233:
 2387              	.L135:
  73:src/../test/Threads_CPP_API_test.hpp ****         printString("B: i="); printInt(i); printString("\n");
 2388              		.loc 3 73 26 discriminator 1
 2389 0798 9307F000 		li	a5,15
 2390 079c 63E02705 		bgtu	s2,a5,.L130
 2391              	.LBB145:
  74:src/../test/Threads_CPP_API_test.hpp ****         for (uint64 j = 0; j < 10000; j++) {
 2392              		.loc 3 74 9
  74:src/../test/Threads_CPP_API_test.hpp ****         for (uint64 j = 0; j < 10000; j++) {
 2393              		.loc 3 74 20 is_stmt 0
 2394 07a0 17050000 		lla	a0,.LC12
 2394      13050500 
 2395 07a8 97000000 		call	_Z11printStringPKc@plt
 2395      E7800000 
 2396              	.LVL234:
  74:src/../test/Threads_CPP_API_test.hpp ****         for (uint64 j = 0; j < 10000; j++) {
 2397              		.loc 3 74 31 is_stmt 1
  74:src/../test/Threads_CPP_API_test.hpp ****         for (uint64 j = 0; j < 10000; j++) {
 2398              		.loc 3 74 39 is_stmt 0
 2399 07b0 13060000 		li	a2,0
 2400 07b4 9305A000 		li	a1,10
 2401 07b8 1B050900 		sext.w	a0,s2
 2402 07bc 97000000 		call	_Z8printIntiii@plt
 2402      E7800000 
 2403              	.LVL235:
  74:src/../test/Threads_CPP_API_test.hpp ****         for (uint64 j = 0; j < 10000; j++) {
 2404              		.loc 3 74 44 is_stmt 1
  74:src/../test/Threads_CPP_API_test.hpp ****         for (uint64 j = 0; j < 10000; j++) {
 2405              		.loc 3 74 55 is_stmt 0
 2406 07c4 17050000 		lla	a0,.LC10
 2406      13050500 
GAS LISTING /tmp/ccx9Uhqi.s 			page 57


 2407 07cc 97000000 		call	_Z11printStringPKc@plt
 2407      E7800000 
 2408              	.LVL236:
  75:src/../test/Threads_CPP_API_test.hpp ****             for (uint64 k = 0; k < 30000; k++) {
 2409              		.loc 3 75 9 is_stmt 1
 2410              	.LBB144:
  75:src/../test/Threads_CPP_API_test.hpp ****             for (uint64 k = 0; k < 30000; k++) {
 2411              		.loc 3 75 21 is_stmt 0
 2412 07d4 93040000 		li	s1,0
 2413 07d8 6FF09FF9 		j	.L134
 2414              	.LVL237:
 2415              	.L130:
 2416              	.LBE144:
 2417              	.LBE145:
 2418              	.LBE138:
  79:src/../test/Threads_CPP_API_test.hpp ****         }
  80:src/../test/Threads_CPP_API_test.hpp ****     }
  81:src/../test/Threads_CPP_API_test.hpp ****     printString("B finished!\n");
 2419              		.loc 3 81 5 is_stmt 1
 2420              		.loc 3 81 16 is_stmt 0
 2421 07dc 17050000 		lla	a0,.LC13
 2421      13050500 
 2422 07e4 97000000 		call	_Z11printStringPKc@plt
 2422      E7800000 
 2423              	.LVL238:
  82:src/../test/Threads_CPP_API_test.hpp ****     finishedB = true;
 2424              		.loc 3 82 5 is_stmt 1
 2425              		.loc 3 82 15 is_stmt 0
 2426 07ec 93071000 		li	a5,1
 2427 07f0 17070000 		sb	a5,.LANCHOR0+25,a4
 2427      2300F700 
  83:src/../test/Threads_CPP_API_test.hpp ****     thread_dispatch();
 2428              		.loc 3 83 5 is_stmt 1
 2429              		.loc 3 83 20 is_stmt 0
 2430 07f8 97000000 		call	_Z15thread_dispatchv@plt
 2430      E7800000 
 2431              	.LVL239:
  84:src/../test/Threads_CPP_API_test.hpp **** }
 2432              		.loc 3 84 1
 2433 0800 83308101 		ld	ra,24(sp)
 2434              		.cfi_restore 1
 2435 0804 03340101 		ld	s0,16(sp)
 2436              		.cfi_restore 8
 2437              		.cfi_def_cfa 2, 32
 2438 0808 83348100 		ld	s1,8(sp)
 2439              		.cfi_restore 9
 2440 080c 03390100 		ld	s2,0(sp)
 2441              		.cfi_restore 18
 2442              	.LVL240:
 2443 0810 13010102 		addi	sp,sp,32
 2444              		.cfi_def_cfa_offset 0
 2445 0814 67800000 		jr	ra
 2446              		.cfi_endproc
 2447              	.LFE58:
 2449              		.section	.text._ZN7WorkerB3runEv,"axG",@progbits,_ZN7WorkerB3runEv,comdat
 2450              		.align	2
 2451              		.weak	_ZN7WorkerB3runEv
GAS LISTING /tmp/ccx9Uhqi.s 			page 58


 2453              	_ZN7WorkerB3runEv:
 2454              	.LFB48:
  34:src/../test/Threads_CPP_API_test.hpp ****         workerBodyB(nullptr);
 2455              		.loc 3 34 10 is_stmt 1
 2456              		.cfi_startproc
 2457              	.LVL241:
 2458 0000 130101FF 		addi	sp,sp,-16
 2459              		.cfi_def_cfa_offset 16
 2460 0004 23341100 		sd	ra,8(sp)
 2461 0008 23308100 		sd	s0,0(sp)
 2462              		.cfi_offset 1, -8
 2463              		.cfi_offset 8, -16
 2464 000c 13040101 		addi	s0,sp,16
 2465              		.cfi_def_cfa 8, 0
  35:src/../test/Threads_CPP_API_test.hpp ****     }
 2466              		.loc 3 35 9
  35:src/../test/Threads_CPP_API_test.hpp ****     }
 2467              		.loc 3 35 20 is_stmt 0
 2468 0010 93050000 		li	a1,0
 2469 0014 97000000 		call	_ZN7WorkerB11workerBodyBEPv
 2469      E7800000 
 2470              	.LVL242:
  36:src/../test/Threads_CPP_API_test.hpp **** };
 2471              		.loc 3 36 5
 2472 001c 83308100 		ld	ra,8(sp)
 2473              		.cfi_restore 1
 2474 0020 03340100 		ld	s0,0(sp)
 2475              		.cfi_restore 8
 2476              		.cfi_def_cfa 2, 16
 2477 0024 13010101 		addi	sp,sp,16
 2478              		.cfi_def_cfa_offset 0
 2479 0028 67800000 		jr	ra
 2480              		.cfi_endproc
 2481              	.LFE48:
 2483              		.section	.rodata.str1.8
 2484 012d 000000   		.align	3
 2485              	.LC14:
 2486 0130 433A2069 		.string	"C: i="
 2486      3D00
 2487 0136 0000     		.align	3
 2488              	.LC15:
 2489 0138 433A2064 		.string	"C: dispatch\n"
 2489      69737061 
 2489      7463680A 
 2489      00
 2490 0145 000000   		.align	3
 2491              	.LC16:
 2492 0148 433A2074 		.string	"C: t1="
 2492      313D00
 2493 014f 00       		.align	3
 2494              	.LC17:
 2495 0150 433A2066 		.string	"C: fibonaci="
 2495      69626F6E 
 2495      6163693D 
 2495      00
 2496              		.text
 2497              		.align	2
GAS LISTING /tmp/ccx9Uhqi.s 			page 59


 2498              		.globl	_ZN7WorkerC11workerBodyCEPv
 2500              	_ZN7WorkerC11workerBodyCEPv:
 2501              	.LFB59:
  85:src/../test/Threads_CPP_API_test.hpp **** 
  86:src/../test/Threads_CPP_API_test.hpp **** void WorkerC::workerBodyC(void *arg) {
 2502              		.loc 3 86 38 is_stmt 1
 2503              		.cfi_startproc
 2504              	.LVL243:
 2505 0818 130101FE 		addi	sp,sp,-32
 2506              		.cfi_def_cfa_offset 32
 2507 081c 233C1100 		sd	ra,24(sp)
 2508 0820 23388100 		sd	s0,16(sp)
 2509 0824 23349100 		sd	s1,8(sp)
 2510 0828 23302101 		sd	s2,0(sp)
 2511              		.cfi_offset 1, -8
 2512              		.cfi_offset 8, -16
 2513              		.cfi_offset 9, -24
 2514              		.cfi_offset 18, -32
 2515 082c 13040102 		addi	s0,sp,32
 2516              		.cfi_def_cfa 8, 0
  87:src/../test/Threads_CPP_API_test.hpp ****     uint8 i = 0;
 2517              		.loc 3 87 5
 2518              	.LVL244:
 2519              		.loc 3 87 11 is_stmt 0
 2520 0830 93040000 		li	s1,0
 2521 0834 6F000004 		j	.L141
 2522              	.LVL245:
 2523              	.L145:
  88:src/../test/Threads_CPP_API_test.hpp ****     for (; i < 3; i++) {
  89:src/../test/Threads_CPP_API_test.hpp ****         printString("C: i="); printInt(i); printString("\n");
 2524              		.loc 3 89 9 is_stmt 1 discriminator 1
 2525              		.loc 3 89 20 is_stmt 0 discriminator 1
 2526 0838 17050000 		lla	a0,.LC14
 2526      13050500 
 2527 0840 97000000 		call	_Z11printStringPKc@plt
 2527      E7800000 
 2528              	.LVL246:
 2529              		.loc 3 89 31 is_stmt 1 discriminator 1
 2530              		.loc 3 89 39 is_stmt 0 discriminator 1
 2531 0848 13060000 		li	a2,0
 2532 084c 9305A000 		li	a1,10
 2533 0850 13850400 		mv	a0,s1
 2534 0854 97000000 		call	_Z8printIntiii@plt
 2534      E7800000 
 2535              	.LVL247:
 2536              		.loc 3 89 44 is_stmt 1 discriminator 1
 2537              		.loc 3 89 55 is_stmt 0 discriminator 1
 2538 085c 17050000 		lla	a0,.LC10
 2538      13050500 
 2539 0864 97000000 		call	_Z11printStringPKc@plt
 2539      E7800000 
 2540              	.LVL248:
  88:src/../test/Threads_CPP_API_test.hpp ****     for (; i < 3; i++) {
 2541              		.loc 3 88 5 is_stmt 1 discriminator 1
 2542 086c 9B841400 		addiw	s1,s1,1
 2543              	.LVL249:
 2544 0870 93F4F40F 		andi	s1,s1,0xff
GAS LISTING /tmp/ccx9Uhqi.s 			page 60


 2545              	.LVL250:
 2546              	.L141:
  88:src/../test/Threads_CPP_API_test.hpp ****     for (; i < 3; i++) {
 2547              		.loc 3 88 5 discriminator 2
  88:src/../test/Threads_CPP_API_test.hpp ****     for (; i < 3; i++) {
 2548              		.loc 3 88 14 discriminator 2
 2549 0874 93072000 		li	a5,2
 2550 0878 E3F097FC 		bleu	s1,a5,.L145
  90:src/../test/Threads_CPP_API_test.hpp ****     }
  91:src/../test/Threads_CPP_API_test.hpp **** 
  92:src/../test/Threads_CPP_API_test.hpp ****     printString("C: dispatch\n");
 2551              		.loc 3 92 5
 2552              		.loc 3 92 16 is_stmt 0
 2553 087c 17050000 		lla	a0,.LC15
 2553      13050500 
 2554 0884 97000000 		call	_Z11printStringPKc@plt
 2554      E7800000 
 2555              	.LVL251:
  93:src/../test/Threads_CPP_API_test.hpp ****     __asm__ ("li t1, 7");
 2556              		.loc 3 93 5 is_stmt 1
 2557              		.loc 3 93 25 is_stmt 0
 2558              	#APP
 2559              	# 93 "src/../test/Threads_CPP_API_test.hpp" 1
  94              	    thread_dispatch();
 2560              		li t1, 7
 2561              	# 0 "" 2
 2562              		.loc 3 94 5 is_stmt 1
 2563              		.loc 3 94 20 is_stmt 0
 2564              	#NO_APP
 2565 0890 97000000 		call	_Z15thread_dispatchv@plt
 2565      E7800000 
 2566              	.LVL252:
  95:src/../test/Threads_CPP_API_test.hpp **** 
  96:src/../test/Threads_CPP_API_test.hpp ****     uint64 t1 = 0;
 2567              		.loc 3 96 5 is_stmt 1
  97:src/../test/Threads_CPP_API_test.hpp ****     __asm__ ("mv %[t1], t1" : [t1] "=r"(t1));
 2568              		.loc 3 97 5
 2569              		.loc 3 97 45 is_stmt 0
 2570              	#APP
 2571              	# 97 "src/../test/Threads_CPP_API_test.hpp" 1
  98              	
 2572              		mv s2, t1
 2573              	# 0 "" 2
 2574              	.LVL253:
  99:src/../test/Threads_CPP_API_test.hpp ****     printString("C: t1="); printInt(t1); printString("\n");
 2575              		.loc 3 99 5 is_stmt 1
 2576              		.loc 3 99 16 is_stmt 0
 2577              	#NO_APP
 2578 089c 17050000 		lla	a0,.LC16
 2578      13050500 
 2579 08a4 97000000 		call	_Z11printStringPKc@plt
 2579      E7800000 
 2580              	.LVL254:
 2581              		.loc 3 99 28 is_stmt 1
 2582              		.loc 3 99 36 is_stmt 0
 2583 08ac 13060000 		li	a2,0
 2584 08b0 9305A000 		li	a1,10
GAS LISTING /tmp/ccx9Uhqi.s 			page 61


 2585 08b4 1B050900 		sext.w	a0,s2
 2586 08b8 97000000 		call	_Z8printIntiii@plt
 2586      E7800000 
 2587              	.LVL255:
 2588              		.loc 3 99 42 is_stmt 1
 2589              		.loc 3 99 53 is_stmt 0
 2590 08c0 17050000 		lla	a0,.LC10
 2590      13050500 
 2591 08c8 97000000 		call	_Z11printStringPKc@plt
 2591      E7800000 
 2592              	.LVL256:
 100:src/../test/Threads_CPP_API_test.hpp **** 
 101:src/../test/Threads_CPP_API_test.hpp ****     uint64 result = fibonacci(12);
 2593              		.loc 3 101 5 is_stmt 1
 2594              		.loc 3 101 30 is_stmt 0
 2595 08d0 1305C000 		li	a0,12
 2596 08d4 97000000 		call	_Z9fibonaccim
 2596      E7800000 
 2597              	.LVL257:
 2598 08dc 13090500 		mv	s2,a0
 2599              	.LVL258:
 102:src/../test/Threads_CPP_API_test.hpp ****     printString("C: fibonaci="); printInt(result); printString("\n");
 2600              		.loc 3 102 5 is_stmt 1
 2601              		.loc 3 102 16 is_stmt 0
 2602 08e0 17050000 		lla	a0,.LC17
 2602      13050500 
 2603              	.LVL259:
 2604 08e8 97000000 		call	_Z11printStringPKc@plt
 2604      E7800000 
 2605              	.LVL260:
 2606              		.loc 3 102 34 is_stmt 1
 2607              		.loc 3 102 42 is_stmt 0
 2608 08f0 13060000 		li	a2,0
 2609 08f4 9305A000 		li	a1,10
 2610 08f8 1B050900 		sext.w	a0,s2
 2611 08fc 97000000 		call	_Z8printIntiii@plt
 2611      E7800000 
 2612              	.LVL261:
 2613              		.loc 3 102 52 is_stmt 1
 2614              		.loc 3 102 63 is_stmt 0
 2615 0904 17050000 		lla	a0,.LC10
 2615      13050500 
 2616 090c 97000000 		call	_Z11printStringPKc@plt
 2616      E7800000 
 2617              	.LVL262:
 2618 0914 6F000004 		j	.L143
 2619              	.L146:
 103:src/../test/Threads_CPP_API_test.hpp **** 
 104:src/../test/Threads_CPP_API_test.hpp ****     for (; i < 6; i++) {
 105:src/../test/Threads_CPP_API_test.hpp ****         printString("C: i="); printInt(i); printString("\n");
 2620              		.loc 3 105 9 is_stmt 1 discriminator 1
 2621              		.loc 3 105 20 is_stmt 0 discriminator 1
 2622 0918 17050000 		lla	a0,.LC14
 2622      13050500 
 2623 0920 97000000 		call	_Z11printStringPKc@plt
 2623      E7800000 
 2624              	.LVL263:
GAS LISTING /tmp/ccx9Uhqi.s 			page 62


 2625              		.loc 3 105 31 is_stmt 1 discriminator 1
 2626              		.loc 3 105 39 is_stmt 0 discriminator 1
 2627 0928 13060000 		li	a2,0
 2628 092c 9305A000 		li	a1,10
 2629 0930 13850400 		mv	a0,s1
 2630 0934 97000000 		call	_Z8printIntiii@plt
 2630      E7800000 
 2631              	.LVL264:
 2632              		.loc 3 105 44 is_stmt 1 discriminator 1
 2633              		.loc 3 105 55 is_stmt 0 discriminator 1
 2634 093c 17050000 		lla	a0,.LC10
 2634      13050500 
 2635 0944 97000000 		call	_Z11printStringPKc@plt
 2635      E7800000 
 2636              	.LVL265:
 104:src/../test/Threads_CPP_API_test.hpp ****         printString("C: i="); printInt(i); printString("\n");
 2637              		.loc 3 104 5 is_stmt 1 discriminator 1
 2638 094c 9B841400 		addiw	s1,s1,1
 2639              	.LVL266:
 2640 0950 93F4F40F 		andi	s1,s1,0xff
 2641              	.LVL267:
 2642              	.L143:
 104:src/../test/Threads_CPP_API_test.hpp ****         printString("C: i="); printInt(i); printString("\n");
 2643              		.loc 3 104 5 discriminator 2
 104:src/../test/Threads_CPP_API_test.hpp ****         printString("C: i="); printInt(i); printString("\n");
 2644              		.loc 3 104 14 discriminator 2
 2645 0954 93075000 		li	a5,5
 2646 0958 E3F097FC 		bleu	s1,a5,.L146
 106:src/../test/Threads_CPP_API_test.hpp ****     }
 107:src/../test/Threads_CPP_API_test.hpp **** 
 108:src/../test/Threads_CPP_API_test.hpp ****     printString("A finished!\n");
 2647              		.loc 3 108 5
 2648              		.loc 3 108 16 is_stmt 0
 2649 095c 17050000 		lla	a0,.LC11
 2649      13050500 
 2650 0964 97000000 		call	_Z11printStringPKc@plt
 2650      E7800000 
 2651              	.LVL268:
 109:src/../test/Threads_CPP_API_test.hpp ****     finishedC = true;
 2652              		.loc 3 109 5 is_stmt 1
 2653              		.loc 3 109 15 is_stmt 0
 2654 096c 93071000 		li	a5,1
 2655 0970 17070000 		sb	a5,.LANCHOR0+26,a4
 2655      2300F700 
 110:src/../test/Threads_CPP_API_test.hpp ****     thread_dispatch();
 2656              		.loc 3 110 5 is_stmt 1
 2657              		.loc 3 110 20 is_stmt 0
 2658 0978 97000000 		call	_Z15thread_dispatchv@plt
 2658      E7800000 
 2659              	.LVL269:
 111:src/../test/Threads_CPP_API_test.hpp **** }
 2660              		.loc 3 111 1
 2661 0980 83308101 		ld	ra,24(sp)
 2662              		.cfi_restore 1
 2663 0984 03340101 		ld	s0,16(sp)
 2664              		.cfi_restore 8
 2665              		.cfi_def_cfa 2, 32
GAS LISTING /tmp/ccx9Uhqi.s 			page 63


 2666 0988 83348100 		ld	s1,8(sp)
 2667              		.cfi_restore 9
 2668              	.LVL270:
 2669 098c 03390100 		ld	s2,0(sp)
 2670              		.cfi_restore 18
 2671              	.LVL271:
 2672 0990 13010102 		addi	sp,sp,32
 2673              		.cfi_def_cfa_offset 0
 2674 0994 67800000 		jr	ra
 2675              		.cfi_endproc
 2676              	.LFE59:
 2678              		.section	.text._ZN7WorkerC3runEv,"axG",@progbits,_ZN7WorkerC3runEv,comdat
 2679              		.align	2
 2680              		.weak	_ZN7WorkerC3runEv
 2682              	_ZN7WorkerC3runEv:
 2683              	.LFB52:
  44:src/../test/Threads_CPP_API_test.hpp ****         workerBodyC(nullptr);
 2684              		.loc 3 44 10 is_stmt 1
 2685              		.cfi_startproc
 2686              	.LVL272:
 2687 0000 130101FF 		addi	sp,sp,-16
 2688              		.cfi_def_cfa_offset 16
 2689 0004 23341100 		sd	ra,8(sp)
 2690 0008 23308100 		sd	s0,0(sp)
 2691              		.cfi_offset 1, -8
 2692              		.cfi_offset 8, -16
 2693 000c 13040101 		addi	s0,sp,16
 2694              		.cfi_def_cfa 8, 0
  45:src/../test/Threads_CPP_API_test.hpp ****     }
 2695              		.loc 3 45 9
  45:src/../test/Threads_CPP_API_test.hpp ****     }
 2696              		.loc 3 45 20 is_stmt 0
 2697 0010 93050000 		li	a1,0
 2698 0014 97000000 		call	_ZN7WorkerC11workerBodyCEPv
 2698      E7800000 
 2699              	.LVL273:
  46:src/../test/Threads_CPP_API_test.hpp **** };
 2700              		.loc 3 46 5
 2701 001c 83308100 		ld	ra,8(sp)
 2702              		.cfi_restore 1
 2703 0020 03340100 		ld	s0,0(sp)
 2704              		.cfi_restore 8
 2705              		.cfi_def_cfa 2, 16
 2706 0024 13010101 		addi	sp,sp,16
 2707              		.cfi_def_cfa_offset 0
 2708 0028 67800000 		jr	ra
 2709              		.cfi_endproc
 2710              	.LFE52:
 2712              		.section	.rodata.str1.8
 2713 015d 000000   		.align	3
 2714              	.LC18:
 2715 0160 443A2069 		.string	"D: i="
 2715      3D00
 2716 0166 0000     		.align	3
 2717              	.LC19:
 2718 0168 443A2064 		.string	"D: dispatch\n"
 2718      69737061 
GAS LISTING /tmp/ccx9Uhqi.s 			page 64


 2718      7463680A 
 2718      00
 2719 0175 000000   		.align	3
 2720              	.LC20:
 2721 0178 443A2066 		.string	"D: fibonaci="
 2721      69626F6E 
 2721      6163693D 
 2721      00
 2722 0185 000000   		.align	3
 2723              	.LC21:
 2724 0188 44206669 		.string	"D finished!\n"
 2724      6E697368 
 2724      6564210A 
 2724      00
 2725              		.text
 2726              		.align	2
 2727              		.globl	_ZN7WorkerD11workerBodyDEPv
 2729              	_ZN7WorkerD11workerBodyDEPv:
 2730              	.LFB60:
 112:src/../test/Threads_CPP_API_test.hpp **** 
 113:src/../test/Threads_CPP_API_test.hpp **** void WorkerD::workerBodyD(void* arg) {
 2731              		.loc 3 113 38 is_stmt 1
 2732              		.cfi_startproc
 2733              	.LVL274:
 2734 0998 130101FE 		addi	sp,sp,-32
 2735              		.cfi_def_cfa_offset 32
 2736 099c 233C1100 		sd	ra,24(sp)
 2737 09a0 23388100 		sd	s0,16(sp)
 2738 09a4 23349100 		sd	s1,8(sp)
 2739 09a8 23302101 		sd	s2,0(sp)
 2740              		.cfi_offset 1, -8
 2741              		.cfi_offset 8, -16
 2742              		.cfi_offset 9, -24
 2743              		.cfi_offset 18, -32
 2744 09ac 13040102 		addi	s0,sp,32
 2745              		.cfi_def_cfa 8, 0
 114:src/../test/Threads_CPP_API_test.hpp ****     uint8 i = 10;
 2746              		.loc 3 114 5
 2747              	.LVL275:
 2748              		.loc 3 114 11 is_stmt 0
 2749 09b0 9304A000 		li	s1,10
 2750 09b4 6F000004 		j	.L151
 2751              	.LVL276:
 2752              	.L155:
 115:src/../test/Threads_CPP_API_test.hpp ****     for (; i < 13; i++) {
 116:src/../test/Threads_CPP_API_test.hpp ****         printString("D: i="); printInt(i); printString("\n");
 2753              		.loc 3 116 9 is_stmt 1 discriminator 1
 2754              		.loc 3 116 20 is_stmt 0 discriminator 1
 2755 09b8 17050000 		lla	a0,.LC18
 2755      13050500 
 2756 09c0 97000000 		call	_Z11printStringPKc@plt
 2756      E7800000 
 2757              	.LVL277:
 2758              		.loc 3 116 31 is_stmt 1 discriminator 1
 2759              		.loc 3 116 39 is_stmt 0 discriminator 1
 2760 09c8 13060000 		li	a2,0
 2761 09cc 9305A000 		li	a1,10
GAS LISTING /tmp/ccx9Uhqi.s 			page 65


 2762 09d0 13850400 		mv	a0,s1
 2763 09d4 97000000 		call	_Z8printIntiii@plt
 2763      E7800000 
 2764              	.LVL278:
 2765              		.loc 3 116 44 is_stmt 1 discriminator 1
 2766              		.loc 3 116 55 is_stmt 0 discriminator 1
 2767 09dc 17050000 		lla	a0,.LC10
 2767      13050500 
 2768 09e4 97000000 		call	_Z11printStringPKc@plt
 2768      E7800000 
 2769              	.LVL279:
 115:src/../test/Threads_CPP_API_test.hpp ****     for (; i < 13; i++) {
 2770              		.loc 3 115 5 is_stmt 1 discriminator 1
 2771 09ec 9B841400 		addiw	s1,s1,1
 2772              	.LVL280:
 2773 09f0 93F4F40F 		andi	s1,s1,0xff
 2774              	.LVL281:
 2775              	.L151:
 115:src/../test/Threads_CPP_API_test.hpp ****     for (; i < 13; i++) {
 2776              		.loc 3 115 5 discriminator 2
 115:src/../test/Threads_CPP_API_test.hpp ****     for (; i < 13; i++) {
 2777              		.loc 3 115 14 discriminator 2
 2778 09f4 9307C000 		li	a5,12
 2779 09f8 E3F097FC 		bleu	s1,a5,.L155
 117:src/../test/Threads_CPP_API_test.hpp ****     }
 118:src/../test/Threads_CPP_API_test.hpp **** 
 119:src/../test/Threads_CPP_API_test.hpp ****     printString("D: dispatch\n");
 2780              		.loc 3 119 5
 2781              		.loc 3 119 16 is_stmt 0
 2782 09fc 17050000 		lla	a0,.LC19
 2782      13050500 
 2783 0a04 97000000 		call	_Z11printStringPKc@plt
 2783      E7800000 
 2784              	.LVL282:
 120:src/../test/Threads_CPP_API_test.hpp ****     __asm__ ("li t1, 5");
 2785              		.loc 3 120 5 is_stmt 1
 2786              		.loc 3 120 25 is_stmt 0
 2787              	#APP
 2788              	# 120 "src/../test/Threads_CPP_API_test.hpp" 1
 121              	    thread_dispatch();
 2789              		li t1, 5
 2790              	# 0 "" 2
 2791              		.loc 3 121 5 is_stmt 1
 2792              		.loc 3 121 20 is_stmt 0
 2793              	#NO_APP
 2794 0a10 97000000 		call	_Z15thread_dispatchv@plt
 2794      E7800000 
 2795              	.LVL283:
 122:src/../test/Threads_CPP_API_test.hpp **** 
 123:src/../test/Threads_CPP_API_test.hpp ****     uint64 result = fibonacci(16);
 2796              		.loc 3 123 5 is_stmt 1
 2797              		.loc 3 123 30 is_stmt 0
 2798 0a18 13050001 		li	a0,16
 2799 0a1c 97000000 		call	_Z9fibonaccim
 2799      E7800000 
 2800              	.LVL284:
 2801 0a24 13090500 		mv	s2,a0
GAS LISTING /tmp/ccx9Uhqi.s 			page 66


 2802              	.LVL285:
 124:src/../test/Threads_CPP_API_test.hpp ****     printString("D: fibonaci="); printInt(result); printString("\n");
 2803              		.loc 3 124 5 is_stmt 1
 2804              		.loc 3 124 16 is_stmt 0
 2805 0a28 17050000 		lla	a0,.LC20
 2805      13050500 
 2806              	.LVL286:
 2807 0a30 97000000 		call	_Z11printStringPKc@plt
 2807      E7800000 
 2808              	.LVL287:
 2809              		.loc 3 124 34 is_stmt 1
 2810              		.loc 3 124 42 is_stmt 0
 2811 0a38 13060000 		li	a2,0
 2812 0a3c 9305A000 		li	a1,10
 2813 0a40 1B050900 		sext.w	a0,s2
 2814 0a44 97000000 		call	_Z8printIntiii@plt
 2814      E7800000 
 2815              	.LVL288:
 2816              		.loc 3 124 52 is_stmt 1
 2817              		.loc 3 124 63 is_stmt 0
 2818 0a4c 17050000 		lla	a0,.LC10
 2818      13050500 
 2819 0a54 97000000 		call	_Z11printStringPKc@plt
 2819      E7800000 
 2820              	.LVL289:
 2821 0a5c 6F000004 		j	.L153
 2822              	.L156:
 125:src/../test/Threads_CPP_API_test.hpp **** 
 126:src/../test/Threads_CPP_API_test.hpp ****     for (; i < 16; i++) {
 127:src/../test/Threads_CPP_API_test.hpp ****         printString("D: i="); printInt(i); printString("\n");
 2823              		.loc 3 127 9 is_stmt 1 discriminator 1
 2824              		.loc 3 127 20 is_stmt 0 discriminator 1
 2825 0a60 17050000 		lla	a0,.LC18
 2825      13050500 
 2826 0a68 97000000 		call	_Z11printStringPKc@plt
 2826      E7800000 
 2827              	.LVL290:
 2828              		.loc 3 127 31 is_stmt 1 discriminator 1
 2829              		.loc 3 127 39 is_stmt 0 discriminator 1
 2830 0a70 13060000 		li	a2,0
 2831 0a74 9305A000 		li	a1,10
 2832 0a78 13850400 		mv	a0,s1
 2833 0a7c 97000000 		call	_Z8printIntiii@plt
 2833      E7800000 
 2834              	.LVL291:
 2835              		.loc 3 127 44 is_stmt 1 discriminator 1
 2836              		.loc 3 127 55 is_stmt 0 discriminator 1
 2837 0a84 17050000 		lla	a0,.LC10
 2837      13050500 
 2838 0a8c 97000000 		call	_Z11printStringPKc@plt
 2838      E7800000 
 2839              	.LVL292:
 126:src/../test/Threads_CPP_API_test.hpp ****         printString("D: i="); printInt(i); printString("\n");
 2840              		.loc 3 126 5 is_stmt 1 discriminator 1
 2841 0a94 9B841400 		addiw	s1,s1,1
 2842              	.LVL293:
 2843 0a98 93F4F40F 		andi	s1,s1,0xff
GAS LISTING /tmp/ccx9Uhqi.s 			page 67


 2844              	.LVL294:
 2845              	.L153:
 126:src/../test/Threads_CPP_API_test.hpp ****         printString("D: i="); printInt(i); printString("\n");
 2846              		.loc 3 126 5 discriminator 2
 126:src/../test/Threads_CPP_API_test.hpp ****         printString("D: i="); printInt(i); printString("\n");
 2847              		.loc 3 126 14 discriminator 2
 2848 0a9c 9307F000 		li	a5,15
 2849 0aa0 E3F097FC 		bleu	s1,a5,.L156
 128:src/../test/Threads_CPP_API_test.hpp ****     }
 129:src/../test/Threads_CPP_API_test.hpp **** 
 130:src/../test/Threads_CPP_API_test.hpp ****     printString("D finished!\n");
 2850              		.loc 3 130 5
 2851              		.loc 3 130 16 is_stmt 0
 2852 0aa4 17050000 		lla	a0,.LC21
 2852      13050500 
 2853 0aac 97000000 		call	_Z11printStringPKc@plt
 2853      E7800000 
 2854              	.LVL295:
 131:src/../test/Threads_CPP_API_test.hpp ****     finishedD = true;
 2855              		.loc 3 131 5 is_stmt 1
 2856              		.loc 3 131 15 is_stmt 0
 2857 0ab4 93071000 		li	a5,1
 2858 0ab8 17070000 		sb	a5,.LANCHOR0+27,a4
 2858      2300F700 
 132:src/../test/Threads_CPP_API_test.hpp ****     thread_dispatch();
 2859              		.loc 3 132 5 is_stmt 1
 2860              		.loc 3 132 20 is_stmt 0
 2861 0ac0 97000000 		call	_Z15thread_dispatchv@plt
 2861      E7800000 
 2862              	.LVL296:
 133:src/../test/Threads_CPP_API_test.hpp **** }
 2863              		.loc 3 133 1
 2864 0ac8 83308101 		ld	ra,24(sp)
 2865              		.cfi_restore 1
 2866 0acc 03340101 		ld	s0,16(sp)
 2867              		.cfi_restore 8
 2868              		.cfi_def_cfa 2, 32
 2869 0ad0 83348100 		ld	s1,8(sp)
 2870              		.cfi_restore 9
 2871              	.LVL297:
 2872 0ad4 03390100 		ld	s2,0(sp)
 2873              		.cfi_restore 18
 2874              	.LVL298:
 2875 0ad8 13010102 		addi	sp,sp,32
 2876              		.cfi_def_cfa_offset 0
 2877 0adc 67800000 		jr	ra
 2878              		.cfi_endproc
 2879              	.LFE60:
 2881              		.section	.text._ZN7WorkerD3runEv,"axG",@progbits,_ZN7WorkerD3runEv,comdat
 2882              		.align	2
 2883              		.weak	_ZN7WorkerD3runEv
 2885              	_ZN7WorkerD3runEv:
 2886              	.LFB56:
  54:src/../test/Threads_CPP_API_test.hpp ****         workerBodyD(nullptr);
 2887              		.loc 3 54 10 is_stmt 1
 2888              		.cfi_startproc
 2889              	.LVL299:
GAS LISTING /tmp/ccx9Uhqi.s 			page 68


 2890 0000 130101FF 		addi	sp,sp,-16
 2891              		.cfi_def_cfa_offset 16
 2892 0004 23341100 		sd	ra,8(sp)
 2893 0008 23308100 		sd	s0,0(sp)
 2894              		.cfi_offset 1, -8
 2895              		.cfi_offset 8, -16
 2896 000c 13040101 		addi	s0,sp,16
 2897              		.cfi_def_cfa 8, 0
  55:src/../test/Threads_CPP_API_test.hpp ****     }
 2898              		.loc 3 55 9
  55:src/../test/Threads_CPP_API_test.hpp ****     }
 2899              		.loc 3 55 20 is_stmt 0
 2900 0010 93050000 		li	a1,0
 2901 0014 97000000 		call	_ZN7WorkerD11workerBodyDEPv
 2901      E7800000 
 2902              	.LVL300:
  56:src/../test/Threads_CPP_API_test.hpp **** };
 2903              		.loc 3 56 5
 2904 001c 83308100 		ld	ra,8(sp)
 2905              		.cfi_restore 1
 2906 0020 03340100 		ld	s0,0(sp)
 2907              		.cfi_restore 8
 2908              		.cfi_def_cfa 2, 16
 2909 0024 13010101 		addi	sp,sp,16
 2910              		.cfi_def_cfa_offset 0
 2911 0028 67800000 		jr	ra
 2912              		.cfi_endproc
 2913              	.LFE56:
 2915              		.section	.rodata.str1.8
 2916 0195 000000   		.align	3
 2917              	.LC22:
 2918 0198 54687265 		.string	"ThreadA created\n"
 2918      61644120 
 2918      63726561 
 2918      7465640A 
 2918      00
 2919 01a9 00000000 		.align	3
 2919      000000
 2920              	.LC23:
 2921 01b0 54687265 		.string	"ThreadB created\n"
 2921      61644220 
 2921      63726561 
 2921      7465640A 
 2921      00
 2922 01c1 00000000 		.align	3
 2922      000000
 2923              	.LC24:
 2924 01c8 54687265 		.string	"ThreadC created\n"
 2924      61644320 
 2924      63726561 
 2924      7465640A 
 2924      00
 2925 01d9 00000000 		.align	3
 2925      000000
 2926              	.LC25:
 2927 01e0 54687265 		.string	"ThreadD created\n"
 2927      61644420 
GAS LISTING /tmp/ccx9Uhqi.s 			page 69


 2927      63726561 
 2927      7465640A 
 2927      00
 2928              		.text
 2929              		.align	2
 2930              		.globl	_Z20Threads_CPP_API_testv
 2932              	_Z20Threads_CPP_API_testv:
 2933              	.LFB61:
 134:src/../test/Threads_CPP_API_test.hpp **** 
 135:src/../test/Threads_CPP_API_test.hpp **** 
 136:src/../test/Threads_CPP_API_test.hpp **** void Threads_CPP_API_test() {
 2934              		.loc 3 136 29 is_stmt 1
 2935              		.cfi_startproc
 2936              		.cfi_personality 0x9b,DW.ref.__gxx_personality_v0
 2937              		.cfi_lsda 0x1b,.LLSDA61
 2938 0ae0 130101FC 		addi	sp,sp,-64
 2939              		.cfi_def_cfa_offset 64
 2940 0ae4 233C1102 		sd	ra,56(sp)
 2941 0ae8 23388102 		sd	s0,48(sp)
 2942 0aec 23349102 		sd	s1,40(sp)
 2943 0af0 23302103 		sd	s2,32(sp)
 2944              		.cfi_offset 1, -8
 2945              		.cfi_offset 8, -16
 2946              		.cfi_offset 9, -24
 2947              		.cfi_offset 18, -32
 2948 0af4 13040104 		addi	s0,sp,64
 2949              		.cfi_def_cfa 8, 0
 137:src/../test/Threads_CPP_API_test.hpp ****     Thread* threads[4];
 2950              		.loc 3 137 5
 138:src/../test/Threads_CPP_API_test.hpp **** 
 139:src/../test/Threads_CPP_API_test.hpp ****     threads[0] = new WorkerA();
 2951              		.loc 3 139 5
 2952              		.loc 3 139 30 is_stmt 0
 2953 0af8 13050001 		li	a0,16
 2954              	.LEHB16:
 2955 0afc 97000000 		call	_Znwm@plt
 2955      E7800000 
 2956              	.LVL301:
 2957              	.LEHE16:
 2958 0b04 93040500 		mv	s1,a0
 2959              	.LVL302:
 2960              	.LEHB17:
 2961              	.LBB146:
 2962              	.LBB147:
  22:src/../test/Threads_CPP_API_test.hpp **** 
 2963              		.loc 3 22 22
 2964 0b08 97000000 		call	_ZN6ThreadC2Ev@plt
 2964      E7800000 
 2965              	.LVL303:
 2966              	.LEHE17:
 2967 0b10 97070000 		lla	a5,_ZTV7WorkerA+16
 2967      93870700 
 2968 0b18 23B0F400 		sd	a5,0(s1)
 2969              	.LVL304:
 2970              	.LBE147:
 2971              	.LBE146:
 2972              		.loc 3 139 16
GAS LISTING /tmp/ccx9Uhqi.s 			page 70


 2973 0b1c 233094FC 		sd	s1,-64(s0)
 140:src/../test/Threads_CPP_API_test.hpp ****     printString("ThreadA created\n");
 2974              		.loc 3 140 5 is_stmt 1
 2975              		.loc 3 140 16 is_stmt 0
 2976 0b20 17050000 		lla	a0,.LC22
 2976      13050500 
 2977              	.LEHB18:
 2978 0b28 97000000 		call	_Z11printStringPKc@plt
 2978      E7800000 
 2979              	.LVL305:
 141:src/../test/Threads_CPP_API_test.hpp **** 
 142:src/../test/Threads_CPP_API_test.hpp ****     threads[1] = new WorkerB();
 2980              		.loc 3 142 5 is_stmt 1
 2981              		.loc 3 142 30 is_stmt 0
 2982 0b30 13050001 		li	a0,16
 2983 0b34 97000000 		call	_Znwm@plt
 2983      E7800000 
 2984              	.LVL306:
 2985              	.LEHE18:
 2986 0b3c 93040500 		mv	s1,a0
 2987              	.LVL307:
 2988              	.LEHB19:
 2989              	.LBB148:
 2990              	.LBB149:
  32:src/../test/Threads_CPP_API_test.hpp **** 
 2991              		.loc 3 32 22
 2992 0b40 97000000 		call	_ZN6ThreadC2Ev@plt
 2992      E7800000 
 2993              	.LVL308:
 2994              	.LEHE19:
 2995 0b48 97070000 		lla	a5,_ZTV7WorkerB+16
 2995      93870700 
 2996 0b50 23B0F400 		sd	a5,0(s1)
 2997              	.LVL309:
 2998              	.LBE149:
 2999              	.LBE148:
 3000              		.loc 3 142 16
 3001 0b54 233494FC 		sd	s1,-56(s0)
 143:src/../test/Threads_CPP_API_test.hpp ****     printString("ThreadB created\n");
 3002              		.loc 3 143 5 is_stmt 1
 3003              		.loc 3 143 16 is_stmt 0
 3004 0b58 17050000 		lla	a0,.LC23
 3004      13050500 
 3005              	.LEHB20:
 3006 0b60 97000000 		call	_Z11printStringPKc@plt
 3006      E7800000 
 3007              	.LVL310:
 144:src/../test/Threads_CPP_API_test.hpp **** 
 145:src/../test/Threads_CPP_API_test.hpp ****     threads[2] = new WorkerC();
 3008              		.loc 3 145 5 is_stmt 1
 3009              		.loc 3 145 30 is_stmt 0
 3010 0b68 13050001 		li	a0,16
 3011 0b6c 97000000 		call	_Znwm@plt
 3011      E7800000 
 3012              	.LVL311:
 3013              	.LEHE20:
 3014 0b74 93040500 		mv	s1,a0
GAS LISTING /tmp/ccx9Uhqi.s 			page 71


 3015              	.LVL312:
 3016              	.LEHB21:
 3017              	.LBB150:
 3018              	.LBB151:
  42:src/../test/Threads_CPP_API_test.hpp **** 
 3019              		.loc 3 42 22
 3020 0b78 97000000 		call	_ZN6ThreadC2Ev@plt
 3020      E7800000 
 3021              	.LVL313:
 3022              	.LEHE21:
 3023 0b80 97070000 		lla	a5,_ZTV7WorkerC+16
 3023      93870700 
 3024 0b88 23B0F400 		sd	a5,0(s1)
 3025              	.LVL314:
 3026              	.LBE151:
 3027              	.LBE150:
 3028              		.loc 3 145 16
 3029 0b8c 233894FC 		sd	s1,-48(s0)
 146:src/../test/Threads_CPP_API_test.hpp ****     printString("ThreadC created\n");
 3030              		.loc 3 146 5 is_stmt 1
 3031              		.loc 3 146 16 is_stmt 0
 3032 0b90 17050000 		lla	a0,.LC24
 3032      13050500 
 3033              	.LEHB22:
 3034 0b98 97000000 		call	_Z11printStringPKc@plt
 3034      E7800000 
 3035              	.LVL315:
 147:src/../test/Threads_CPP_API_test.hpp **** 
 148:src/../test/Threads_CPP_API_test.hpp ****     threads[3] = new WorkerD();
 3036              		.loc 3 148 5 is_stmt 1
 3037              		.loc 3 148 30 is_stmt 0
 3038 0ba0 13050001 		li	a0,16
 3039 0ba4 97000000 		call	_Znwm@plt
 3039      E7800000 
 3040              	.LVL316:
 3041              	.LEHE22:
 3042 0bac 93040500 		mv	s1,a0
 3043              	.LVL317:
 3044              	.LEHB23:
 3045              	.LBB152:
 3046              	.LBB153:
  52:src/../test/Threads_CPP_API_test.hpp **** 
 3047              		.loc 3 52 22
 3048 0bb0 97000000 		call	_ZN6ThreadC2Ev@plt
 3048      E7800000 
 3049              	.LVL318:
 3050              	.LEHE23:
 3051 0bb8 97070000 		lla	a5,_ZTV7WorkerD+16
 3051      93870700 
 3052 0bc0 23B0F400 		sd	a5,0(s1)
 3053              	.LVL319:
 3054              	.LBE153:
 3055              	.LBE152:
 3056              		.loc 3 148 16
 3057 0bc4 233C94FC 		sd	s1,-40(s0)
 149:src/../test/Threads_CPP_API_test.hpp ****     printString("ThreadD created\n");
 3058              		.loc 3 149 5 is_stmt 1
GAS LISTING /tmp/ccx9Uhqi.s 			page 72


 3059              		.loc 3 149 16 is_stmt 0
 3060 0bc8 17050000 		lla	a0,.LC25
 3060      13050500 
 3061              	.LEHB24:
 3062 0bd0 97000000 		call	_Z11printStringPKc@plt
 3062      E7800000 
 3063              	.LVL320:
 3064              	.LBB154:
 150:src/../test/Threads_CPP_API_test.hpp **** 
 151:src/../test/Threads_CPP_API_test.hpp ****     for(int i=0; i<4; i++) {
 3065              		.loc 3 151 13
 3066 0bd8 93040000 		li	s1,0
 3067              	.L161:
 3068              	.LVL321:
 3069              		.loc 3 151 19 is_stmt 1 discriminator 1
 3070 0bdc 93073000 		li	a5,3
 3071 0be0 63C69702 		bgt	s1,a5,.L160
 152:src/../test/Threads_CPP_API_test.hpp ****         threads[i]->start();
 3072              		.loc 3 152 9
 3073              		.loc 3 152 18 is_stmt 0
 3074 0be4 93973400 		slli	a5,s1,3
 3075 0be8 130704FE 		addi	a4,s0,-32
 3076 0bec B307F700 		add	a5,a4,a5
 3077              		.loc 3 152 26
 3078 0bf0 03B507FE 		ld	a0,-32(a5)
 3079 0bf4 97000000 		call	_ZN6Thread5startEv@plt
 3079      E7800000 
 3080              	.LVL322:
 151:src/../test/Threads_CPP_API_test.hpp ****         threads[i]->start();
 3081              		.loc 3 151 5 is_stmt 1
 3082 0bfc 9B841400 		addiw	s1,s1,1
 3083              	.LVL323:
 3084 0c00 6FF0DFFD 		j	.L161
 3085              	.LVL324:
 3086              	.L162:
 3087              	.LBE154:
 153:src/../test/Threads_CPP_API_test.hpp ****     }
 154:src/../test/Threads_CPP_API_test.hpp **** 
 155:src/../test/Threads_CPP_API_test.hpp ****     while (!(finishedA && finishedB && finishedC && finishedD)) {
 156:src/../test/Threads_CPP_API_test.hpp ****         Thread::dispatch();
 3088              		.loc 3 156 9
 3089              		.loc 3 156 25 is_stmt 0
 3090 0c04 97000000 		call	_ZN6Thread8dispatchEv@plt
 3090      E7800000 
 3091              	.LVL325:
 3092              	.LEHE24:
 3093              	.L160:
 155:src/../test/Threads_CPP_API_test.hpp ****         Thread::dispatch();
 3094              		.loc 3 155 5 is_stmt 1
 155:src/../test/Threads_CPP_API_test.hpp ****         Thread::dispatch();
 3095              		.loc 3 155 12
 3096 0c0c 97070000 		lbu	a5,.LANCHOR0+24
 3096      83C70700 
 3097 0c14 E38807FE 		beqz	a5,.L162
 155:src/../test/Threads_CPP_API_test.hpp ****         Thread::dispatch();
 3098              		.loc 3 155 24 is_stmt 0 discriminator 1
 3099 0c18 97070000 		lbu	a5,.LANCHOR0+25
GAS LISTING /tmp/ccx9Uhqi.s 			page 73


 3099      83C70700 
 3100 0c20 E38207FE 		beqz	a5,.L162
 155:src/../test/Threads_CPP_API_test.hpp ****         Thread::dispatch();
 3101              		.loc 3 155 37 discriminator 2
 3102 0c24 97070000 		lbu	a5,.LANCHOR0+26
 3102      83C70700 
 3103 0c2c E38C07FC 		beqz	a5,.L162
 155:src/../test/Threads_CPP_API_test.hpp ****         Thread::dispatch();
 3104              		.loc 3 155 12 discriminator 3
 3105 0c30 97070000 		lbu	a5,.LANCHOR0+27
 3105      83C70700 
 3106 0c38 E38607FC 		beqz	a5,.L162
 3107              	.LBB155:
 157:src/../test/Threads_CPP_API_test.hpp ****     }
 158:src/../test/Threads_CPP_API_test.hpp **** 
 159:src/../test/Threads_CPP_API_test.hpp ****     for (auto thread: threads) { delete thread; }
 3108              		.loc 3 159 23
 3109 0c3c 930404FC 		addi	s1,s0,-64
 3110              	.LVL326:
 3111 0c40 6F008000 		j	.L163
 3112              	.LVL327:
 3113              	.L165:
 3114              		.loc 3 159 5 is_stmt 1 discriminator 5
 3115 0c44 93848400 		addi	s1,s1,8
 3116              	.LVL328:
 3117              	.L163:
 3118              		.loc 3 159 23 discriminator 6
 3119 0c48 930704FE 		addi	a5,s0,-32
 3120 0c4c 6386F408 		beq	s1,a5,.L159
 3121              		.loc 3 159 15 is_stmt 0 discriminator 2
 3122 0c50 03B50400 		ld	a0,0(s1)
 3123              	.LVL329:
 3124              		.loc 3 159 34 is_stmt 1 discriminator 2
 3125              		.loc 3 159 47 is_stmt 0 discriminator 2
 3126 0c54 E30805FE 		beqz	a0,.L165
 3127              		.loc 3 159 41 discriminator 3
 3128 0c58 83370500 		ld	a5,0(a0)
 3129 0c5c 83B78700 		ld	a5,8(a5)
 3130 0c60 E7800700 		jalr	a5
 3131              	.LVL330:
 3132 0c64 6FF01FFE 		j	.L165
 3133              	.LVL331:
 3134              	.L171:
 3135 0c68 13090500 		mv	s2,a0
 3136              	.LBE155:
 139:src/../test/Threads_CPP_API_test.hpp ****     printString("ThreadA created\n");
 3137              		.loc 3 139 30
 3138 0c6c 13850400 		mv	a0,s1
 3139 0c70 97000000 		call	_ZdlPv@plt
 3139      E7800000 
 3140              	.LVL332:
 3141 0c78 13050900 		mv	a0,s2
 3142              	.LEHB25:
 3143 0c7c 97000000 		call	_Unwind_Resume@plt
 3143      E7800000 
 3144              	.LVL333:
 3145              	.LEHE25:
GAS LISTING /tmp/ccx9Uhqi.s 			page 74


 3146              	.L172:
 3147 0c84 13090500 		mv	s2,a0
 142:src/../test/Threads_CPP_API_test.hpp ****     printString("ThreadB created\n");
 3148              		.loc 3 142 30
 3149 0c88 13850400 		mv	a0,s1
 3150 0c8c 97000000 		call	_ZdlPv@plt
 3150      E7800000 
 3151              	.LVL334:
 3152 0c94 13050900 		mv	a0,s2
 3153              	.LEHB26:
 3154 0c98 97000000 		call	_Unwind_Resume@plt
 3154      E7800000 
 3155              	.LVL335:
 3156              	.LEHE26:
 3157              	.L173:
 3158 0ca0 13090500 		mv	s2,a0
 145:src/../test/Threads_CPP_API_test.hpp ****     printString("ThreadC created\n");
 3159              		.loc 3 145 30
 3160 0ca4 13850400 		mv	a0,s1
 3161 0ca8 97000000 		call	_ZdlPv@plt
 3161      E7800000 
 3162              	.LVL336:
 3163 0cb0 13050900 		mv	a0,s2
 3164              	.LEHB27:
 3165 0cb4 97000000 		call	_Unwind_Resume@plt
 3165      E7800000 
 3166              	.LVL337:
 3167              	.LEHE27:
 3168              	.L174:
 3169 0cbc 13090500 		mv	s2,a0
 148:src/../test/Threads_CPP_API_test.hpp ****     printString("ThreadD created\n");
 3170              		.loc 3 148 30
 3171 0cc0 13850400 		mv	a0,s1
 3172 0cc4 97000000 		call	_ZdlPv@plt
 3172      E7800000 
 3173              	.LVL338:
 3174 0ccc 13050900 		mv	a0,s2
 3175              	.LEHB28:
 3176 0cd0 97000000 		call	_Unwind_Resume@plt
 3176      E7800000 
 3177              	.LVL339:
 3178              	.LEHE28:
 3179              	.L159:
 160:src/../test/Threads_CPP_API_test.hpp **** }
 3180              		.loc 3 160 1
 3181 0cd8 83308103 		ld	ra,56(sp)
 3182              		.cfi_restore 1
 3183 0cdc 03340103 		ld	s0,48(sp)
 3184              		.cfi_restore 8
 3185              		.cfi_def_cfa 2, 64
 3186 0ce0 83348102 		ld	s1,40(sp)
 3187              		.cfi_restore 9
 3188              	.LVL340:
 3189 0ce4 03390102 		ld	s2,32(sp)
 3190              		.cfi_restore 18
 3191 0ce8 13010104 		addi	sp,sp,64
 3192              		.cfi_def_cfa_offset 0
GAS LISTING /tmp/ccx9Uhqi.s 			page 75


 3193 0cec 67800000 		jr	ra
 3194              		.cfi_endproc
 3195              	.LFE61:
 3196              		.section	.gcc_except_table
 3197              	.LLSDA61:
 3198 00d5 FF       		.byte	0xff
 3199 00d6 FF       		.byte	0xff
 3200 00d7 03       		.byte	0x3
 3201 00d8 A901     		.byte	0xa9,0x1
 3202 00da 00000000 		.4byte	.LEHB16-.LFB61
 3203 00de 00000000 		.4byte	.LEHE16-.LEHB16
 3204 00e2 00000000 		.4byte	0
 3205 00e6 00       		.byte	0
 3206 00e7 00000000 		.4byte	.LEHB17-.LFB61
 3207 00eb 00000000 		.4byte	.LEHE17-.LEHB17
 3208 00ef 00000000 		.4byte	.L171-.LFB61
 3209 00f3 00       		.byte	0
 3210 00f4 00000000 		.4byte	.LEHB18-.LFB61
 3211 00f8 00000000 		.4byte	.LEHE18-.LEHB18
 3212 00fc 00000000 		.4byte	0
 3213 0100 00       		.byte	0
 3214 0101 00000000 		.4byte	.LEHB19-.LFB61
 3215 0105 00000000 		.4byte	.LEHE19-.LEHB19
 3216 0109 00000000 		.4byte	.L172-.LFB61
 3217 010d 00       		.byte	0
 3218 010e 00000000 		.4byte	.LEHB20-.LFB61
 3219 0112 00000000 		.4byte	.LEHE20-.LEHB20
 3220 0116 00000000 		.4byte	0
 3221 011a 00       		.byte	0
 3222 011b 00000000 		.4byte	.LEHB21-.LFB61
 3223 011f 00000000 		.4byte	.LEHE21-.LEHB21
 3224 0123 00000000 		.4byte	.L173-.LFB61
 3225 0127 00       		.byte	0
 3226 0128 00000000 		.4byte	.LEHB22-.LFB61
 3227 012c 00000000 		.4byte	.LEHE22-.LEHB22
 3228 0130 00000000 		.4byte	0
 3229 0134 00       		.byte	0
 3230 0135 00000000 		.4byte	.LEHB23-.LFB61
 3231 0139 00000000 		.4byte	.LEHE23-.LEHB23
 3232 013d 00000000 		.4byte	.L174-.LFB61
 3233 0141 00       		.byte	0
 3234 0142 00000000 		.4byte	.LEHB24-.LFB61
 3235 0146 00000000 		.4byte	.LEHE24-.LEHB24
 3236 014a 00000000 		.4byte	0
 3237 014e 00       		.byte	0
 3238 014f 00000000 		.4byte	.LEHB25-.LFB61
 3239 0153 00000000 		.4byte	.LEHE25-.LEHB25
 3240 0157 00000000 		.4byte	0
 3241 015b 00       		.byte	0
 3242 015c 00000000 		.4byte	.LEHB26-.LFB61
 3243 0160 00000000 		.4byte	.LEHE26-.LEHB26
 3244 0164 00000000 		.4byte	0
 3245 0168 00       		.byte	0
 3246 0169 00000000 		.4byte	.LEHB27-.LFB61
 3247 016d 00000000 		.4byte	.LEHE27-.LEHB27
 3248 0171 00000000 		.4byte	0
 3249 0175 00       		.byte	0
GAS LISTING /tmp/ccx9Uhqi.s 			page 76


 3250 0176 00000000 		.4byte	.LEHB28-.LFB61
 3251 017a 00000000 		.4byte	.LEHE28-.LEHB28
 3252 017e 00000000 		.4byte	0
 3253 0182 00       		.byte	0
 3254              		.text
 3256              		.align	2
 3257              		.globl	main
 3259              	main:
 3260              	.LFB71:
  40:src/main.cpp  ****     asm volatile("csrw stvec, %0": : "r"(&interruptvec));
 3261              		.loc 4 40 11 is_stmt 1
 3262              		.cfi_startproc
 3263              		.cfi_personality 0x9b,DW.ref.__gxx_personality_v0
 3264              		.cfi_lsda 0x1b,.LLSDA71
 3265 0cf0 130101FC 		addi	sp,sp,-64
 3266              		.cfi_def_cfa_offset 64
 3267 0cf4 233C1102 		sd	ra,56(sp)
 3268 0cf8 23388102 		sd	s0,48(sp)
 3269 0cfc 23349102 		sd	s1,40(sp)
 3270 0d00 23302103 		sd	s2,32(sp)
 3271 0d04 233C3101 		sd	s3,24(sp)
 3272 0d08 23384101 		sd	s4,16(sp)
 3273 0d0c 23345101 		sd	s5,8(sp)
 3274              		.cfi_offset 1, -8
 3275              		.cfi_offset 8, -16
 3276              		.cfi_offset 9, -24
 3277              		.cfi_offset 18, -32
 3278              		.cfi_offset 19, -40
 3279              		.cfi_offset 20, -48
 3280              		.cfi_offset 21, -56
 3281 0d10 13040104 		addi	s0,sp,64
 3282              		.cfi_def_cfa 8, 0
  41:src/main.cpp  **** 
 3283              		.loc 4 41 5
  41:src/main.cpp  **** 
 3284              		.loc 4 41 57 is_stmt 0
 3285 0d14 97070000 		la	a5,interruptvec
 3285      83B70700 
 3286              	#APP
 3287              	# 41 "src/main.cpp" 1
  43:src/main.cpp  ****     CThread::running=CThread::main;
 3288              		csrw stvec, a5
 3289              	# 0 "" 2
 3290              		.loc 4 43 5 is_stmt 1
 3291              	.LVL341:
 3292              	#NO_APP
 3293              	.LBB156:
 3294              	.LBB157:
 3295              		.file 7 "src/../h/../h/CThread.h"
   1:src/../h/../h/CThread.h **** //
   2:src/../h/../h/CThread.h **** // Created by os on 6/21/22.
   3:src/../h/../h/CThread.h **** //
   4:src/../h/../h/CThread.h **** 
   5:src/../h/../h/CThread.h **** #ifndef PROJECT_BASE_V1_1_THREAD_H
   6:src/../h/../h/CThread.h **** #define PROJECT_BASE_V1_1_THREAD_H
   7:src/../h/../h/CThread.h **** 
   8:src/../h/../h/CThread.h **** 
GAS LISTING /tmp/ccx9Uhqi.s 			page 77


   9:src/../h/../h/CThread.h **** #include "../lib/hw.h"
  10:src/../h/../h/CThread.h **** #include "MemoryAllocator.h"
  11:src/../h/../h/CThread.h **** #include "Scheduler.h"
  12:src/../h/../h/CThread.h **** #include "../h/new.h"
  13:src/../h/../h/CThread.h **** 
  14:src/../h/../h/CThread.h **** 
  15:src/../h/../h/CThread.h **** class CThread {
  16:src/../h/../h/CThread.h **** public:
  17:src/../h/../h/CThread.h ****     using Body = void(*)(void*);
  18:src/../h/../h/CThread.h ****     overrideNew;
 3296              		.loc 7 18 5
 3297              		.loc 7 18 5
 3298              		.loc 7 18 5
 3299              		.loc 7 18 5
 3300              	.LEHB29:
 3301 0d20 97000000 		call	_ZN15MemoryAllocator11getInstanceEv@plt
 3301      E7800000 
 3302              	.LVL342:
 3303 0d28 93050004 		li	a1,64
 3304 0d2c 97000000 		call	_ZN15MemoryAllocator8allocateEm@plt
 3304      E7800000 
 3305              	.LVL343:
 3306              	.LEHE29:
 3307 0d34 93040500 		mv	s1,a0
 3308              	.LVL344:
 3309              	.LEHB30:
 3310              	.LBE157:
 3311              	.LBE156:
  43:src/main.cpp  ****     CThread::running=CThread::main;
 3312              		.loc 4 43 23 is_stmt 0
 3313 0d38 97000000 		call	_ZN7CThreadC1Ev@plt
 3313      E7800000 
 3314              	.LVL345:
 3315              	.LEHE30:
  43:src/main.cpp  ****     CThread::running=CThread::main;
 3316              		.loc 4 43 18 discriminator 2
 3317 0d40 97070000 		la	a5,_ZN7CThread4mainE
 3317      83B70700 
 3318 0d48 23B09700 		sd	s1,0(a5)
  44:src/main.cpp  ****     PutBuffer::putBuffer= new PutBuffer(1024);
 3319              		.loc 4 44 5 is_stmt 1 discriminator 2
  44:src/main.cpp  ****     PutBuffer::putBuffer= new PutBuffer(1024);
 3320              		.loc 4 44 21 is_stmt 0 discriminator 2
 3321 0d4c 97070000 		la	a5,_ZN7CThread7runningE
 3321      83B70700 
 3322 0d54 23B09700 		sd	s1,0(a5)
  45:src/main.cpp  ****     GetBuffer::getBuffer= new GetBuffer(1024);
 3323              		.loc 4 45 5 is_stmt 1 discriminator 2
 3324              	.LVL346:
 3325              	.LBB158:
 3326              	.LBB159:
 3327              		.file 8 "src/../h/PutBuffer.h"
   1:src/../h/PutBuffer.h **** //
   2:src/../h/PutBuffer.h **** // Created by os on 6/30/22.
   3:src/../h/PutBuffer.h **** //
   4:src/../h/PutBuffer.h **** 
   5:src/../h/PutBuffer.h **** #ifndef SEM_TH_EXIT_PUTBUFFER_H
GAS LISTING /tmp/ccx9Uhqi.s 			page 78


   6:src/../h/PutBuffer.h **** #define SEM_TH_EXIT_PUTBUFFER_H
   7:src/../h/PutBuffer.h **** 
   8:src/../h/PutBuffer.h **** #include "new.h"
   9:src/../h/PutBuffer.h **** #include "CSemaphore.h"
  10:src/../h/PutBuffer.h **** #include "syscall_c.h"
  11:src/../h/PutBuffer.h **** 
  12:src/../h/PutBuffer.h **** class PutBuffer {
  13:src/../h/PutBuffer.h **** private:
  14:src/../h/PutBuffer.h ****         int cap;
  15:src/../h/PutBuffer.h ****         char *buffer;
  16:src/../h/PutBuffer.h ****         int head, tail;
  17:src/../h/PutBuffer.h ****         int item;
  18:src/../h/PutBuffer.h ****         CSemaphore* spaceAvailable;
  19:src/../h/PutBuffer.h **** 
  20:src/../h/PutBuffer.h **** public:
  21:src/../h/PutBuffer.h ****         static PutBuffer* putBuffer;
  22:src/../h/PutBuffer.h ****         overrideArrNew;
  23:src/../h/PutBuffer.h ****         overrideNew;
 3328              		.loc 8 23 9 discriminator 2
 3329              		.loc 8 23 9 discriminator 2
 3330              		.loc 8 23 9 discriminator 2
 3331              		.loc 8 23 9 discriminator 2
 3332              		.loc 8 23 9 discriminator 2
 3333              	.LEHB31:
 3334 0d58 97000000 		call	_ZN15MemoryAllocator11getInstanceEv@plt
 3334      E7800000 
 3335              	.LVL347:
 3336 0d60 93050004 		li	a1,64
 3337 0d64 97000000 		call	_ZN15MemoryAllocator8allocateEm@plt
 3337      E7800000 
 3338              	.LVL348:
 3339              	.LEHE31:
 3340 0d6c 93040500 		mv	s1,a0
 3341              	.LVL349:
 3342              	.LBE159:
 3343              	.LBE158:
  45:src/main.cpp  ****     GetBuffer::getBuffer= new GetBuffer(1024);
 3344              		.loc 4 45 45 is_stmt 0 discriminator 2
 3345 0d70 93050040 		li	a1,1024
 3346              	.LEHB32:
 3347 0d74 97000000 		call	_ZN9PutBufferC1Ei@plt
 3347      E7800000 
 3348              	.LVL350:
 3349              	.LEHE32:
  45:src/main.cpp  ****     GetBuffer::getBuffer= new GetBuffer(1024);
 3350              		.loc 4 45 25 discriminator 2
 3351 0d7c 97070000 		la	a5,_ZN9PutBuffer9putBufferE
 3351      83B70700 
 3352 0d84 23B09700 		sd	s1,0(a5)
  46:src/main.cpp  ****     thread_create(&CThread::idle, &idleFun, nullptr);
 3353              		.loc 4 46 5 is_stmt 1 discriminator 2
 3354              	.LVL351:
 3355              	.LBB160:
 3356              	.LBB161:
 3357              		.file 9 "src/../h/GetBuffer.h"
   1:src/../h/GetBuffer.h **** //
   2:src/../h/GetBuffer.h **** // Created by os on 6/30/22.
GAS LISTING /tmp/ccx9Uhqi.s 			page 79


   3:src/../h/GetBuffer.h **** //
   4:src/../h/GetBuffer.h **** 
   5:src/../h/GetBuffer.h **** #ifndef SEM_TH_EXIT_GETBUFFER_H
   6:src/../h/GetBuffer.h **** #define SEM_TH_EXIT_GETBUFFER_H
   7:src/../h/GetBuffer.h **** #include "new.h"
   8:src/../h/GetBuffer.h **** #include "CSemaphore.h"
   9:src/../h/GetBuffer.h **** #include "syscall_c.h"
  10:src/../h/GetBuffer.h **** 
  11:src/../h/GetBuffer.h **** class GetBuffer {
  12:src/../h/GetBuffer.h **** 
  13:src/../h/GetBuffer.h **** private:
  14:src/../h/GetBuffer.h ****     int cap;
  15:src/../h/GetBuffer.h ****     char *buffer;
  16:src/../h/GetBuffer.h ****     int head, tail;
  17:src/../h/GetBuffer.h ****     int space;
  18:src/../h/GetBuffer.h ****     CSemaphore* itemAvailable;
  19:src/../h/GetBuffer.h **** 
  20:src/../h/GetBuffer.h **** public:
  21:src/../h/GetBuffer.h ****     static GetBuffer* getBuffer;
  22:src/../h/GetBuffer.h ****     overrideArrNew;
  23:src/../h/GetBuffer.h ****     overrideNew;
 3358              		.loc 9 23 5 discriminator 2
 3359              		.loc 9 23 5 discriminator 2
 3360              		.loc 9 23 5 discriminator 2
 3361              		.loc 9 23 5 discriminator 2
 3362              		.loc 9 23 5 discriminator 2
 3363              	.LEHB33:
 3364 0d88 97000000 		call	_ZN15MemoryAllocator11getInstanceEv@plt
 3364      E7800000 
 3365              	.LVL352:
 3366 0d90 93050004 		li	a1,64
 3367 0d94 97000000 		call	_ZN15MemoryAllocator8allocateEm@plt
 3367      E7800000 
 3368              	.LVL353:
 3369              	.LEHE33:
 3370 0d9c 93040500 		mv	s1,a0
 3371              	.LVL354:
 3372              	.LBE161:
 3373              	.LBE160:
  46:src/main.cpp  ****     thread_create(&CThread::idle, &idleFun, nullptr);
 3374              		.loc 4 46 45 is_stmt 0 discriminator 2
 3375 0da0 93050040 		li	a1,1024
 3376              	.LEHB34:
 3377 0da4 97000000 		call	_ZN9GetBufferC1Ei@plt
 3377      E7800000 
 3378              	.LVL355:
 3379              	.LEHE34:
  46:src/main.cpp  ****     thread_create(&CThread::idle, &idleFun, nullptr);
 3380              		.loc 4 46 25 discriminator 2
 3381 0dac 97070000 		la	a5,_ZN9GetBuffer9getBufferE
 3381      83B70700 
 3382 0db4 23B09700 		sd	s1,0(a5)
  47:src/main.cpp  ****     user();
 3383              		.loc 4 47 5 is_stmt 1 discriminator 2
  47:src/main.cpp  ****     user();
 3384              		.loc 4 47 18 is_stmt 0 discriminator 2
 3385 0db8 13060000 		li	a2,0
GAS LISTING /tmp/ccx9Uhqi.s 			page 80


 3386 0dbc 97050000 		lla	a1,_Z7idleFunPv
 3386      93850500 
 3387 0dc4 17050000 		la	a0,_ZN7CThread4idleE
 3387      03350500 
 3388              	.LEHB35:
 3389 0dcc 97000000 		call	_Z13thread_createPP7CThreadPFvPvES2_@plt
 3389      E7800000 
 3390              	.LVL356:
  48:src/main.cpp  **** 
 3391              		.loc 4 48 5 is_stmt 1 discriminator 2
  48:src/main.cpp  **** 
 3392              		.loc 4 48 9 is_stmt 0 discriminator 2
 3393 0dd4 97000000 		call	_Z4userv@plt
 3393      E7800000 
 3394              	.LVL357:
  57:src/main.cpp  ****     Thread* B = new Thread(&funB, nullptr);
 3395              		.loc 4 57 5 is_stmt 1 discriminator 2
  57:src/main.cpp  ****     Thread* B = new Thread(&funB, nullptr);
 3396              		.loc 4 57 42 is_stmt 0 discriminator 2
 3397 0ddc 13050001 		li	a0,16
 3398 0de0 97000000 		call	_Znwm@plt
 3398      E7800000 
 3399              	.LVL358:
 3400              	.LEHE35:
 3401 0de8 930A0500 		mv	s5,a0
 3402 0dec 13060000 		li	a2,0
 3403 0df0 97050000 		lla	a1,_Z4funAPv
 3403      93850500 
 3404              	.LEHB36:
 3405 0df8 97000000 		call	_ZN6ThreadC1EPFvPvES0_@plt
 3405      E7800000 
 3406              	.LVL359:
 3407              	.LEHE36:
  58:src/main.cpp  ****     PeriodicThread* C = new MojPeriodic(5, 'C');
 3408              		.loc 4 58 5 is_stmt 1 discriminator 2
  58:src/main.cpp  ****     PeriodicThread* C = new MojPeriodic(5, 'C');
 3409              		.loc 4 58 42 is_stmt 0 discriminator 2
 3410 0e00 13050001 		li	a0,16
 3411              	.LEHB37:
 3412 0e04 97000000 		call	_Znwm@plt
 3412      E7800000 
 3413              	.LVL360:
 3414              	.LEHE37:
 3415 0e0c 130A0500 		mv	s4,a0
 3416 0e10 13060000 		li	a2,0
 3417 0e14 97050000 		lla	a1,_Z4funBPv
 3417      93850500 
 3418              	.LEHB38:
 3419 0e1c 97000000 		call	_ZN6ThreadC1EPFvPvES0_@plt
 3419      E7800000 
 3420              	.LVL361:
 3421              	.LEHE38:
  59:src/main.cpp  ****     PeriodicThread* D = new MojPeriodic(10, 'D');
 3422              		.loc 4 59 5 is_stmt 1 discriminator 2
  59:src/main.cpp  ****     PeriodicThread* D = new MojPeriodic(10, 'D');
 3423              		.loc 4 59 47 is_stmt 0 discriminator 2
 3424 0e24 13058001 		li	a0,24
GAS LISTING /tmp/ccx9Uhqi.s 			page 81


 3425              	.LEHB39:
 3426 0e28 97000000 		call	_Znwm@plt
 3426      E7800000 
 3427              	.LVL362:
 3428              	.LEHE39:
 3429 0e30 13090500 		mv	s2,a0
 3430              	.LVL363:
 3431              	.LBB162:
 3432              	.LBB163:
  34:src/main.cpp  ****     void periodicActivation() override{
 3433              		.loc 4 34 63 discriminator 2
 3434 0e34 93055000 		li	a1,5
 3435              	.LEHB40:
 3436 0e38 97000000 		call	_ZN14PeriodicThreadC2Em@plt
 3436      E7800000 
 3437              	.LVL364:
 3438              	.LEHE40:
  34:src/main.cpp  ****     void periodicActivation() override{
 3439              		.loc 4 34 63
 3440 0e40 97070000 		lla	a5,_ZTV11MojPeriodic+16
 3440      93870700 
 3441 0e48 2330F900 		sd	a5,0(s2)
  34:src/main.cpp  ****     void periodicActivation() override{
 3442              		.loc 4 34 67 is_stmt 1
  34:src/main.cpp  ****     void periodicActivation() override{
 3443              		.loc 4 34 74 is_stmt 0
 3444 0e4c 93073004 		li	a5,67
 3445 0e50 2308F900 		sb	a5,16(s2)
 3446              	.LVL365:
 3447              	.LBE163:
 3448              	.LBE162:
  60:src/main.cpp  ****     Thread* E = new Thread(&funE, nullptr);
 3449              		.loc 4 60 5 is_stmt 1
  60:src/main.cpp  ****     Thread* E = new Thread(&funE, nullptr);
 3450              		.loc 4 60 48 is_stmt 0
 3451 0e54 13058001 		li	a0,24
 3452              	.LEHB41:
 3453 0e58 97000000 		call	_Znwm@plt
 3453      E7800000 
 3454              	.LVL366:
 3455              	.LEHE41:
 3456 0e60 93040500 		mv	s1,a0
 3457              	.LVL367:
 3458              	.LBB164:
 3459              	.LBB165:
  34:src/main.cpp  ****     void periodicActivation() override{
 3460              		.loc 4 34 63
 3461 0e64 9305A000 		li	a1,10
 3462              	.LEHB42:
 3463 0e68 97000000 		call	_ZN14PeriodicThreadC2Em@plt
 3463      E7800000 
 3464              	.LVL368:
 3465              	.LEHE42:
 3466 0e70 97070000 		lla	a5,_ZTV11MojPeriodic+16
 3466      93870700 
 3467 0e78 23B0F400 		sd	a5,0(s1)
  34:src/main.cpp  ****     void periodicActivation() override{
GAS LISTING /tmp/ccx9Uhqi.s 			page 82


 3468              		.loc 4 34 67 is_stmt 1
  34:src/main.cpp  ****     void periodicActivation() override{
 3469              		.loc 4 34 74 is_stmt 0
 3470 0e7c 93074004 		li	a5,68
 3471 0e80 2388F400 		sb	a5,16(s1)
 3472              	.LVL369:
 3473              	.LBE165:
 3474              	.LBE164:
  61:src/main.cpp  **** 
 3475              		.loc 4 61 5 is_stmt 1
  61:src/main.cpp  **** 
 3476              		.loc 4 61 42 is_stmt 0
 3477 0e84 13050001 		li	a0,16
 3478              	.LEHB43:
 3479 0e88 97000000 		call	_Znwm@plt
 3479      E7800000 
 3480              	.LVL370:
 3481              	.LEHE43:
 3482 0e90 93090500 		mv	s3,a0
 3483 0e94 13060000 		li	a2,0
 3484 0e98 97050000 		lla	a1,_Z4funEPv
 3484      93850500 
 3485              	.LEHB44:
 3486 0ea0 97000000 		call	_ZN6ThreadC1EPFvPvES0_@plt
 3486      E7800000 
 3487              	.LVL371:
 3488              	.LEHE44:
  63:src/main.cpp  ****     B->start();
 3489              		.loc 4 63 5 is_stmt 1 discriminator 2
  63:src/main.cpp  ****     B->start();
 3490              		.loc 4 63 13 is_stmt 0 discriminator 2
 3491 0ea8 13850A00 		mv	a0,s5
 3492              	.LEHB45:
 3493 0eac 97000000 		call	_ZN6Thread5startEv@plt
 3493      E7800000 
 3494              	.LVL372:
  64:src/main.cpp  ****     C->start();
 3495              		.loc 4 64 5 is_stmt 1 discriminator 2
  64:src/main.cpp  ****     C->start();
 3496              		.loc 4 64 13 is_stmt 0 discriminator 2
 3497 0eb4 13050A00 		mv	a0,s4
 3498 0eb8 97000000 		call	_ZN6Thread5startEv@plt
 3498      E7800000 
 3499              	.LVL373:
  65:src/main.cpp  ****     D->start();
 3500              		.loc 4 65 5 is_stmt 1 discriminator 2
  65:src/main.cpp  ****     D->start();
 3501              		.loc 4 65 13 is_stmt 0 discriminator 2
 3502 0ec0 13050900 		mv	a0,s2
 3503 0ec4 97000000 		call	_ZN6Thread5startEv@plt
 3503      E7800000 
 3504              	.LVL374:
  66:src/main.cpp  ****     E->start();
 3505              		.loc 4 66 5 is_stmt 1 discriminator 2
  66:src/main.cpp  ****     E->start();
 3506              		.loc 4 66 13 is_stmt 0 discriminator 2
 3507 0ecc 13850400 		mv	a0,s1
GAS LISTING /tmp/ccx9Uhqi.s 			page 83


 3508 0ed0 97000000 		call	_ZN6Thread5startEv@plt
 3508      E7800000 
 3509              	.LVL375:
  67:src/main.cpp  ****     thread_dispatch();
 3510              		.loc 4 67 5 is_stmt 1 discriminator 2
  67:src/main.cpp  ****     thread_dispatch();
 3511              		.loc 4 67 13 is_stmt 0 discriminator 2
 3512 0ed8 13850900 		mv	a0,s3
 3513 0edc 97000000 		call	_ZN6Thread5startEv@plt
 3513      E7800000 
 3514              	.LVL376:
  68:src/main.cpp  **** 
 3515              		.loc 4 68 5 is_stmt 1 discriminator 2
  68:src/main.cpp  **** 
 3516              		.loc 4 68 20 is_stmt 0 discriminator 2
 3517 0ee4 97000000 		call	_Z15thread_dispatchv@plt
 3517      E7800000 
 3518              	.LVL377:
 3519              	.LEHE45:
 3520              	.L177:
  70:src/main.cpp  **** 
 3521              		.loc 4 70 5 is_stmt 1 discriminator 1
  70:src/main.cpp  **** 
 3522              		.loc 4 70 5 discriminator 1
 3523 0eec 6F000000 		j	.L177
 3524              	.LVL378:
 3525              	.L186:
 3526 0ef0 13090500 		mv	s2,a0
 3527              	.LVL379:
 3528              	.LBB166:
 3529              	.LBB167:
  19:src/../h/../h/CThread.h ****     overrideDelete;
 3530              		.loc 7 19 5
 3531 0ef4 97000000 		call	_ZN15MemoryAllocator11getInstanceEv@plt
 3531      E7800000 
 3532              	.LVL380:
 3533 0efc 93850400 		mv	a1,s1
 3534 0f00 97000000 		call	_ZN15MemoryAllocator10deallocateEPv@plt
 3534      E7800000 
 3535              	.LVL381:
 3536 0f08 13050900 		mv	a0,s2
 3537              	.LEHB46:
 3538 0f0c 97000000 		call	_Unwind_Resume@plt
 3538      E7800000 
 3539              	.LVL382:
 3540              	.LEHE46:
 3541              	.L187:
 3542 0f14 13090500 		mv	s2,a0
 3543              	.LVL383:
 3544              	.LBE167:
 3545              	.LBE166:
 3546              	.LBB168:
 3547              	.LBB169:
  24:src/../h/PutBuffer.h ****         overrideArrDelete;
  25:src/../h/PutBuffer.h ****         overrideDelete;
 3548              		.loc 8 25 9
 3549 0f18 97000000 		call	_ZN15MemoryAllocator11getInstanceEv@plt
GAS LISTING /tmp/ccx9Uhqi.s 			page 84


 3549      E7800000 
 3550              	.LVL384:
 3551 0f20 93850400 		mv	a1,s1
 3552 0f24 97000000 		call	_ZN15MemoryAllocator10deallocateEPv@plt
 3552      E7800000 
 3553              	.LVL385:
 3554 0f2c 13050900 		mv	a0,s2
 3555              	.LEHB47:
 3556 0f30 97000000 		call	_Unwind_Resume@plt
 3556      E7800000 
 3557              	.LVL386:
 3558              	.LEHE47:
 3559              	.L188:
 3560 0f38 13090500 		mv	s2,a0
 3561              	.LVL387:
 3562              	.LBE169:
 3563              	.LBE168:
 3564              	.LBB170:
 3565              	.LBB171:
  24:src/../h/GetBuffer.h ****     overrideArrDelete;
  25:src/../h/GetBuffer.h ****     overrideDelete;
 3566              		.loc 9 25 5
 3567 0f3c 97000000 		call	_ZN15MemoryAllocator11getInstanceEv@plt
 3567      E7800000 
 3568              	.LVL388:
 3569 0f44 93850400 		mv	a1,s1
 3570 0f48 97000000 		call	_ZN15MemoryAllocator10deallocateEPv@plt
 3570      E7800000 
 3571              	.LVL389:
 3572 0f50 13050900 		mv	a0,s2
 3573              	.LEHB48:
 3574 0f54 97000000 		call	_Unwind_Resume@plt
 3574      E7800000 
 3575              	.LVL390:
 3576              	.LEHE48:
 3577              	.L189:
 3578 0f5c 93040500 		mv	s1,a0
 3579              	.LBE171:
 3580              	.LBE170:
  57:src/main.cpp  ****     Thread* B = new Thread(&funB, nullptr);
 3581              		.loc 4 57 42 is_stmt 0
 3582 0f60 13850A00 		mv	a0,s5
 3583 0f64 97000000 		call	_ZdlPv@plt
 3583      E7800000 
 3584              	.LVL391:
 3585 0f6c 13850400 		mv	a0,s1
 3586              	.LEHB49:
 3587 0f70 97000000 		call	_Unwind_Resume@plt
 3587      E7800000 
 3588              	.LVL392:
 3589              	.LEHE49:
 3590              	.L190:
 3591 0f78 93040500 		mv	s1,a0
  58:src/main.cpp  ****     PeriodicThread* C = new MojPeriodic(5, 'C');
 3592              		.loc 4 58 42
 3593 0f7c 13050A00 		mv	a0,s4
 3594 0f80 97000000 		call	_ZdlPv@plt
GAS LISTING /tmp/ccx9Uhqi.s 			page 85


 3594      E7800000 
 3595              	.LVL393:
 3596 0f88 13850400 		mv	a0,s1
 3597              	.LEHB50:
 3598 0f8c 97000000 		call	_Unwind_Resume@plt
 3598      E7800000 
 3599              	.LVL394:
 3600              	.LEHE50:
 3601              	.L191:
 3602 0f94 93040500 		mv	s1,a0
  59:src/main.cpp  ****     PeriodicThread* D = new MojPeriodic(10, 'D');
 3603              		.loc 4 59 47
 3604 0f98 13050900 		mv	a0,s2
 3605 0f9c 97000000 		call	_ZdlPv@plt
 3605      E7800000 
 3606              	.LVL395:
 3607 0fa4 13850400 		mv	a0,s1
 3608              	.LEHB51:
 3609 0fa8 97000000 		call	_Unwind_Resume@plt
 3609      E7800000 
 3610              	.LVL396:
 3611              	.LEHE51:
 3612              	.L192:
 3613 0fb0 13090500 		mv	s2,a0
 3614              	.LVL397:
  60:src/main.cpp  ****     Thread* E = new Thread(&funE, nullptr);
 3615              		.loc 4 60 48
 3616 0fb4 13850400 		mv	a0,s1
 3617 0fb8 97000000 		call	_ZdlPv@plt
 3617      E7800000 
 3618              	.LVL398:
 3619 0fc0 13050900 		mv	a0,s2
 3620              	.LEHB52:
 3621 0fc4 97000000 		call	_Unwind_Resume@plt
 3621      E7800000 
 3622              	.LVL399:
 3623              	.LEHE52:
 3624              	.L193:
 3625 0fcc 93040500 		mv	s1,a0
 3626              	.LVL400:
  61:src/main.cpp  **** 
 3627              		.loc 4 61 42
 3628 0fd0 13850900 		mv	a0,s3
 3629 0fd4 97000000 		call	_ZdlPv@plt
 3629      E7800000 
 3630              	.LVL401:
 3631 0fdc 13850400 		mv	a0,s1
 3632              	.LEHB53:
 3633 0fe0 97000000 		call	_Unwind_Resume@plt
 3633      E7800000 
 3634              	.LVL402:
 3635              	.LEHE53:
 3636              		.cfi_endproc
 3637              	.LFE71:
 3638              		.section	.gcc_except_table
 3639              	.LLSDA71:
 3640 0183 FF       		.byte	0xff
GAS LISTING /tmp/ccx9Uhqi.s 			page 86


 3641 0184 FF       		.byte	0xff
 3642 0185 03       		.byte	0x3
 3643 0186 C502     		.byte	0xc5,0x2
 3644 0188 00000000 		.4byte	.LEHB29-.LFB71
 3645 018c 00000000 		.4byte	.LEHE29-.LEHB29
 3646 0190 00000000 		.4byte	0
 3647 0194 00       		.byte	0
 3648 0195 00000000 		.4byte	.LEHB30-.LFB71
 3649 0199 00000000 		.4byte	.LEHE30-.LEHB30
 3650 019d 00000000 		.4byte	.L186-.LFB71
 3651 01a1 00       		.byte	0
 3652 01a2 00000000 		.4byte	.LEHB31-.LFB71
 3653 01a6 00000000 		.4byte	.LEHE31-.LEHB31
 3654 01aa 00000000 		.4byte	0
 3655 01ae 00       		.byte	0
 3656 01af 00000000 		.4byte	.LEHB32-.LFB71
 3657 01b3 00000000 		.4byte	.LEHE32-.LEHB32
 3658 01b7 00000000 		.4byte	.L187-.LFB71
 3659 01bb 00       		.byte	0
 3660 01bc 00000000 		.4byte	.LEHB33-.LFB71
 3661 01c0 00000000 		.4byte	.LEHE33-.LEHB33
 3662 01c4 00000000 		.4byte	0
 3663 01c8 00       		.byte	0
 3664 01c9 00000000 		.4byte	.LEHB34-.LFB71
 3665 01cd 00000000 		.4byte	.LEHE34-.LEHB34
 3666 01d1 00000000 		.4byte	.L188-.LFB71
 3667 01d5 00       		.byte	0
 3668 01d6 00000000 		.4byte	.LEHB35-.LFB71
 3669 01da 00000000 		.4byte	.LEHE35-.LEHB35
 3670 01de 00000000 		.4byte	0
 3671 01e2 00       		.byte	0
 3672 01e3 00000000 		.4byte	.LEHB36-.LFB71
 3673 01e7 00000000 		.4byte	.LEHE36-.LEHB36
 3674 01eb 00000000 		.4byte	.L189-.LFB71
 3675 01ef 00       		.byte	0
 3676 01f0 00000000 		.4byte	.LEHB37-.LFB71
 3677 01f4 00000000 		.4byte	.LEHE37-.LEHB37
 3678 01f8 00000000 		.4byte	0
 3679 01fc 00       		.byte	0
 3680 01fd 00000000 		.4byte	.LEHB38-.LFB71
 3681 0201 00000000 		.4byte	.LEHE38-.LEHB38
 3682 0205 00000000 		.4byte	.L190-.LFB71
 3683 0209 00       		.byte	0
 3684 020a 00000000 		.4byte	.LEHB39-.LFB71
 3685 020e 00000000 		.4byte	.LEHE39-.LEHB39
 3686 0212 00000000 		.4byte	0
 3687 0216 00       		.byte	0
 3688 0217 00000000 		.4byte	.LEHB40-.LFB71
 3689 021b 00000000 		.4byte	.LEHE40-.LEHB40
 3690 021f 00000000 		.4byte	.L191-.LFB71
 3691 0223 00       		.byte	0
 3692 0224 00000000 		.4byte	.LEHB41-.LFB71
 3693 0228 00000000 		.4byte	.LEHE41-.LEHB41
 3694 022c 00000000 		.4byte	0
 3695 0230 00       		.byte	0
 3696 0231 00000000 		.4byte	.LEHB42-.LFB71
 3697 0235 00000000 		.4byte	.LEHE42-.LEHB42
GAS LISTING /tmp/ccx9Uhqi.s 			page 87


 3698 0239 00000000 		.4byte	.L192-.LFB71
 3699 023d 00       		.byte	0
 3700 023e 00000000 		.4byte	.LEHB43-.LFB71
 3701 0242 00000000 		.4byte	.LEHE43-.LEHB43
 3702 0246 00000000 		.4byte	0
 3703 024a 00       		.byte	0
 3704 024b 00000000 		.4byte	.LEHB44-.LFB71
 3705 024f 00000000 		.4byte	.LEHE44-.LEHB44
 3706 0253 00000000 		.4byte	.L193-.LFB71
 3707 0257 00       		.byte	0
 3708 0258 00000000 		.4byte	.LEHB45-.LFB71
 3709 025c 00000000 		.4byte	.LEHE45-.LEHB45
 3710 0260 00000000 		.4byte	0
 3711 0264 00       		.byte	0
 3712 0265 00000000 		.4byte	.LEHB46-.LFB71
 3713 0269 00000000 		.4byte	.LEHE46-.LEHB46
 3714 026d 00000000 		.4byte	0
 3715 0271 00       		.byte	0
 3716 0272 00000000 		.4byte	.LEHB47-.LFB71
 3717 0276 00000000 		.4byte	.LEHE47-.LEHB47
 3718 027a 00000000 		.4byte	0
 3719 027e 00       		.byte	0
 3720 027f 00000000 		.4byte	.LEHB48-.LFB71
 3721 0283 00000000 		.4byte	.LEHE48-.LEHB48
 3722 0287 00000000 		.4byte	0
 3723 028b 00       		.byte	0
 3724 028c 00000000 		.4byte	.LEHB49-.LFB71
 3725 0290 00000000 		.4byte	.LEHE49-.LEHB49
 3726 0294 00000000 		.4byte	0
 3727 0298 00       		.byte	0
 3728 0299 00000000 		.4byte	.LEHB50-.LFB71
 3729 029d 00000000 		.4byte	.LEHE50-.LEHB50
 3730 02a1 00000000 		.4byte	0
 3731 02a5 00       		.byte	0
 3732 02a6 00000000 		.4byte	.LEHB51-.LFB71
 3733 02aa 00000000 		.4byte	.LEHE51-.LEHB51
 3734 02ae 00000000 		.4byte	0
 3735 02b2 00       		.byte	0
 3736 02b3 00000000 		.4byte	.LEHB52-.LFB71
 3737 02b7 00000000 		.4byte	.LEHE52-.LEHB52
 3738 02bb 00000000 		.4byte	0
 3739 02bf 00       		.byte	0
 3740 02c0 00000000 		.4byte	.LEHB53-.LFB71
 3741 02c4 00000000 		.4byte	.LEHE53-.LEHB53
 3742 02c8 00000000 		.4byte	0
 3743 02cc 00       		.byte	0
 3744              		.text
 3746              		.weak	_ZTV14PeriodicThread
 3747              		.section	.data.rel.ro.local._ZTV14PeriodicThread,"awG",@progbits,_ZTV14PeriodicThread,comdat
 3748              		.align	3
 3751              	_ZTV14PeriodicThread:
 3752 0000 00000000 		.dword	0
 3752      00000000 
 3753 0008 00000000 		.dword	0
 3753      00000000 
 3754 0010 00000000 		.dword	_ZN14PeriodicThreadD1Ev
 3754      00000000 
GAS LISTING /tmp/ccx9Uhqi.s 			page 88


 3755 0018 00000000 		.dword	_ZN14PeriodicThreadD0Ev
 3755      00000000 
 3756 0020 00000000 		.dword	_ZN6Thread3runEv
 3756      00000000 
 3757 0028 00000000 		.dword	_ZN14PeriodicThread18periodicActivationEv
 3757      00000000 
 3758              		.weak	_ZTVN19ConsumerProducerCPP16ProducerKeyboradE
 3759              		.section	.data.rel.ro.local._ZTVN19ConsumerProducerCPP16ProducerKeyboradE,"awG",@progbits,_ZTVN19C
 3760              		.align	3
 3763              	_ZTVN19ConsumerProducerCPP16ProducerKeyboradE:
 3764 0000 00000000 		.dword	0
 3764      00000000 
 3765 0008 00000000 		.dword	0
 3765      00000000 
 3766 0010 00000000 		.dword	_ZN19ConsumerProducerCPP16ProducerKeyboradD1Ev
 3766      00000000 
 3767 0018 00000000 		.dword	_ZN19ConsumerProducerCPP16ProducerKeyboradD0Ev
 3767      00000000 
 3768 0020 00000000 		.dword	_ZN19ConsumerProducerCPP16ProducerKeyborad3runEv
 3768      00000000 
 3769              		.weak	_ZTVN19ConsumerProducerCPP8ProducerE
 3770              		.section	.data.rel.ro.local._ZTVN19ConsumerProducerCPP8ProducerE,"awG",@progbits,_ZTVN19ConsumerPr
 3771              		.align	3
 3774              	_ZTVN19ConsumerProducerCPP8ProducerE:
 3775 0000 00000000 		.dword	0
 3775      00000000 
 3776 0008 00000000 		.dword	0
 3776      00000000 
 3777 0010 00000000 		.dword	_ZN19ConsumerProducerCPP8ProducerD1Ev
 3777      00000000 
 3778 0018 00000000 		.dword	_ZN19ConsumerProducerCPP8ProducerD0Ev
 3778      00000000 
 3779 0020 00000000 		.dword	_ZN19ConsumerProducerCPP8Producer3runEv
 3779      00000000 
 3780              		.weak	_ZTVN19ConsumerProducerCPP8ConsumerE
 3781              		.section	.data.rel.ro.local._ZTVN19ConsumerProducerCPP8ConsumerE,"awG",@progbits,_ZTVN19ConsumerPr
 3782              		.align	3
 3785              	_ZTVN19ConsumerProducerCPP8ConsumerE:
 3786 0000 00000000 		.dword	0
 3786      00000000 
 3787 0008 00000000 		.dword	0
 3787      00000000 
 3788 0010 00000000 		.dword	_ZN19ConsumerProducerCPP8ConsumerD1Ev
 3788      00000000 
 3789 0018 00000000 		.dword	_ZN19ConsumerProducerCPP8ConsumerD0Ev
 3789      00000000 
 3790 0020 00000000 		.dword	_ZN19ConsumerProducerCPP8Consumer3runEv
 3790      00000000 
 3791              		.weak	_ZTV7WorkerA
 3792              		.section	.data.rel.ro.local._ZTV7WorkerA,"awG",@progbits,_ZTV7WorkerA,comdat
 3793              		.align	3
 3796              	_ZTV7WorkerA:
 3797 0000 00000000 		.dword	0
 3797      00000000 
 3798 0008 00000000 		.dword	0
 3798      00000000 
 3799 0010 00000000 		.dword	_ZN7WorkerAD1Ev
GAS LISTING /tmp/ccx9Uhqi.s 			page 89


 3799      00000000 
 3800 0018 00000000 		.dword	_ZN7WorkerAD0Ev
 3800      00000000 
 3801 0020 00000000 		.dword	_ZN7WorkerA3runEv
 3801      00000000 
 3802              		.weak	_ZTV7WorkerB
 3803              		.section	.data.rel.ro.local._ZTV7WorkerB,"awG",@progbits,_ZTV7WorkerB,comdat
 3804              		.align	3
 3807              	_ZTV7WorkerB:
 3808 0000 00000000 		.dword	0
 3808      00000000 
 3809 0008 00000000 		.dword	0
 3809      00000000 
 3810 0010 00000000 		.dword	_ZN7WorkerBD1Ev
 3810      00000000 
 3811 0018 00000000 		.dword	_ZN7WorkerBD0Ev
 3811      00000000 
 3812 0020 00000000 		.dword	_ZN7WorkerB3runEv
 3812      00000000 
 3813              		.weak	_ZTV7WorkerC
 3814              		.section	.data.rel.ro.local._ZTV7WorkerC,"awG",@progbits,_ZTV7WorkerC,comdat
 3815              		.align	3
 3818              	_ZTV7WorkerC:
 3819 0000 00000000 		.dword	0
 3819      00000000 
 3820 0008 00000000 		.dword	0
 3820      00000000 
 3821 0010 00000000 		.dword	_ZN7WorkerCD1Ev
 3821      00000000 
 3822 0018 00000000 		.dword	_ZN7WorkerCD0Ev
 3822      00000000 
 3823 0020 00000000 		.dword	_ZN7WorkerC3runEv
 3823      00000000 
 3824              		.weak	_ZTV7WorkerD
 3825              		.section	.data.rel.ro.local._ZTV7WorkerD,"awG",@progbits,_ZTV7WorkerD,comdat
 3826              		.align	3
 3829              	_ZTV7WorkerD:
 3830 0000 00000000 		.dword	0
 3830      00000000 
 3831 0008 00000000 		.dword	0
 3831      00000000 
 3832 0010 00000000 		.dword	_ZN7WorkerDD1Ev
 3832      00000000 
 3833 0018 00000000 		.dword	_ZN7WorkerDD0Ev
 3833      00000000 
 3834 0020 00000000 		.dword	_ZN7WorkerD3runEv
 3834      00000000 
 3835              		.weak	_ZTV11MojPeriodic
 3836              		.section	.data.rel.ro.local._ZTV11MojPeriodic,"awG",@progbits,_ZTV11MojPeriodic,comdat
 3837              		.align	3
 3840              	_ZTV11MojPeriodic:
 3841 0000 00000000 		.dword	0
 3841      00000000 
 3842 0008 00000000 		.dword	0
 3842      00000000 
 3843 0010 00000000 		.dword	_ZN11MojPeriodicD1Ev
 3843      00000000 
GAS LISTING /tmp/ccx9Uhqi.s 			page 90


 3844 0018 00000000 		.dword	_ZN11MojPeriodicD0Ev
 3844      00000000 
 3845 0020 00000000 		.dword	_ZN6Thread3runEv
 3845      00000000 
 3846 0028 00000000 		.dword	_ZN11MojPeriodic18periodicActivationEv
 3846      00000000 
 3847              		.globl	finishedD
 3848              		.globl	finishedC
 3849              		.globl	finishedB
 3850              		.globl	finishedA
 3851              		.globl	finished
 3852              		.globl	_ZN19ConsumerProducerCPP9threadEndE
 3853              		.globl	_ZN19ConsumerProducerCPP10waitForAllE
 3854              		.bss
 3855              		.align	3
 3856              		.set	.LANCHOR0,. + 0
 3859              	_ZN19ConsumerProducerCPP9threadEndE:
 3860 0000 00000000 		.zero	4
 3861 0004 00000000 		.zero	4
 3864              	finished:
 3865 0008 0000     		.zero	2
 3866 000a 00000000 		.zero	6
 3866      0000
 3869              	_ZN19ConsumerProducerCPP10waitForAllE:
 3870 0010 00000000 		.zero	8
 3870      00000000 
 3873              	finishedA:
 3874 0018 00       		.zero	1
 3877              	finishedB:
 3878 0019 00       		.zero	1
 3881              	finishedC:
 3882 001a 00       		.zero	1
 3885              	finishedD:
 3886 001b 00       		.zero	1
 3887              		.text
 3888              	.Letext0:
 3889              		.file 10 "src/../h/../lib/hw.h"
 3890              		.file 11 "src/../h/../h/MemoryAllocator.h"
 3891              		.file 12 "src/../h/CSemaphore.h"
 3892              		.file 13 "src/../h/syscall_c.h"
 3893              		.file 14 "src/../test/buffer_CPP_API.hpp"
 3894              		.file 15 "src/../test/printing.hpp"
 14496              		.align	3
 14499              	DW.ref.__gxx_personality_v0:
 14500 0000 00000000 		.dword	__gxx_personality_v0
 14500      00000000 
 14501              		.ident	"GCC: (Ubuntu 9.4.0-1ubuntu1~20.04) 9.4.0"
 14502              		.section	.note.GNU-stack,"",@progbits
GAS LISTING /tmp/ccx9Uhqi.s 			page 91

