GAS LISTING /tmp/ccFRp6yI.s 			page 1


   1              		.file	"MemoryAllocator.cpp"
   2              		.option pic
   3              		.option norelax
   4              		.text
   5              	.Ltext0:
   6              		.align	2
   7              		.globl	_ZN15MemoryAllocatorC2Ev
   9              	_ZN15MemoryAllocatorC2Ev:
  10              	.LFB1:
  11              		.file 1 "src/MemoryAllocator.cpp"
   1:src/MemoryAllocator.cpp **** //
   2:src/MemoryAllocator.cpp **** // Created by os on 5/26/22.
   3:src/MemoryAllocator.cpp **** //
   4:src/MemoryAllocator.cpp **** 
   5:src/MemoryAllocator.cpp **** #include "../h/MemoryAllocator.h"
   6:src/MemoryAllocator.cpp **** 
   7:src/MemoryAllocator.cpp **** MemoryAllocator::MemoryAllocator() {
  12              		.loc 1 7 1
  13              		.cfi_startproc
  14              	.LVL0:
  15 0000 130101FF 		addi	sp,sp,-16
  16              		.cfi_def_cfa_offset 16
  17 0004 23348100 		sd	s0,8(sp)
  18              		.cfi_offset 8, -8
  19 0008 13040101 		addi	s0,sp,16
  20              		.cfi_def_cfa 8, 0
  21              	.LBB2:
   8:src/MemoryAllocator.cpp ****     head = (freeMemFragment*)HEAP_START_ADDR;
  22              		.loc 1 8 5
  23              		.loc 1 8 10 is_stmt 0
  24 000c 97070000 		la	a5,HEAP_START_ADDR
  24      83B70700 
  25 0014 03B70700 		ld	a4,0(a5)
  26 0018 2330E500 		sd	a4,0(a0)
   9:src/MemoryAllocator.cpp ****     head->next = nullptr;
  27              		.loc 1 9 5 is_stmt 1
  28              		.loc 1 9 16 is_stmt 0
  29 001c 23340700 		sd	zero,8(a4)
  10:src/MemoryAllocator.cpp ****     head->size = (uint64)HEAP_END_ADDR - (uint64 )HEAP_START_ADDR;
  30              		.loc 1 10 5 is_stmt 1
  31 0020 83360500 		ld	a3,0(a0)
  32              		.loc 1 10 40 is_stmt 0
  33 0024 97070000 		la	a5,HEAP_END_ADDR
  33      83B70700 
  34 002c 83B70700 		ld	a5,0(a5)
  35 0030 B387E740 		sub	a5,a5,a4
  36              		.loc 1 10 16
  37 0034 23B0F600 		sd	a5,0(a3)
  38              	.LBE2:
  11:src/MemoryAllocator.cpp **** 
  12:src/MemoryAllocator.cpp **** }
  39              		.loc 1 12 1
  40 0038 03348100 		ld	s0,8(sp)
  41              		.cfi_restore 8
  42              		.cfi_def_cfa 2, 16
  43 003c 13010101 		addi	sp,sp,16
  44              		.cfi_def_cfa_offset 0
GAS LISTING /tmp/ccFRp6yI.s 			page 2


  45 0040 67800000 		jr	ra
  46              		.cfi_endproc
  47              	.LFE1:
  49              		.globl	_ZN15MemoryAllocatorC1Ev
  50              		.set	_ZN15MemoryAllocatorC1Ev,_ZN15MemoryAllocatorC2Ev
  51              		.align	2
  52              		.globl	_ZN15MemoryAllocator8allocateEm
  54              	_ZN15MemoryAllocator8allocateEm:
  55              	.LFB3:
  13:src/MemoryAllocator.cpp **** 
  14:src/MemoryAllocator.cpp **** void *MemoryAllocator::allocate(size_t size) {
  56              		.loc 1 14 46 is_stmt 1
  57              		.cfi_startproc
  58              	.LVL1:
  59 0044 130101FF 		addi	sp,sp,-16
  60              		.cfi_def_cfa_offset 16
  61 0048 23348100 		sd	s0,8(sp)
  62              		.cfi_offset 8, -8
  63 004c 13040101 		addi	s0,sp,16
  64              		.cfi_def_cfa 8, 0
  65 0050 93060500 		mv	a3,a0
  15:src/MemoryAllocator.cpp ****     //try to find
  16:src/MemoryAllocator.cpp ****     freeMemFragment* current = head, *previous = nullptr;
  66              		.loc 1 16 5
  67              		.loc 1 16 22 is_stmt 0
  68 0054 03350500 		ld	a0,0(a0)
  69              	.LVL2:
  70              		.loc 1 16 39
  71 0058 13070000 		li	a4,0
  72              	.LVL3:
  73              	.L5:
  17:src/MemoryAllocator.cpp ****     for(;current;previous = current, current = current->next)
  74              		.loc 1 17 5 is_stmt 1 discriminator 1
  75              		.loc 1 17 10 discriminator 1
  76 005c 630C0500 		beqz	a0,.L4
  18:src/MemoryAllocator.cpp ****         if(current->size>=size) break;
  77              		.loc 1 18 9
  78              		.loc 1 18 21 is_stmt 0
  79 0060 83370500 		ld	a5,0(a0)
  80              		.loc 1 18 9
  81 0064 63F8B700 		bgeu	a5,a1,.L4
  17:src/MemoryAllocator.cpp ****     for(;current;previous = current, current = current->next)
  82              		.loc 1 17 5 is_stmt 1
  83              	.LVL4:
  17:src/MemoryAllocator.cpp ****     for(;current;previous = current, current = current->next)
  84              		.loc 1 17 27 is_stmt 0
  85 0068 13070500 		mv	a4,a0
  17:src/MemoryAllocator.cpp ****     for(;current;previous = current, current = current->next)
  86              		.loc 1 17 46
  87 006c 03358500 		ld	a0,8(a0)
  88              	.LVL5:
  17:src/MemoryAllocator.cpp ****     for(;current;previous = current, current = current->next)
  89              		.loc 1 17 5
  90 0070 6FF0DFFE 		j	.L5
  91              	.L4:
  19:src/MemoryAllocator.cpp ****     //if not found
  20:src/MemoryAllocator.cpp ****     if(!current) return nullptr;
GAS LISTING /tmp/ccFRp6yI.s 			page 3


  92              		.loc 1 20 5 is_stmt 1
  93              	.LBB3:
  94 0074 630C0502 		beqz	a0,.L3
  95              	.LBB4:
  21:src/MemoryAllocator.cpp ****     //if found allocate
  22:src/MemoryAllocator.cpp ****     else{
  23:src/MemoryAllocator.cpp ****         size_t  remaining = current->size-size;
  96              		.loc 1 23 9
  97              		.loc 1 23 38 is_stmt 0
  98 0078 83370500 		ld	a5,0(a0)
  99              		.loc 1 23 17
 100 007c B387B740 		sub	a5,a5,a1
 101              	.LVL6:
  24:src/MemoryAllocator.cpp ****         current->size = size;
 102              		.loc 1 24 9 is_stmt 1
 103              		.loc 1 24 23 is_stmt 0
 104 0080 2330B500 		sd	a1,0(a0)
  25:src/MemoryAllocator.cpp ****         size_t offset = sizeof(freeMemFragment) + size;
 105              		.loc 1 25 9 is_stmt 1
 106              		.loc 1 25 16 is_stmt 0
 107 0084 93850501 		addi	a1,a1,16
 108              	.LVL7:
  26:src/MemoryAllocator.cpp ****         freeMemFragment* newBlock = (freeMemFragment*)((char*)current + offset);
 109              		.loc 1 26 9 is_stmt 1
 110              		.loc 1 26 26 is_stmt 0
 111 0088 B305B500 		add	a1,a0,a1
 112              	.LVL8:
  27:src/MemoryAllocator.cpp ****         if(previous)previous->next = newBlock;
 113              		.loc 1 27 9 is_stmt 1
 114 008c 63060702 		beqz	a4,.L7
 115              		.loc 1 27 21 discriminator 1
 116              		.loc 1 27 36 is_stmt 0 discriminator 1
 117 0090 2334B700 		sd	a1,8(a4)
 118              	.LVL9:
 119              	.L8:
  28:src/MemoryAllocator.cpp ****         else head = newBlock;
  29:src/MemoryAllocator.cpp ****         newBlock->next = current->next;
 120              		.loc 1 29 9 is_stmt 1
 121              		.loc 1 29 35 is_stmt 0
 122 0094 03378500 		ld	a4,8(a0)
 123              	.LVL10:
 124              		.loc 1 29 24
 125 0098 23B4E500 		sd	a4,8(a1)
  30:src/MemoryAllocator.cpp ****         newBlock->size=remaining-sizeof(freeMemFragment);
 126              		.loc 1 30 9 is_stmt 1
 127              		.loc 1 30 33 is_stmt 0
 128 009c 938707FF 		addi	a5,a5,-16
 129              	.LVL11:
 130              		.loc 1 30 23
 131 00a0 23B0F500 		sd	a5,0(a1)
  31:src/MemoryAllocator.cpp **** 
  32:src/MemoryAllocator.cpp ****         current->next = nullptr;
 132              		.loc 1 32 9 is_stmt 1
 133              		.loc 1 32 23 is_stmt 0
 134 00a4 23340500 		sd	zero,8(a0)
  33:src/MemoryAllocator.cpp ****         return (char*)current+sizeof(freeMemFragment);
 135              		.loc 1 33 9 is_stmt 1
GAS LISTING /tmp/ccFRp6yI.s 			page 4


 136              		.loc 1 33 53 is_stmt 0
 137 00a8 13050501 		addi	a0,a0,16
 138              	.LVL12:
 139              	.L3:
 140              	.LBE4:
 141              	.LBE3:
  34:src/MemoryAllocator.cpp ****     }
  35:src/MemoryAllocator.cpp **** }
 142              		.loc 1 35 1
 143 00ac 03348100 		ld	s0,8(sp)
 144              		.cfi_remember_state
 145              		.cfi_restore 8
 146              		.cfi_def_cfa 2, 16
 147 00b0 13010101 		addi	sp,sp,16
 148              		.cfi_def_cfa_offset 0
 149 00b4 67800000 		jr	ra
 150              	.LVL13:
 151              	.L7:
 152              		.cfi_restore_state
 153              	.LBB6:
 154              	.LBB5:
  28:src/MemoryAllocator.cpp ****         newBlock->next = current->next;
 155              		.loc 1 28 14 is_stmt 1
  28:src/MemoryAllocator.cpp ****         newBlock->next = current->next;
 156              		.loc 1 28 19 is_stmt 0
 157 00b8 23B0B600 		sd	a1,0(a3)
 158              	.LVL14:
 159 00bc 6FF09FFD 		j	.L8
 160              	.LBE5:
 161              	.LBE6:
 162              		.cfi_endproc
 163              	.LFE3:
 165              		.align	2
 166              		.globl	_ZN15MemoryAllocator9tryToJoinEPNS_15freeMemFragmentE
 168              	_ZN15MemoryAllocator9tryToJoinEPNS_15freeMemFragmentE:
 169              	.LFB5:
  36:src/MemoryAllocator.cpp **** 
  37:src/MemoryAllocator.cpp **** void MemoryAllocator::deallocate(void *address) {
  38:src/MemoryAllocator.cpp ****     freeMemFragment* current = 0;
  39:src/MemoryAllocator.cpp ****     if(!head || address<(char*)head)
  40:src/MemoryAllocator.cpp ****         current = 0;
  41:src/MemoryAllocator.cpp ****     else
  42:src/MemoryAllocator.cpp ****         for (current = head; current->next && address>(char*)(current->next); current = current->ne
  43:src/MemoryAllocator.cpp ****     //insert new elem after current
  44:src/MemoryAllocator.cpp ****     freeMemFragment* newFrag = (freeMemFragment*)address;
  45:src/MemoryAllocator.cpp **** 
  46:src/MemoryAllocator.cpp ****     newFrag->size = (*(size_t*)address - sizeof(freeMemFragment));
  47:src/MemoryAllocator.cpp ****     if(current) {
  48:src/MemoryAllocator.cpp ****         newFrag->next = current->next;
  49:src/MemoryAllocator.cpp ****         current->next = newFrag;
  50:src/MemoryAllocator.cpp ****     }
  51:src/MemoryAllocator.cpp ****     else {
  52:src/MemoryAllocator.cpp ****         newFrag->next = head;
  53:src/MemoryAllocator.cpp ****         head = newFrag;
  54:src/MemoryAllocator.cpp ****     }
  55:src/MemoryAllocator.cpp ****     //try joining
  56:src/MemoryAllocator.cpp ****     tryToJoin(newFrag);
GAS LISTING /tmp/ccFRp6yI.s 			page 5


  57:src/MemoryAllocator.cpp ****     tryToJoin(current);
  58:src/MemoryAllocator.cpp **** }
  59:src/MemoryAllocator.cpp **** 
  60:src/MemoryAllocator.cpp **** int MemoryAllocator::tryToJoin(MemoryAllocator::freeMemFragment *current) {
 170              		.loc 1 60 75 is_stmt 1
 171              		.cfi_startproc
 172              	.LVL15:
 173 00c0 130101FF 		addi	sp,sp,-16
 174              		.cfi_def_cfa_offset 16
 175 00c4 23348100 		sd	s0,8(sp)
 176              		.cfi_offset 8, -8
 177 00c8 13040101 		addi	s0,sp,16
 178              		.cfi_def_cfa 8, 0
  61:src/MemoryAllocator.cpp ****     if(!current) return 0;
 179              		.loc 1 61 5
 180 00cc 63820504 		beqz	a1,.L12
  62:src/MemoryAllocator.cpp ****     if(current->next && (char*)current+current->size==(char*)(current->next)){
 181              		.loc 1 62 5
 182              		.loc 1 62 17 is_stmt 0
 183 00d0 83B78500 		ld	a5,8(a1)
 184              		.loc 1 62 5
 185 00d4 63820704 		beqz	a5,.L13
 186              		.loc 1 62 49 discriminator 1
 187 00d8 03B70500 		ld	a4,0(a1)
 188              		.loc 1 62 39 discriminator 1
 189 00dc B386E500 		add	a3,a1,a4
 190              		.loc 1 62 22 discriminator 1
 191 00e0 638AD700 		beq	a5,a3,.L16
  63:src/MemoryAllocator.cpp ****         //current & current->next can merge
  64:src/MemoryAllocator.cpp ****         current->size += current->next->size;
  65:src/MemoryAllocator.cpp ****         current->next = current->next->next;
  66:src/MemoryAllocator.cpp ****         return 1;
  67:src/MemoryAllocator.cpp ****     }else return 0;
 192              		.loc 1 67 18
 193 00e4 13050000 		li	a0,0
 194              	.LVL16:
 195              	.L11:
  68:src/MemoryAllocator.cpp **** }
 196              		.loc 1 68 1
 197 00e8 03348100 		ld	s0,8(sp)
 198              		.cfi_remember_state
 199              		.cfi_restore 8
 200              		.cfi_def_cfa 2, 16
 201 00ec 13010101 		addi	sp,sp,16
 202              		.cfi_def_cfa_offset 0
 203 00f0 67800000 		jr	ra
 204              	.LVL17:
 205              	.L16:
 206              		.cfi_restore_state
  64:src/MemoryAllocator.cpp ****         current->next = current->next->next;
 207              		.loc 1 64 9 is_stmt 1
  64:src/MemoryAllocator.cpp ****         current->next = current->next->next;
 208              		.loc 1 64 41 is_stmt 0
 209 00f4 83B60700 		ld	a3,0(a5)
  64:src/MemoryAllocator.cpp ****         current->next = current->next->next;
 210              		.loc 1 64 23
 211 00f8 3307D700 		add	a4,a4,a3
GAS LISTING /tmp/ccFRp6yI.s 			page 6


 212 00fc 23B0E500 		sd	a4,0(a1)
  65:src/MemoryAllocator.cpp ****         return 1;
 213              		.loc 1 65 9 is_stmt 1
  65:src/MemoryAllocator.cpp ****         return 1;
 214              		.loc 1 65 40 is_stmt 0
 215 0100 83B78700 		ld	a5,8(a5)
  65:src/MemoryAllocator.cpp ****         return 1;
 216              		.loc 1 65 23
 217 0104 23B4F500 		sd	a5,8(a1)
  66:src/MemoryAllocator.cpp ****     }else return 0;
 218              		.loc 1 66 9 is_stmt 1
  66:src/MemoryAllocator.cpp ****     }else return 0;
 219              		.loc 1 66 16 is_stmt 0
 220 0108 13051000 		li	a0,1
 221              	.LVL18:
 222 010c 6FF0DFFD 		j	.L11
 223              	.LVL19:
 224              	.L12:
  61:src/MemoryAllocator.cpp ****     if(current->next && (char*)current+current->size==(char*)(current->next)){
 225              		.loc 1 61 25
 226 0110 13050000 		li	a0,0
 227              	.LVL20:
 228 0114 6FF05FFD 		j	.L11
 229              	.LVL21:
 230              	.L13:
  67:src/MemoryAllocator.cpp **** }
 231              		.loc 1 67 18
 232 0118 13050000 		li	a0,0
 233              	.LVL22:
 234 011c 6FF0DFFC 		j	.L11
 235              		.cfi_endproc
 236              	.LFE5:
 238              		.align	2
 239              		.globl	_ZN15MemoryAllocator10deallocateEPv
 241              	_ZN15MemoryAllocator10deallocateEPv:
 242              	.LFB4:
  37:src/MemoryAllocator.cpp ****     freeMemFragment* current = 0;
 243              		.loc 1 37 49 is_stmt 1
 244              		.cfi_startproc
 245              	.LVL23:
 246 0120 130101FE 		addi	sp,sp,-32
 247              		.cfi_def_cfa_offset 32
 248 0124 233C1100 		sd	ra,24(sp)
 249 0128 23388100 		sd	s0,16(sp)
 250 012c 23349100 		sd	s1,8(sp)
 251 0130 23302101 		sd	s2,0(sp)
 252              		.cfi_offset 1, -8
 253              		.cfi_offset 8, -16
 254              		.cfi_offset 9, -24
 255              		.cfi_offset 18, -32
 256 0134 13040102 		addi	s0,sp,32
 257              		.cfi_def_cfa 8, 0
 258 0138 13090500 		mv	s2,a0
  38:src/MemoryAllocator.cpp ****     if(!head || address<(char*)head)
 259              		.loc 1 38 5
 260              	.LVL24:
  39:src/MemoryAllocator.cpp ****         current = 0;
GAS LISTING /tmp/ccFRp6yI.s 			page 7


 261              		.loc 1 39 5
  39:src/MemoryAllocator.cpp ****         current = 0;
 262              		.loc 1 39 9 is_stmt 0
 263 013c 83370500 		ld	a5,0(a0)
  39:src/MemoryAllocator.cpp ****         current = 0;
 264              		.loc 1 39 5
 265 0140 638E0700 		beqz	a5,.L22
  39:src/MemoryAllocator.cpp ****         current = 0;
 266              		.loc 1 39 14 discriminator 1
 267 0144 63E0F502 		bgtu	a5,a1,.L23
 268              	.LVL25:
 269              	.L19:
  42:src/MemoryAllocator.cpp ****     //insert new elem after current
 270              		.loc 1 42 44 is_stmt 1 discriminator 4
 271 0148 93840700 		mv	s1,a5
  42:src/MemoryAllocator.cpp ****     //insert new elem after current
 272              		.loc 1 42 39 is_stmt 0 discriminator 4
 273 014c 83B78700 		ld	a5,8(a5)
 274              	.LVL26:
  42:src/MemoryAllocator.cpp ****     //insert new elem after current
 275              		.loc 1 42 44 discriminator 4
 276 0150 638C0700 		beqz	a5,.L18
  42:src/MemoryAllocator.cpp ****     //insert new elem after current
 277              		.loc 1 42 44 discriminator 2
 278 0154 E3EAB7FE 		bltu	a5,a1,.L19
 279 0158 6F000001 		j	.L18
 280              	.LVL27:
 281              	.L22:
  40:src/MemoryAllocator.cpp ****     else
 282              		.loc 1 40 17
 283 015c 93840700 		mv	s1,a5
 284 0160 6F008000 		j	.L18
 285              	.L23:
 286 0164 93040000 		li	s1,0
 287              	.LVL28:
 288              	.L18:
  44:src/MemoryAllocator.cpp **** 
 289              		.loc 1 44 5 is_stmt 1
  46:src/MemoryAllocator.cpp ****     if(current) {
 290              		.loc 1 46 5
  46:src/MemoryAllocator.cpp ****     if(current) {
 291              		.loc 1 46 22 is_stmt 0
 292 0168 83B70500 		ld	a5,0(a1)
  46:src/MemoryAllocator.cpp ****     if(current) {
 293              		.loc 1 46 40
 294 016c 938707FF 		addi	a5,a5,-16
  46:src/MemoryAllocator.cpp ****     if(current) {
 295              		.loc 1 46 19
 296 0170 23B0F500 		sd	a5,0(a1)
  47:src/MemoryAllocator.cpp ****         newFrag->next = current->next;
 297              		.loc 1 47 5 is_stmt 1
 298 0174 63820404 		beqz	s1,.L20
  48:src/MemoryAllocator.cpp ****         current->next = newFrag;
 299              		.loc 1 48 9
  48:src/MemoryAllocator.cpp ****         current->next = newFrag;
 300              		.loc 1 48 34 is_stmt 0
 301 0178 83B78400 		ld	a5,8(s1)
GAS LISTING /tmp/ccFRp6yI.s 			page 8


  48:src/MemoryAllocator.cpp ****         current->next = newFrag;
 302              		.loc 1 48 23
 303 017c 23B4F500 		sd	a5,8(a1)
  49:src/MemoryAllocator.cpp ****     }
 304              		.loc 1 49 9 is_stmt 1
  49:src/MemoryAllocator.cpp ****     }
 305              		.loc 1 49 23 is_stmt 0
 306 0180 23B4B400 		sd	a1,8(s1)
 307              	.L21:
  56:src/MemoryAllocator.cpp ****     tryToJoin(current);
 308              		.loc 1 56 5 is_stmt 1
  56:src/MemoryAllocator.cpp ****     tryToJoin(current);
 309              		.loc 1 56 14 is_stmt 0
 310 0184 13050900 		mv	a0,s2
 311              	.LVL29:
 312 0188 97000000 		call	_ZN15MemoryAllocator9tryToJoinEPNS_15freeMemFragmentE
 312      E7800000 
 313              	.LVL30:
  57:src/MemoryAllocator.cpp **** }
 314              		.loc 1 57 5 is_stmt 1
  57:src/MemoryAllocator.cpp **** }
 315              		.loc 1 57 14 is_stmt 0
 316 0190 93850400 		mv	a1,s1
 317 0194 13050900 		mv	a0,s2
 318 0198 97000000 		call	_ZN15MemoryAllocator9tryToJoinEPNS_15freeMemFragmentE
 318      E7800000 
 319              	.LVL31:
  58:src/MemoryAllocator.cpp **** 
 320              		.loc 1 58 1
 321 01a0 83308101 		ld	ra,24(sp)
 322              		.cfi_remember_state
 323              		.cfi_restore 1
 324 01a4 03340101 		ld	s0,16(sp)
 325              		.cfi_restore 8
 326              		.cfi_def_cfa 2, 32
 327 01a8 83348100 		ld	s1,8(sp)
 328              		.cfi_restore 9
 329              	.LVL32:
 330 01ac 03390100 		ld	s2,0(sp)
 331              		.cfi_restore 18
 332              	.LVL33:
 333 01b0 13010102 		addi	sp,sp,32
 334              		.cfi_def_cfa_offset 0
 335 01b4 67800000 		jr	ra
 336              	.LVL34:
 337              	.L20:
 338              		.cfi_restore_state
  52:src/MemoryAllocator.cpp ****         head = newFrag;
 339              		.loc 1 52 9 is_stmt 1
  52:src/MemoryAllocator.cpp ****         head = newFrag;
 340              		.loc 1 52 25 is_stmt 0
 341 01b8 83370900 		ld	a5,0(s2)
  52:src/MemoryAllocator.cpp ****         head = newFrag;
 342              		.loc 1 52 23
 343 01bc 23B4F500 		sd	a5,8(a1)
  53:src/MemoryAllocator.cpp ****     }
 344              		.loc 1 53 9 is_stmt 1
GAS LISTING /tmp/ccFRp6yI.s 			page 9


  53:src/MemoryAllocator.cpp ****     }
 345              		.loc 1 53 14 is_stmt 0
 346 01c0 2330B900 		sd	a1,0(s2)
 347 01c4 6FF01FFC 		j	.L21
 348              		.cfi_endproc
 349              	.LFE4:
 351              		.align	2
 352              		.globl	_ZN15MemoryAllocator11getInstanceEv
 354              	_ZN15MemoryAllocator11getInstanceEv:
 355              	.LFB6:
  69:src/MemoryAllocator.cpp **** 
  70:src/MemoryAllocator.cpp **** MemoryAllocator &MemoryAllocator::getInstance() {
 356              		.loc 1 70 49 is_stmt 1
 357              		.cfi_startproc
  71:src/MemoryAllocator.cpp ****     static MemoryAllocator instance;
 358              		.loc 1 71 5
 359              		.loc 1 71 28 is_stmt 0
 360 01c8 97070000 		lbu	a5,.LANCHOR0
 360      83C70700 
 361 01d0 63880700 		beqz	a5,.L31
  72:src/MemoryAllocator.cpp ****     return instance;
 362              		.loc 1 72 5 is_stmt 1
  73:src/MemoryAllocator.cpp **** }
 363              		.loc 1 73 1 is_stmt 0
 364 01d4 17050000 		lla	a0,.LANCHOR0+8
 364      13050500 
 365 01dc 67800000 		ret
 366              	.L31:
  70:src/MemoryAllocator.cpp ****     static MemoryAllocator instance;
 367              		.loc 1 70 49 discriminator 1
 368 01e0 130101FF 		addi	sp,sp,-16
 369              		.cfi_def_cfa_offset 16
 370 01e4 23341100 		sd	ra,8(sp)
 371 01e8 23308100 		sd	s0,0(sp)
 372              		.cfi_offset 1, -8
 373              		.cfi_offset 8, -16
 374 01ec 13040101 		addi	s0,sp,16
 375              		.cfi_def_cfa 8, 0
  71:src/MemoryAllocator.cpp ****     return instance;
 376              		.loc 1 71 28 discriminator 1
 377 01f0 17050000 		lla	a0,.LANCHOR0+8
 377      13050500 
 378 01f8 97000000 		call	_ZN15MemoryAllocatorC1Ev
 378      E7800000 
 379              	.LVL35:
 380 0200 93071000 		li	a5,1
 381 0204 17070000 		sb	a5,.LANCHOR0,a4
 381      2300F700 
  72:src/MemoryAllocator.cpp **** }
 382              		.loc 1 72 5 is_stmt 1 discriminator 1
 383              		.loc 1 73 1 is_stmt 0 discriminator 1
 384 020c 17050000 		lla	a0,.LANCHOR0+8
 384      13050500 
 385 0214 83308100 		ld	ra,8(sp)
 386              		.cfi_restore 1
 387 0218 03340100 		ld	s0,0(sp)
 388              		.cfi_restore 8
GAS LISTING /tmp/ccFRp6yI.s 			page 10


 389              		.cfi_def_cfa 2, 16
 390 021c 13010101 		addi	sp,sp,16
 391              		.cfi_def_cfa_offset 0
 392 0220 67800000 		jr	ra
 393              		.cfi_endproc
 394              	.LFE6:
 396              		.bss
 397              		.align	3
 398              		.set	.LANCHOR0,. + 0
 401              	_ZGVZN15MemoryAllocator11getInstanceEvE8instance:
 402 0000 00000000 		.zero	8
 402      00000000 
 405              	_ZZN15MemoryAllocator11getInstanceEvE8instance:
 406 0008 00000000 		.zero	8
 406      00000000 
 407              		.text
 408              	.Letext0:
 409              		.file 2 "src/../h/../lib/hw.h"
 410              		.file 3 "src/../h/MemoryAllocator.h"
GAS LISTING /tmp/ccFRp6yI.s 			page 11

