GAS LISTING /tmp/ccHIgYR3.s 			page 1


   1              		.file	"PutBuffer.cpp"
   2              		.option pic
   3              		.option norelax
   4              		.text
   5              	.Ltext0:
   6              		.align	2
   7              		.globl	_ZN9PutBufferC2Ei
   9              	_ZN9PutBufferC2Ei:
  10              	.LFB17:
  11              		.file 1 "src/PutBuffer.cpp"
   1:src/PutBuffer.cpp **** //
   2:src/PutBuffer.cpp **** // Created by os on 6/30/22.
   3:src/PutBuffer.cpp **** //
   4:src/PutBuffer.cpp **** 
   5:src/PutBuffer.cpp **** #include "../h/PutBuffer.h"
   6:src/PutBuffer.cpp **** PutBuffer* PutBuffer::putBuffer = nullptr;
   7:src/PutBuffer.cpp **** 
   8:src/PutBuffer.cpp **** PutBuffer::PutBuffer(int _cap) :cap(_cap + 1), head(0), tail(0) {
  12              		.loc 1 8 1
  13              		.cfi_startproc
  14              	.LVL0:
  15 0000 130101FE 		addi	sp,sp,-32
  16              		.cfi_def_cfa_offset 32
  17 0004 233C1100 		sd	ra,24(sp)
  18 0008 23388100 		sd	s0,16(sp)
  19 000c 23349100 		sd	s1,8(sp)
  20              		.cfi_offset 1, -8
  21              		.cfi_offset 8, -16
  22              		.cfi_offset 9, -24
  23 0010 13040102 		addi	s0,sp,32
  24              		.cfi_def_cfa 8, 0
  25 0014 93040500 		mv	s1,a0
  26              	.LBB2:
  27              		.loc 1 8 42 is_stmt 0
  28 0018 9B851500 		addiw	a1,a1,1
  29              	.LVL1:
  30              		.loc 1 8 63
  31 001c 2320B500 		sw	a1,0(a0)
  32 0020 23280500 		sw	zero,16(a0)
  33 0024 232A0500 		sw	zero,20(a0)
   9:src/PutBuffer.cpp ****     buffer = (char*) MemoryAllocator::getInstance().allocate(cap*sizeof (char));
  34              		.loc 1 9 5 is_stmt 1
  35              		.loc 1 9 51 is_stmt 0
  36 0028 97000000 		call	_ZN15MemoryAllocator11getInstanceEv@plt
  36      E7800000 
  37              	.LVL2:
  38              		.loc 1 9 61
  39 0030 83A50400 		lw	a1,0(s1)
  40 0034 97000000 		call	_ZN15MemoryAllocator8allocateEm@plt
  40      E7800000 
  41              	.LVL3:
  42              		.loc 1 9 12
  43 003c 23B4A400 		sd	a0,8(s1)
  10:src/PutBuffer.cpp ****     item = 0;
  44              		.loc 1 10 5 is_stmt 1
  45              		.loc 1 10 10 is_stmt 0
  46 0040 23AC0400 		sw	zero,24(s1)
GAS LISTING /tmp/ccHIgYR3.s 			page 2


  11:src/PutBuffer.cpp ****     sem_open(&spaceAvailable, cap);
  47              		.loc 1 11 5 is_stmt 1
  48              		.loc 1 11 13 is_stmt 0
  49 0044 83A50400 		lw	a1,0(s1)
  50 0048 13850402 		addi	a0,s1,32
  51 004c 97000000 		call	_Z8sem_openPP10CSemaphorej@plt
  51      E7800000 
  52              	.LVL4:
  53              	.LBE2:
  12:src/PutBuffer.cpp **** }
  54              		.loc 1 12 1
  55 0054 83308101 		ld	ra,24(sp)
  56              		.cfi_restore 1
  57 0058 03340101 		ld	s0,16(sp)
  58              		.cfi_restore 8
  59              		.cfi_def_cfa 2, 32
  60 005c 83348100 		ld	s1,8(sp)
  61              		.cfi_restore 9
  62              	.LVL5:
  63 0060 13010102 		addi	sp,sp,32
  64              		.cfi_def_cfa_offset 0
  65 0064 67800000 		jr	ra
  66              		.cfi_endproc
  67              	.LFE17:
  69              		.globl	_ZN9PutBufferC1Ei
  70              		.set	_ZN9PutBufferC1Ei,_ZN9PutBufferC2Ei
  71              		.align	2
  72              		.globl	_ZN9PutBufferD2Ev
  74              	_ZN9PutBufferD2Ev:
  75              	.LFB20:
  13:src/PutBuffer.cpp **** 
  14:src/PutBuffer.cpp **** PutBuffer::~PutBuffer() {
  76              		.loc 1 14 1 is_stmt 1
  77              		.cfi_startproc
  78              		.cfi_personality 0x9b,DW.ref.__gxx_personality_v0
  79              		.cfi_lsda 0x1b,.LLSDA20
  80              	.LVL6:
  81 0068 130101FE 		addi	sp,sp,-32
  82              		.cfi_def_cfa_offset 32
  83 006c 233C1100 		sd	ra,24(sp)
  84 0070 23388100 		sd	s0,16(sp)
  85 0074 23349100 		sd	s1,8(sp)
  86              		.cfi_offset 1, -8
  87              		.cfi_offset 8, -16
  88              		.cfi_offset 9, -24
  89 0078 13040102 		addi	s0,sp,32
  90              		.cfi_def_cfa 8, 0
  91 007c 93040500 		mv	s1,a0
  92              	.LBB3:
  15:src/PutBuffer.cpp ****     mem_free(buffer);
  93              		.loc 1 15 5
  94              		.loc 1 15 13 is_stmt 0
  95 0080 03358500 		ld	a0,8(a0)
  96              	.LVL7:
  97 0084 97000000 		call	_Z8mem_freePv@plt
  97      E7800000 
  98              	.LVL8:
GAS LISTING /tmp/ccHIgYR3.s 			page 3


  16:src/PutBuffer.cpp ****     sem_close(spaceAvailable);
  99              		.loc 1 16 5 is_stmt 1
 100              		.loc 1 16 14 is_stmt 0
 101 008c 03B50402 		ld	a0,32(s1)
 102 0090 97000000 		call	_Z9sem_closeP10CSemaphore@plt
 102      E7800000 
 103              	.LVL9:
 104              	.LBE3:
  17:src/PutBuffer.cpp **** }
 105              		.loc 1 17 1
 106 0098 83308101 		ld	ra,24(sp)
 107              		.cfi_restore 1
 108 009c 03340101 		ld	s0,16(sp)
 109              		.cfi_restore 8
 110              		.cfi_def_cfa 2, 32
 111 00a0 83348100 		ld	s1,8(sp)
 112              		.cfi_restore 9
 113              	.LVL10:
 114 00a4 13010102 		addi	sp,sp,32
 115              		.cfi_def_cfa_offset 0
 116 00a8 67800000 		jr	ra
 117              		.cfi_endproc
 118              	.LFE20:
 119              		.globl	__gxx_personality_v0
 120              		.section	.gcc_except_table,"a",@progbits
 121              	.LLSDA20:
 122 0000 FF       		.byte	0xff
 123 0001 FF       		.byte	0xff
 124 0002 03       		.byte	0x3
 125 0003 00       		.byte	0
 126              		.text
 128              		.globl	_ZN9PutBufferD1Ev
 129              		.set	_ZN9PutBufferD1Ev,_ZN9PutBufferD2Ev
 130              		.align	2
 131              		.globl	_ZN9PutBuffer3putEc
 133              	_ZN9PutBuffer3putEc:
 134              	.LFB22:
  18:src/PutBuffer.cpp **** 
  19:src/PutBuffer.cpp **** void PutBuffer::put(char val) {
 135              		.loc 1 19 31 is_stmt 1
 136              		.cfi_startproc
 137              	.LVL11:
 138 00ac 130101FE 		addi	sp,sp,-32
 139              		.cfi_def_cfa_offset 32
 140 00b0 233C1100 		sd	ra,24(sp)
 141 00b4 23388100 		sd	s0,16(sp)
 142 00b8 23349100 		sd	s1,8(sp)
 143 00bc 23302101 		sd	s2,0(sp)
 144              		.cfi_offset 1, -8
 145              		.cfi_offset 8, -16
 146              		.cfi_offset 9, -24
 147              		.cfi_offset 18, -32
 148 00c0 13040102 		addi	s0,sp,32
 149              		.cfi_def_cfa 8, 0
 150 00c4 93040500 		mv	s1,a0
 151 00c8 13890500 		mv	s2,a1
  20:src/PutBuffer.cpp ****     spaceAvailable->wait();
GAS LISTING /tmp/ccHIgYR3.s 			page 4


 152              		.loc 1 20 5
 153              		.loc 1 20 25 is_stmt 0
 154 00cc 03350502 		ld	a0,32(a0)
 155              	.LVL12:
 156 00d0 97000000 		call	_ZN10CSemaphore4waitEv@plt
 156      E7800000 
 157              	.LVL13:
  21:src/PutBuffer.cpp **** 
  22:src/PutBuffer.cpp ****     buffer[tail] = val;
 158              		.loc 1 22 5 is_stmt 1
 159 00d8 83B78400 		ld	a5,8(s1)
 160              		.loc 1 22 12 is_stmt 0
 161 00dc 03A74401 		lw	a4,20(s1)
 162              		.loc 1 22 16
 163 00e0 B387E700 		add	a5,a5,a4
 164              		.loc 1 22 18
 165 00e4 23802701 		sb	s2,0(a5)
  23:src/PutBuffer.cpp ****     tail = (tail + 1) % cap;
 166              		.loc 1 23 5 is_stmt 1
 167              		.loc 1 23 13 is_stmt 0
 168 00e8 83A74401 		lw	a5,20(s1)
 169              		.loc 1 23 18
 170 00ec 9B871700 		addiw	a5,a5,1
 171              		.loc 1 23 25
 172 00f0 03A70400 		lw	a4,0(s1)
 173              		.loc 1 23 23
 174 00f4 BBE7E702 		remw	a5,a5,a4
 175              		.loc 1 23 10
 176 00f8 23AAF400 		sw	a5,20(s1)
  24:src/PutBuffer.cpp **** 
  25:src/PutBuffer.cpp ****     item++;
 177              		.loc 1 25 5 is_stmt 1
 178 00fc 83A78401 		lw	a5,24(s1)
 179              		.loc 1 25 9 is_stmt 0
 180 0100 9B871700 		addiw	a5,a5,1
 181 0104 23ACF400 		sw	a5,24(s1)
  26:src/PutBuffer.cpp **** }
 182              		.loc 1 26 1
 183 0108 83308101 		ld	ra,24(sp)
 184              		.cfi_restore 1
 185 010c 03340101 		ld	s0,16(sp)
 186              		.cfi_restore 8
 187              		.cfi_def_cfa 2, 32
 188 0110 83348100 		ld	s1,8(sp)
 189              		.cfi_restore 9
 190              	.LVL14:
 191 0114 03390100 		ld	s2,0(sp)
 192              		.cfi_restore 18
 193 0118 13010102 		addi	sp,sp,32
 194              		.cfi_def_cfa_offset 0
 195 011c 67800000 		jr	ra
 196              		.cfi_endproc
 197              	.LFE22:
 199              		.align	2
 200              		.globl	_ZN9PutBuffer3getEv
 202              	_ZN9PutBuffer3getEv:
 203              	.LFB23:
GAS LISTING /tmp/ccHIgYR3.s 			page 5


  27:src/PutBuffer.cpp **** 
  28:src/PutBuffer.cpp **** char PutBuffer::get() {
 204              		.loc 1 28 23 is_stmt 1
 205              		.cfi_startproc
 206              	.LVL15:
 207 0120 130101FE 		addi	sp,sp,-32
 208              		.cfi_def_cfa_offset 32
 209 0124 233C1100 		sd	ra,24(sp)
 210 0128 23388100 		sd	s0,16(sp)
 211 012c 23349100 		sd	s1,8(sp)
 212              		.cfi_offset 1, -8
 213              		.cfi_offset 8, -16
 214              		.cfi_offset 9, -24
 215 0130 13040102 		addi	s0,sp,32
 216              		.cfi_def_cfa 8, 0
  29:src/PutBuffer.cpp ****     if(item<=0) return '\0';
 217              		.loc 1 29 5
 218              		.loc 1 29 8 is_stmt 0
 219 0134 83278501 		lw	a5,24(a0)
 220              		.loc 1 29 5
 221 0138 6358F004 		blez	a5,.L9
  30:src/PutBuffer.cpp ****     else item--;
 222              		.loc 1 30 10 is_stmt 1
 223              		.loc 1 30 14 is_stmt 0
 224 013c 9B87F7FF 		addiw	a5,a5,-1
 225 0140 232CF500 		sw	a5,24(a0)
  31:src/PutBuffer.cpp **** 
  32:src/PutBuffer.cpp ****     char ret = buffer[head];
 226              		.loc 1 32 5 is_stmt 1
 227              		.loc 1 32 16 is_stmt 0
 228 0144 03378500 		ld	a4,8(a0)
 229              		.loc 1 32 23
 230 0148 83270501 		lw	a5,16(a0)
 231              		.loc 1 32 27
 232 014c 3307F700 		add	a4,a4,a5
 233              		.loc 1 32 10
 234 0150 83440700 		lbu	s1,0(a4)
 235              	.LVL16:
  33:src/PutBuffer.cpp ****     head = (head + 1) % cap;
 236              		.loc 1 33 5 is_stmt 1
 237              		.loc 1 33 18 is_stmt 0
 238 0154 9B871700 		addiw	a5,a5,1
 239              		.loc 1 33 25
 240 0158 03270500 		lw	a4,0(a0)
 241              		.loc 1 33 23
 242 015c BBE7E702 		remw	a5,a5,a4
 243              		.loc 1 33 10
 244 0160 2328F500 		sw	a5,16(a0)
  34:src/PutBuffer.cpp **** 
  35:src/PutBuffer.cpp ****     spaceAvailable->signal();
 245              		.loc 1 35 5 is_stmt 1
 246              		.loc 1 35 27 is_stmt 0
 247 0164 03350502 		ld	a0,32(a0)
 248              	.LVL17:
 249 0168 97000000 		call	_ZN10CSemaphore6signalEv@plt
 249      E7800000 
 250              	.LVL18:
GAS LISTING /tmp/ccHIgYR3.s 			page 6


  36:src/PutBuffer.cpp ****     return ret;
 251              		.loc 1 36 5 is_stmt 1
 252              	.L8:
  37:src/PutBuffer.cpp **** }
 253              		.loc 1 37 1 is_stmt 0
 254 0170 13850400 		mv	a0,s1
 255 0174 83308101 		ld	ra,24(sp)
 256              		.cfi_remember_state
 257              		.cfi_restore 1
 258 0178 03340101 		ld	s0,16(sp)
 259              		.cfi_restore 8
 260              		.cfi_def_cfa 2, 32
 261 017c 83348100 		ld	s1,8(sp)
 262              		.cfi_restore 9
 263 0180 13010102 		addi	sp,sp,32
 264              		.cfi_def_cfa_offset 0
 265 0184 67800000 		jr	ra
 266              	.LVL19:
 267              	.L9:
 268              		.cfi_restore_state
  29:src/PutBuffer.cpp ****     else item--;
 269              		.loc 1 29 24
 270 0188 93040000 		li	s1,0
 271 018c 6FF05FFE 		j	.L8
 272              		.cfi_endproc
 273              	.LFE23:
 275              		.align	2
 276              		.globl	_ZN9PutBuffer6getCntEv
 278              	_ZN9PutBuffer6getCntEv:
 279              	.LFB24:
  38:src/PutBuffer.cpp **** 
  39:src/PutBuffer.cpp **** int PutBuffer::getCnt() {
 280              		.loc 1 39 25 is_stmt 1
 281              		.cfi_startproc
 282              	.LVL20:
 283 0190 130101FF 		addi	sp,sp,-16
 284              		.cfi_def_cfa_offset 16
 285 0194 23348100 		sd	s0,8(sp)
 286              		.cfi_offset 8, -8
 287 0198 13040101 		addi	s0,sp,16
 288              		.cfi_def_cfa 8, 0
  40:src/PutBuffer.cpp ****     int ret;
 289              		.loc 1 40 5
  41:src/PutBuffer.cpp **** 
  42:src/PutBuffer.cpp ****     if (tail >= head) {
 290              		.loc 1 42 5
 291              		.loc 1 42 9 is_stmt 0
 292 019c 83274501 		lw	a5,20(a0)
 293              		.loc 1 42 17
 294 01a0 03270501 		lw	a4,16(a0)
 295              		.loc 1 42 5
 296 01a4 63CAE700 		blt	a5,a4,.L12
  43:src/PutBuffer.cpp ****         ret = tail - head;
 297              		.loc 1 43 9 is_stmt 1
 298              		.loc 1 43 13 is_stmt 0
 299 01a8 3B85E740 		subw	a0,a5,a4
 300              	.LVL21:
GAS LISTING /tmp/ccHIgYR3.s 			page 7


 301              	.L13:
  44:src/PutBuffer.cpp ****     } else {
  45:src/PutBuffer.cpp ****         ret = cap - head + tail;
  46:src/PutBuffer.cpp ****     }
  47:src/PutBuffer.cpp **** 
  48:src/PutBuffer.cpp **** 
  49:src/PutBuffer.cpp ****     return ret;
 302              		.loc 1 49 5 is_stmt 1
  50:src/PutBuffer.cpp **** }...
 303              		.loc 1 50 1 is_stmt 0
 304 01ac 03348100 		ld	s0,8(sp)
 305              		.cfi_remember_state
 306              		.cfi_restore 8
 307              		.cfi_def_cfa 2, 16
 308 01b0 13010101 		addi	sp,sp,16
 309              		.cfi_def_cfa_offset 0
 310 01b4 67800000 		jr	ra
 311              	.LVL22:
 312              	.L12:
 313              		.cfi_restore_state
  45:src/PutBuffer.cpp ****         ret = cap - head + tail;
 314              		.loc 1 45 9 is_stmt 1
  45:src/PutBuffer.cpp ****         ret = cap - head + tail;
 315              		.loc 1 45 15 is_stmt 0
 316 01b8 03250500 		lw	a0,0(a0)
 317              	.LVL23:
  45:src/PutBuffer.cpp ****         ret = cap - head + tail;
 318              		.loc 1 45 19
 319 01bc 3B05E540 		subw	a0,a0,a4
  45:src/PutBuffer.cpp ****         ret = cap - head + tail;
 320              		.loc 1 45 13
 321 01c0 3B05F500 		addw	a0,a0,a5
 322              	.LVL24:
 323 01c4 6FF09FFE 		j	.L13
 324              		.cfi_endproc
 325              	.LFE24:
 327              		.globl	_ZN9PutBuffer9putBufferE
 328              		.bss
 329              		.align	3
 332              	_ZN9PutBuffer9putBufferE:
 333 0000 00000000 		.zero	8
 333      00000000 
 334              		.text
 335              	.Letext0:
 336              		.file 2 "src/../h/../lib/hw.h"
 337              		.file 3 "src/../h/MemoryAllocator.h"
 338              		.file 4 "src/../h/CThread.h"
 339              		.file 5 "src/../h/CSemaphore.h"
 340              		.file 6 "src/../h/PutBuffer.h"
 341              		.file 7 "src/../h/syscall_c.h"
 2818              		.align	3
 2821              	DW.ref.__gxx_personality_v0:
 2822 0000 00000000 		.dword	__gxx_personality_v0
 2822      00000000 
 2823              		.ident	"GCC: (Ubuntu 9.4.0-1ubuntu1~20.04) 9.4.0"
 2824              		.section	.note.GNU-stack,"",@progbits
GAS LISTING /tmp/ccHIgYR3.s 			page 8

