GAS LISTING /tmp/ccQMahU6.s 			page 1


   1              		.file	"Scheduler.cpp"
   2              		.option pic
   3              		.option norelax
   4              		.text
   5              	.Ltext0:
   6              		.align	2
   7              		.globl	_ZN9Scheduler3putEP7CThread
   9              	_ZN9Scheduler3putEP7CThread:
  10              	.LFB7:
  11              		.file 1 "src/Scheduler.cpp"
   1:src/Scheduler.cpp **** //
   2:src/Scheduler.cpp **** // Created by os on 6/21/22.
   3:src/Scheduler.cpp **** //
   4:src/Scheduler.cpp **** 
   5:src/Scheduler.cpp **** #include "../h/Scheduler.h"
   6:src/Scheduler.cpp **** CThread* Scheduler::tail = nullptr;
   7:src/Scheduler.cpp **** CThread* Scheduler::head = nullptr;
   8:src/Scheduler.cpp **** 
   9:src/Scheduler.cpp **** void Scheduler::put(CThread *thread) {
  12              		.loc 1 9 38
  13              		.cfi_startproc
  14              	.LVL0:
  15 0000 130101FF 		addi	sp,sp,-16
  16              		.cfi_def_cfa_offset 16
  17 0004 23348100 		sd	s0,8(sp)
  18              		.cfi_offset 8, -8
  19 0008 13040101 		addi	s0,sp,16
  20              		.cfi_def_cfa 8, 0
  10:src/Scheduler.cpp ****     if(CThread::idle == thread) return;
  21              		.loc 1 10 5
  22              		.loc 1 10 22 is_stmt 0
  23 000c 97070000 		la	a5,_ZN7CThread4idleE
  23      83B70700 
  24 0014 83B70700 		ld	a5,0(a5)
  25              		.loc 1 10 5
  26 0018 6386A702 		beq	a5,a0,.L1
  11:src/Scheduler.cpp ****     thread->status=CThread::READY;
  27              		.loc 1 11 5 is_stmt 1
  28              		.loc 1 11 19 is_stmt 0
  29 001c 23280500 		sw	zero,16(a0)
  12:src/Scheduler.cpp ****     if(head == nullptr){
  30              		.loc 1 12 5 is_stmt 1
  31              		.loc 1 12 13 is_stmt 0
  32 0020 97070000 		ld	a5,.LANCHOR0
  32      83B70700 
  33              		.loc 1 12 5
  34 0028 63840702 		beqz	a5,.L5
  13:src/Scheduler.cpp ****         head=tail=thread;
  14:src/Scheduler.cpp ****         thread->next= nullptr;
  15:src/Scheduler.cpp ****         return;
  16:src/Scheduler.cpp ****     }
  17:src/Scheduler.cpp ****     else{
  18:src/Scheduler.cpp ****         tail->next=thread;
  35              		.loc 1 18 9 is_stmt 1
  36              		.loc 1 18 15 is_stmt 0
  37 002c 97070000 		lla	a5,.LANCHOR0
  37      93870700 
GAS LISTING /tmp/ccQMahU6.s 			page 2


  38 0034 03B78700 		ld	a4,8(a5)
  39              		.loc 1 18 19
  40 0038 2334A700 		sd	a0,8(a4)
  19:src/Scheduler.cpp ****         tail=tail->next;
  41              		.loc 1 19 9 is_stmt 1
  42              		.loc 1 19 13 is_stmt 0
  43 003c 23B4A700 		sd	a0,8(a5)
  20:src/Scheduler.cpp ****         tail->next= nullptr;
  44              		.loc 1 20 9 is_stmt 1
  45              		.loc 1 20 19 is_stmt 0
  46 0040 23340500 		sd	zero,8(a0)
  47              	.L1:
  21:src/Scheduler.cpp ****     }
  22:src/Scheduler.cpp **** }
  48              		.loc 1 22 1
  49 0044 03348100 		ld	s0,8(sp)
  50              		.cfi_remember_state
  51              		.cfi_restore 8
  52              		.cfi_def_cfa 2, 16
  53 0048 13010101 		addi	sp,sp,16
  54              		.cfi_def_cfa_offset 0
  55 004c 67800000 		jr	ra
  56              	.L5:
  57              		.cfi_restore_state
  13:src/Scheduler.cpp ****         thread->next= nullptr;
  58              		.loc 1 13 9 is_stmt 1
  13:src/Scheduler.cpp ****         thread->next= nullptr;
  59              		.loc 1 13 18 is_stmt 0
  60 0050 97070000 		lla	a5,.LANCHOR0
  60      93870700 
  61 0058 23B4A700 		sd	a0,8(a5)
  13:src/Scheduler.cpp ****         thread->next= nullptr;
  62              		.loc 1 13 13
  63 005c 23B0A700 		sd	a0,0(a5)
  14:src/Scheduler.cpp ****         return;
  64              		.loc 1 14 9 is_stmt 1
  14:src/Scheduler.cpp ****         return;
  65              		.loc 1 14 21 is_stmt 0
  66 0060 23340500 		sd	zero,8(a0)
  15:src/Scheduler.cpp ****     }
  67              		.loc 1 15 9 is_stmt 1
  68 0064 6FF01FFE 		j	.L1
  69              		.cfi_endproc
  70              	.LFE7:
  72              		.align	2
  73              		.globl	_ZN9Scheduler3getEv
  75              	_ZN9Scheduler3getEv:
  76              	.LFB8:
  23:src/Scheduler.cpp **** 
  24:src/Scheduler.cpp **** CThread *Scheduler::get() {
  77              		.loc 1 24 27
  78              		.cfi_startproc
  79 0068 130101FF 		addi	sp,sp,-16
  80              		.cfi_def_cfa_offset 16
  81 006c 23348100 		sd	s0,8(sp)
  82              		.cfi_offset 8, -8
  83 0070 13040101 		addi	s0,sp,16
GAS LISTING /tmp/ccQMahU6.s 			page 3


  84              		.cfi_def_cfa 8, 0
  25:src/Scheduler.cpp ****     if(head== nullptr)return CThread::idle;
  85              		.loc 1 25 5
  86              		.loc 1 25 12 is_stmt 0
  87 0074 17050000 		ld	a0,.LANCHOR0
  87      03350500 
  88              		.loc 1 25 5
  89 007c 63060502 		beqz	a0,.L11
  26:src/Scheduler.cpp ****     if(tail==head){
  90              		.loc 1 26 5 is_stmt 1
  91              	.LBB2:
  92              		.loc 1 26 12 is_stmt 0
  93 0080 97070000 		ld	a5,.LANCHOR0+8
  93      83B70700 
  94              		.loc 1 26 5
  95 0088 6308F502 		beq	a0,a5,.L12
  96              	.LBE2:
  27:src/Scheduler.cpp ****         CThread *thr=head;
  28:src/Scheduler.cpp ****         tail= nullptr;
  29:src/Scheduler.cpp ****         head= nullptr;
  30:src/Scheduler.cpp ****         return thr;
  31:src/Scheduler.cpp ****     }
  32:src/Scheduler.cpp ****     CThread *thr=head;
  97              		.loc 1 32 5 is_stmt 1
  98              	.LVL1:
  33:src/Scheduler.cpp ****     head=head->next;
  99              		.loc 1 33 5
 100              		.loc 1 33 16 is_stmt 0
 101 008c 83378500 		ld	a5,8(a0)
 102              		.loc 1 33 9
 103 0090 17070000 		sd	a5,.LANCHOR0,a4
 103      2330F700 
  34:src/Scheduler.cpp ****     thr->next= nullptr;
 104              		.loc 1 34 5 is_stmt 1
 105              		.loc 1 34 14 is_stmt 0
 106 0098 23340500 		sd	zero,8(a0)
  35:src/Scheduler.cpp ****     return thr;
 107              		.loc 1 35 5 is_stmt 1
 108              	.LVL2:
 109              	.L6:
  36:src/Scheduler.cpp **** 
  37:src/Scheduler.cpp **** }
 110              		.loc 1 37 1 is_stmt 0
 111 009c 03348100 		ld	s0,8(sp)
 112              		.cfi_remember_state
 113              		.cfi_restore 8
 114              		.cfi_def_cfa 2, 16
 115 00a0 13010101 		addi	sp,sp,16
 116              		.cfi_def_cfa_offset 0
 117 00a4 67800000 		jr	ra
 118              	.L11:
 119              		.cfi_restore_state
  25:src/Scheduler.cpp ****     if(tail==head){
 120              		.loc 1 25 23 is_stmt 1 discriminator 1
  25:src/Scheduler.cpp ****     if(tail==head){
 121              		.loc 1 25 39 is_stmt 0 discriminator 1
 122 00a8 97070000 		la	a5,_ZN7CThread4idleE
GAS LISTING /tmp/ccQMahU6.s 			page 4


 122      83B70700 
 123 00b0 03B50700 		ld	a0,0(a5)
 124 00b4 6FF09FFE 		j	.L6
 125              	.L12:
 126              	.LBB4:
 127              	.LBB3:
  27:src/Scheduler.cpp ****         tail= nullptr;
 128              		.loc 1 27 9 is_stmt 1
 129              	.LVL3:
  28:src/Scheduler.cpp ****         head= nullptr;
 130              		.loc 1 28 9
  28:src/Scheduler.cpp ****         head= nullptr;
 131              		.loc 1 28 13 is_stmt 0
 132 00b8 97070000 		lla	a5,.LANCHOR0
 132      93870700 
 133 00c0 23B40700 		sd	zero,8(a5)
  29:src/Scheduler.cpp ****         return thr;
 134              		.loc 1 29 9 is_stmt 1
  29:src/Scheduler.cpp ****         return thr;
 135              		.loc 1 29 13 is_stmt 0
 136 00c4 23B00700 		sd	zero,0(a5)
  30:src/Scheduler.cpp ****     }
 137              		.loc 1 30 9 is_stmt 1
  30:src/Scheduler.cpp ****     }
 138              		.loc 1 30 16 is_stmt 0
 139 00c8 6FF05FFD 		j	.L6
 140              	.LBE3:
 141              	.LBE4:
 142              		.cfi_endproc
 143              	.LFE8:
 145              		.align	2
 146              		.globl	_ZN9Scheduler11getInstanceEv
 148              	_ZN9Scheduler11getInstanceEv:
 149              	.LFB9:
  38:src/Scheduler.cpp **** 
  39:src/Scheduler.cpp **** Scheduler &Scheduler::getInstance() {
 150              		.loc 1 39 37 is_stmt 1
 151              		.cfi_startproc
 152 00cc 130101FF 		addi	sp,sp,-16
 153              		.cfi_def_cfa_offset 16
 154 00d0 23348100 		sd	s0,8(sp)
 155              		.cfi_offset 8, -8
 156 00d4 13040101 		addi	s0,sp,16
 157              		.cfi_def_cfa 8, 0
  40:src/Scheduler.cpp ****     static Scheduler instance;
 158              		.loc 1 40 5
 159              		.loc 1 40 22 is_stmt 0
 160 00d8 97070000 		lbu	a5,.LANCHOR0+16
 160      83C70700 
 161 00e0 63980700 		bnez	a5,.L14
 162              		.loc 1 40 22 discriminator 1
 163 00e4 93071000 		li	a5,1
 164 00e8 17070000 		sb	a5,.LANCHOR0+16,a4
 164      2300F700 
 165              	.L14:
  41:src/Scheduler.cpp ****     return instance;
 166              		.loc 1 41 5 is_stmt 1
GAS LISTING /tmp/ccQMahU6.s 			page 5


  42:src/Scheduler.cpp **** }
 167              		.loc 1 42 1 is_stmt 0
 168 00f0 17050000 		lla	a0,.LANCHOR0+24
 168      13050500 
 169 00f8 03348100 		ld	s0,8(sp)
 170              		.cfi_restore 8
 171              		.cfi_def_cfa 2, 16
 172 00fc 13010101 		addi	sp,sp,16
 173              		.cfi_def_cfa_offset 0
 174 0100 67800000 		jr	ra
 175              		.cfi_endproc
 176              	.LFE9:
 178              		.align	2
 179              		.globl	_ZN9SchedulerC2Ev
 181              	_ZN9SchedulerC2Ev:
 182              	.LFB11:
  43:src/Scheduler.cpp **** 
  44:src/Scheduler.cpp **** Scheduler::Scheduler(){}...
 183              		.loc 1 44 1 is_stmt 1
 184              		.cfi_startproc
 185              	.LVL4:
 186 0104 130101FF 		addi	sp,sp,-16
 187              		.cfi_def_cfa_offset 16
 188 0108 23348100 		sd	s0,8(sp)
 189              		.cfi_offset 8, -8
 190 010c 13040101 		addi	s0,sp,16
 191              		.cfi_def_cfa 8, 0
 192              		.loc 1 44 24 is_stmt 0
 193 0110 03348100 		ld	s0,8(sp)
 194              		.cfi_restore 8
 195              		.cfi_def_cfa 2, 16
 196 0114 13010101 		addi	sp,sp,16
 197              		.cfi_def_cfa_offset 0
 198 0118 67800000 		jr	ra
 199              		.cfi_endproc
 200              	.LFE11:
 202              		.globl	_ZN9SchedulerC1Ev
 203              		.set	_ZN9SchedulerC1Ev,_ZN9SchedulerC2Ev
 204              		.globl	_ZN9Scheduler4headE
 205              		.globl	_ZN9Scheduler4tailE
 206              		.bss
 207              		.align	3
 208              		.set	.LANCHOR0,. + 0
 211              	_ZN9Scheduler4headE:
 212 0000 00000000 		.zero	8
 212      00000000 
 215              	_ZN9Scheduler4tailE:
 216 0008 00000000 		.zero	8
 216      00000000 
 219              	_ZGVZN9Scheduler11getInstanceEvE8instance:
 220 0010 00000000 		.zero	8
 220      00000000 
 223              	_ZZN9Scheduler11getInstanceEvE8instance:
 224 0018 00       		.zero	1
 225              		.text
 226              	.Letext0:
 227              		.file 2 "src/../h/../lib/hw.h"
GAS LISTING /tmp/ccQMahU6.s 			page 6


 228              		.file 3 "src/../h/CThread.h"
 229              		.file 4 "src/../h/Scheduler.h"
GAS LISTING /tmp/ccQMahU6.s 			page 7

