GAS LISTING /tmp/ccZNRvDb.s 			page 1


   1              		.file	"Sleep.cpp"
   2              		.option pic
   3              		.option norelax
   4              		.text
   5              	.Ltext0:
   6              		.align	2
   7              		.globl	_Z4swapP7CThreadS0_
   9              	_Z4swapP7CThreadS0_:
  10              	.LFB8:
  11              		.file 1 "src/Sleep.cpp"
   1:src/Sleep.cpp **** //
   2:src/Sleep.cpp **** // Created by os on 6/30/22.
   3:src/Sleep.cpp **** //
   4:src/Sleep.cpp **** 
   5:src/Sleep.cpp **** #include "../h/Sleep.h"
   6:src/Sleep.cpp **** 
   7:src/Sleep.cpp **** CThread *Sleep::headSleep = nullptr;
   8:src/Sleep.cpp **** int Sleep::count = 0;
   9:src/Sleep.cpp **** 
  10:src/Sleep.cpp **** void bubbleSort(CThread **, int);
  11:src/Sleep.cpp **** 
  12:src/Sleep.cpp **** void Sleep::sleep(time_t time) {
  13:src/Sleep.cpp ****     if(time <= 0) return;
  14:src/Sleep.cpp ****     count++;
  15:src/Sleep.cpp ****     CThread *element = CThread::running;
  16:src/Sleep.cpp ****     element->sleepTime = time;
  17:src/Sleep.cpp ****     element->status = CThread::SLEEP;
  18:src/Sleep.cpp ****     //ubacuje u niz
  19:src/Sleep.cpp ****     element->next = headSleep;
  20:src/Sleep.cpp ****     headSleep = element;
  21:src/Sleep.cpp **** 
  22:src/Sleep.cpp ****     //sortira
  23:src/Sleep.cpp ****     bubbleSort(&headSleep, count);
  24:src/Sleep.cpp ****     //dispathc
  25:src/Sleep.cpp ****     CThread::yield();
  26:src/Sleep.cpp **** }
  27:src/Sleep.cpp **** 
  28:src/Sleep.cpp **** CThread *swap(CThread *ptr1, CThread *ptr2) {
  12              		.loc 1 28 45
  13              		.cfi_startproc
  14              	.LVL0:
  15 0000 130101FF 		addi	sp,sp,-16
  16              		.cfi_def_cfa_offset 16
  17 0004 23348100 		sd	s0,8(sp)
  18              		.cfi_offset 8, -8
  19 0008 13040101 		addi	s0,sp,16
  20              		.cfi_def_cfa 8, 0
  21 000c 93070500 		mv	a5,a0
  22 0010 13850500 		mv	a0,a1
  23              	.LVL1:
  29:src/Sleep.cpp ****     CThread *tmp = ptr2->next;
  24              		.loc 1 29 5
  25              		.loc 1 29 14 is_stmt 0
  26 0014 03B78500 		ld	a4,8(a1)
  27              	.LVL2:
  30:src/Sleep.cpp ****     ptr2->next = ptr1;
  28              		.loc 1 30 5 is_stmt 1
GAS LISTING /tmp/ccZNRvDb.s 			page 2


  29              		.loc 1 30 16 is_stmt 0
  30 0018 23B4F500 		sd	a5,8(a1)
  31:src/Sleep.cpp ****     ptr1->next = tmp;
  31              		.loc 1 31 5 is_stmt 1
  32              		.loc 1 31 16 is_stmt 0
  33 001c 23B4E700 		sd	a4,8(a5)
  32:src/Sleep.cpp ****     return ptr2;
  34              		.loc 1 32 5 is_stmt 1
  33:src/Sleep.cpp **** }
  35              		.loc 1 33 1 is_stmt 0
  36 0020 03348100 		ld	s0,8(sp)
  37              		.cfi_restore 8
  38              		.cfi_def_cfa 2, 16
  39 0024 13010101 		addi	sp,sp,16
  40              		.cfi_def_cfa_offset 0
  41 0028 67800000 		jr	ra
  42              		.cfi_endproc
  43              	.LFE8:
  45              		.align	2
  46              		.globl	_Z10bubbleSortPP7CThreadi
  48              	_Z10bubbleSortPP7CThreadi:
  49              	.LFB9:
  34:src/Sleep.cpp **** 
  35:src/Sleep.cpp **** void bubbleSort(CThread **head, int count) {
  50              		.loc 1 35 44 is_stmt 1
  51              		.cfi_startproc
  52              	.LVL3:
  53 002c 130101FC 		addi	sp,sp,-64
  54              		.cfi_def_cfa_offset 64
  55 0030 233C1102 		sd	ra,56(sp)
  56 0034 23388102 		sd	s0,48(sp)
  57 0038 23349102 		sd	s1,40(sp)
  58 003c 23302103 		sd	s2,32(sp)
  59 0040 233C3101 		sd	s3,24(sp)
  60 0044 23384101 		sd	s4,16(sp)
  61 0048 23345101 		sd	s5,8(sp)
  62              		.cfi_offset 1, -8
  63              		.cfi_offset 8, -16
  64              		.cfi_offset 9, -24
  65              		.cfi_offset 18, -32
  66              		.cfi_offset 19, -40
  67              		.cfi_offset 20, -48
  68              		.cfi_offset 21, -56
  69 004c 13040104 		addi	s0,sp,64
  70              		.cfi_def_cfa 8, 0
  71 0050 930A0500 		mv	s5,a0
  72 0054 93890500 		mv	s3,a1
  36:src/Sleep.cpp ****     CThread **h;
  73              		.loc 1 36 5
  37:src/Sleep.cpp ****     int i, j, swapped;
  74              		.loc 1 37 5
  38:src/Sleep.cpp ****     for (i = 0; i <= count; i++) {
  75              		.loc 1 38 5
  76              	.LVL4:
  77              	.LBB2:
  78              		.loc 1 38 12 is_stmt 0
  79 0058 130A0000 		li	s4,0
GAS LISTING /tmp/ccZNRvDb.s 			page 3


  80              	.LVL5:
  81              	.L8:
  82              		.loc 1 38 19 is_stmt 1 discriminator 1
  83 005c 63CC4905 		bgt	s4,s3,.L3
  84              	.LBB3:
  39:src/Sleep.cpp ****         h = head;
  85              		.loc 1 39 11 is_stmt 0
  86 0060 93840A00 		mv	s1,s5
  40:src/Sleep.cpp ****         swapped = 0;
  87              		.loc 1 40 17
  88 0064 93060000 		li	a3,0
  89              	.LBB4:
  41:src/Sleep.cpp ****         for (j = 0; j < count - i - 1; j++) {
  90              		.loc 1 41 16
  91 0068 13090000 		li	s2,0
  92 006c 6F000002 		j	.L7
  93              	.LVL6:
  94              	.L10:
  95              	.LBB5:
  42:src/Sleep.cpp ****             CThread *p1 = *h;
  43:src/Sleep.cpp ****             CThread *p2 = p1->next;
  44:src/Sleep.cpp ****             if (p1->sleepTime > p2->sleepTime) {
  45:src/Sleep.cpp ****                 *h = swap(p1, p2);
  96              		.loc 1 45 17 is_stmt 1
  97              		.loc 1 45 26 is_stmt 0
  98 0070 97000000 		call	_Z4swapP7CThreadS0_
  98      E7800000 
  99              	.LVL7:
 100              		.loc 1 45 20
 101 0078 23B0A400 		sd	a0,0(s1)
  46:src/Sleep.cpp ****                 swapped = 1;
 102              		.loc 1 46 17 is_stmt 1
 103              	.LVL8:
 104              		.loc 1 46 25 is_stmt 0
 105 007c 93061000 		li	a3,1
 106              	.LVL9:
 107              	.L6:
  47:src/Sleep.cpp ****             }
  48:src/Sleep.cpp ****             h = &(*h)->next;
 108              		.loc 1 48 13 is_stmt 1 discriminator 2
 109              		.loc 1 48 19 is_stmt 0 discriminator 2
 110 0080 83B40400 		ld	s1,0(s1)
 111              	.LVL10:
 112              		.loc 1 48 15 discriminator 2
 113 0084 93848400 		addi	s1,s1,8
 114              	.LVL11:
 115              	.LBE5:
  41:src/Sleep.cpp ****             CThread *p1 = *h;
 116              		.loc 1 41 9 is_stmt 1 discriminator 2
 117 0088 1B091900 		addiw	s2,s2,1
 118              	.LVL12:
 119              	.L7:
  41:src/Sleep.cpp ****             CThread *p1 = *h;
 120              		.loc 1 41 23 discriminator 1
  41:src/Sleep.cpp ****             CThread *p1 = *h;
 121              		.loc 1 41 31 is_stmt 0 discriminator 1
 122 008c BB874941 		subw	a5,s3,s4
GAS LISTING /tmp/ccZNRvDb.s 			page 4


  41:src/Sleep.cpp ****             CThread *p1 = *h;
 123              		.loc 1 41 35 discriminator 1
 124 0090 9B87F7FF 		addiw	a5,a5,-1
  41:src/Sleep.cpp ****             CThread *p1 = *h;
 125              		.loc 1 41 23 discriminator 1
 126 0094 635EF900 		ble	a5,s2,.L5
 127              	.LBB6:
  42:src/Sleep.cpp ****             CThread *p2 = p1->next;
 128              		.loc 1 42 13 is_stmt 1
  42:src/Sleep.cpp ****             CThread *p2 = p1->next;
 129              		.loc 1 42 22 is_stmt 0
 130 0098 03B50400 		ld	a0,0(s1)
 131              	.LVL13:
  43:src/Sleep.cpp ****             if (p1->sleepTime > p2->sleepTime) {
 132              		.loc 1 43 13 is_stmt 1
  43:src/Sleep.cpp ****             if (p1->sleepTime > p2->sleepTime) {
 133              		.loc 1 43 22 is_stmt 0
 134 009c 83358500 		ld	a1,8(a0)
 135              	.LVL14:
  44:src/Sleep.cpp ****                 *h = swap(p1, p2);
 136              		.loc 1 44 13 is_stmt 1
  44:src/Sleep.cpp ****                 *h = swap(p1, p2);
 137              		.loc 1 44 21 is_stmt 0
 138 00a0 03270500 		lw	a4,0(a0)
  44:src/Sleep.cpp ****                 *h = swap(p1, p2);
 139              		.loc 1 44 37
 140 00a4 83A70500 		lw	a5,0(a1)
  44:src/Sleep.cpp ****                 *h = swap(p1, p2);
 141              		.loc 1 44 13
 142 00a8 E3DCE7FC 		ble	a4,a5,.L6
 143 00ac 6FF05FFC 		j	.L10
 144              	.LVL15:
 145              	.L5:
 146              	.LBE6:
 147              	.LBE4:
  49:src/Sleep.cpp ****         }
  50:src/Sleep.cpp ****         if (swapped == 0)
 148              		.loc 1 50 9 is_stmt 1
 149 00b0 63940602 		bnez	a3,.L11
 150              	.LVL16:
 151              	.L3:
 152              	.LBE3:
 153              	.LBE2:
  51:src/Sleep.cpp ****             break;
  52:src/Sleep.cpp ****     }
  53:src/Sleep.cpp **** }...
 154              		.loc 1 53 1 is_stmt 0
 155 00b4 83308103 		ld	ra,56(sp)
 156              		.cfi_remember_state
 157              		.cfi_restore 1
 158 00b8 03340103 		ld	s0,48(sp)
 159              		.cfi_restore 8
 160              		.cfi_def_cfa 2, 64
 161 00bc 83348102 		ld	s1,40(sp)
 162              		.cfi_restore 9
 163 00c0 03390102 		ld	s2,32(sp)
 164              		.cfi_restore 18
GAS LISTING /tmp/ccZNRvDb.s 			page 5


 165 00c4 83398101 		ld	s3,24(sp)
 166              		.cfi_restore 19
 167 00c8 033A0101 		ld	s4,16(sp)
 168              		.cfi_restore 20
 169              	.LVL17:
 170 00cc 833A8100 		ld	s5,8(sp)
 171              		.cfi_restore 21
 172              	.LVL18:
 173 00d0 13010104 		addi	sp,sp,64
 174              		.cfi_def_cfa_offset 0
 175 00d4 67800000 		jr	ra
 176              	.LVL19:
 177              	.L11:
 178              		.cfi_restore_state
 179              	.LBB7:
  38:src/Sleep.cpp ****     for (i = 0; i <= count; i++) {
 180              		.loc 1 38 5 is_stmt 1 discriminator 2
 181 00d8 1B0A1A00 		addiw	s4,s4,1
 182              	.LVL20:
 183 00dc 6FF01FF8 		j	.L8
 184              	.LBE7:
 185              		.cfi_endproc
 186              	.LFE9:
 188              		.align	2
 189              		.globl	_ZN5Sleep5sleepEm
 191              	_ZN5Sleep5sleepEm:
 192              	.LFB7:
  12:src/Sleep.cpp **** void Sleep::sleep(time_t time) {
 193              		.loc 1 12 32
 194              		.cfi_startproc
 195              	.LVL21:
  13:src/Sleep.cpp ****     if(time <= 0) return;
 196              		.loc 1 13 5
 197 00e0 63140500 		bnez	a0,.L18
 198 00e4 67800000 		ret
 199              	.L18:
  12:src/Sleep.cpp **** void Sleep::sleep(time_t time) {
 200              		.loc 1 12 32 is_stmt 0
 201 00e8 130101FF 		addi	sp,sp,-16
 202              		.cfi_def_cfa_offset 16
 203 00ec 23341100 		sd	ra,8(sp)
 204 00f0 23308100 		sd	s0,0(sp)
 205              		.cfi_offset 1, -8
 206              		.cfi_offset 8, -16
 207 00f4 13040101 		addi	s0,sp,16
 208              		.cfi_def_cfa 8, 0
  14:src/Sleep.cpp ****     count++;
 209              		.loc 1 14 5 is_stmt 1
  14:src/Sleep.cpp ****     count++;
 210              		.loc 1 14 10 is_stmt 0
 211 00f8 97070000 		lla	a5,.LANCHOR0
 211      93870700 
 212 0100 03A70700 		lw	a4,0(a5)
 213 0104 1B071700 		addiw	a4,a4,1
 214 0108 23A0E700 		sw	a4,0(a5)
  15:src/Sleep.cpp ****     CThread *element = CThread::running;
 215              		.loc 1 15 5 is_stmt 1
GAS LISTING /tmp/ccZNRvDb.s 			page 6


  15:src/Sleep.cpp ****     CThread *element = CThread::running;
 216              		.loc 1 15 14 is_stmt 0
 217 010c 17070000 		la	a4,_ZN7CThread7runningE
 217      03370700 
 218 0114 03370700 		ld	a4,0(a4)
 219              	.LVL22:
  16:src/Sleep.cpp ****     element->sleepTime = time;
 220              		.loc 1 16 5 is_stmt 1
  16:src/Sleep.cpp ****     element->sleepTime = time;
 221              		.loc 1 16 24 is_stmt 0
 222 0118 2320A700 		sw	a0,0(a4)
  17:src/Sleep.cpp ****     element->status = CThread::SLEEP;
 223              		.loc 1 17 5 is_stmt 1
  17:src/Sleep.cpp ****     element->status = CThread::SLEEP;
 224              		.loc 1 17 21 is_stmt 0
 225 011c 93062000 		li	a3,2
 226 0120 2328D700 		sw	a3,16(a4)
  19:src/Sleep.cpp ****     element->next = headSleep;
 227              		.loc 1 19 5 is_stmt 1
  19:src/Sleep.cpp ****     element->next = headSleep;
 228              		.loc 1 19 19 is_stmt 0
 229 0124 83B68700 		ld	a3,8(a5)
 230 0128 2334D700 		sd	a3,8(a4)
  20:src/Sleep.cpp ****     headSleep = element;
 231              		.loc 1 20 5 is_stmt 1
  20:src/Sleep.cpp ****     headSleep = element;
 232              		.loc 1 20 15 is_stmt 0
 233 012c 23B4E700 		sd	a4,8(a5)
  23:src/Sleep.cpp ****     bubbleSort(&headSleep, count);
 234              		.loc 1 23 5 is_stmt 1
  23:src/Sleep.cpp ****     bubbleSort(&headSleep, count);
 235              		.loc 1 23 15 is_stmt 0
 236 0130 83A50700 		lw	a1,0(a5)
 237 0134 17050000 		lla	a0,.LANCHOR0+8
 237      13050500 
 238              	.LVL23:
 239 013c 97000000 		call	_Z10bubbleSortPP7CThreadi
 239      E7800000 
 240              	.LVL24:
  25:src/Sleep.cpp ****     CThread::yield();
 241              		.loc 1 25 5 is_stmt 1
  25:src/Sleep.cpp ****     CThread::yield();
 242              		.loc 1 25 19 is_stmt 0
 243 0144 97000000 		call	_ZN7CThread5yieldEv@plt
 243      E7800000 
 244              	.LVL25:
  26:src/Sleep.cpp **** }
 245              		.loc 1 26 1
 246 014c 83308100 		ld	ra,8(sp)
 247              		.cfi_restore 1
 248 0150 03340100 		ld	s0,0(sp)
 249              		.cfi_restore 8
 250              		.cfi_def_cfa 2, 16
 251 0154 13010101 		addi	sp,sp,16
 252              		.cfi_def_cfa_offset 0
 253 0158 67800000 		jr	ra
 254              		.cfi_endproc
GAS LISTING /tmp/ccZNRvDb.s 			page 7


 255              	.LFE7:
 257              		.globl	_ZN5Sleep5countE
 258              		.globl	_ZN5Sleep9headSleepE
 259              		.bss
 260              		.align	3
 261              		.set	.LANCHOR0,. + 0
 264              	_ZN5Sleep5countE:
 265 0000 00000000 		.zero	4
 266 0004 00000000 		.zero	4
 269              	_ZN5Sleep9headSleepE:
 270 0008 00000000 		.zero	8
 270      00000000 
 271              		.text
 272              	.Letext0:
 273              		.file 2 "src/../h/../lib/hw.h"
 274              		.file 3 "src/../h/CThread.h"
 275              		.file 4 "src/../h/Sleep.h"
GAS LISTING /tmp/ccZNRvDb.s 			page 8


DEFINED SYMBOLS
                            *ABS*:0000000000000000 Sleep.cpp
     /tmp/ccZNRvDb.s:9      .text:0000000000000000 _Z4swapP7CThreadS0_
     /tmp/ccZNRvDb.s:13     .text:0000000000000000 .L0 
     /tmp/ccZNRvDb.s:15     .text:0000000000000000 .L0 
     /tmp/ccZNRvDb.s:16     .text:0000000000000004 .L0 
     /tmp/ccZNRvDb.s:18     .text:0000000000000008 .L0 
     /tmp/ccZNRvDb.s:20     .text:000000000000000c .L0 
     /tmp/ccZNRvDb.s:25     .text:0000000000000014 .L0 
     /tmp/ccZNRvDb.s:26     .text:0000000000000014 .L0 
     /tmp/ccZNRvDb.s:29     .text:0000000000000018 .L0 
     /tmp/ccZNRvDb.s:30     .text:0000000000000018 .L0 
     /tmp/ccZNRvDb.s:32     .text:000000000000001c .L0 
     /tmp/ccZNRvDb.s:33     .text:000000000000001c .L0 
     /tmp/ccZNRvDb.s:35     .text:0000000000000020 .L0 
     /tmp/ccZNRvDb.s:36     .text:0000000000000020 .L0 
     /tmp/ccZNRvDb.s:37     .text:0000000000000024 .L0 
     /tmp/ccZNRvDb.s:38     .text:0000000000000024 .L0 
     /tmp/ccZNRvDb.s:40     .text:0000000000000028 .L0 
     /tmp/ccZNRvDb.s:42     .text:000000000000002c .L0 
     /tmp/ccZNRvDb.s:48     .text:000000000000002c _Z10bubbleSortPP7CThreadi
     /tmp/ccZNRvDb.s:51     .text:000000000000002c .L0 
     /tmp/ccZNRvDb.s:53     .text:000000000000002c .L0 
     /tmp/ccZNRvDb.s:54     .text:0000000000000030 .L0 
     /tmp/ccZNRvDb.s:62     .text:000000000000004c .L0 
     /tmp/ccZNRvDb.s:63     .text:000000000000004c .L0 
     /tmp/ccZNRvDb.s:64     .text:000000000000004c .L0 
     /tmp/ccZNRvDb.s:65     .text:000000000000004c .L0 
     /tmp/ccZNRvDb.s:66     .text:000000000000004c .L0 
     /tmp/ccZNRvDb.s:67     .text:000000000000004c .L0 
     /tmp/ccZNRvDb.s:68     .text:000000000000004c .L0 
     /tmp/ccZNRvDb.s:70     .text:0000000000000050 .L0 
     /tmp/ccZNRvDb.s:74     .text:0000000000000058 .L0 
     /tmp/ccZNRvDb.s:75     .text:0000000000000058 .L0 
     /tmp/ccZNRvDb.s:78     .text:0000000000000058 .L0 
     /tmp/ccZNRvDb.s:79     .text:0000000000000058 .L0 
     /tmp/ccZNRvDb.s:83     .text:000000000000005c .L0 
     /tmp/ccZNRvDb.s:86     .text:0000000000000060 .L0 
     /tmp/ccZNRvDb.s:88     .text:0000000000000064 .L0 
     /tmp/ccZNRvDb.s:91     .text:0000000000000068 .L0 
     /tmp/ccZNRvDb.s:97     .text:0000000000000070 .L0 
     /tmp/ccZNRvDb.s:98     .text:0000000000000070 .L0 
     /tmp/ccZNRvDb.s:101    .text:0000000000000078 .L0 
     /tmp/ccZNRvDb.s:104    .text:000000000000007c .L0 
     /tmp/ccZNRvDb.s:105    .text:000000000000007c .L0 
     /tmp/ccZNRvDb.s:109    .text:0000000000000080 .L0 
     /tmp/ccZNRvDb.s:110    .text:0000000000000080 .L0 
     /tmp/ccZNRvDb.s:113    .text:0000000000000084 .L0 
     /tmp/ccZNRvDb.s:117    .text:0000000000000088 .L0 
     /tmp/ccZNRvDb.s:121    .text:000000000000008c .L0 
     /tmp/ccZNRvDb.s:122    .text:000000000000008c .L0 
     /tmp/ccZNRvDb.s:124    .text:0000000000000090 .L0 
     /tmp/ccZNRvDb.s:126    .text:0000000000000094 .L0 
     /tmp/ccZNRvDb.s:129    .text:0000000000000098 .L0 
     /tmp/ccZNRvDb.s:130    .text:0000000000000098 .L0 
     /tmp/ccZNRvDb.s:133    .text:000000000000009c .L0 
     /tmp/ccZNRvDb.s:134    .text:000000000000009c .L0 
GAS LISTING /tmp/ccZNRvDb.s 			page 9


     /tmp/ccZNRvDb.s:137    .text:00000000000000a0 .L0 
     /tmp/ccZNRvDb.s:138    .text:00000000000000a0 .L0 
     /tmp/ccZNRvDb.s:140    .text:00000000000000a4 .L0 
     /tmp/ccZNRvDb.s:142    .text:00000000000000a8 .L0 
     /tmp/ccZNRvDb.s:149    .text:00000000000000b0 .L0 
     /tmp/ccZNRvDb.s:155    .text:00000000000000b4 .L0 
     /tmp/ccZNRvDb.s:156    .text:00000000000000b8 .L0 
     /tmp/ccZNRvDb.s:157    .text:00000000000000b8 .L0 
     /tmp/ccZNRvDb.s:159    .text:00000000000000bc .L0 
     /tmp/ccZNRvDb.s:160    .text:00000000000000bc .L0 
     /tmp/ccZNRvDb.s:162    .text:00000000000000c0 .L0 
     /tmp/ccZNRvDb.s:164    .text:00000000000000c4 .L0 
     /tmp/ccZNRvDb.s:166    .text:00000000000000c8 .L0 
     /tmp/ccZNRvDb.s:168    .text:00000000000000cc .L0 
     /tmp/ccZNRvDb.s:171    .text:00000000000000d0 .L0 
     /tmp/ccZNRvDb.s:174    .text:00000000000000d4 .L0 
     /tmp/ccZNRvDb.s:178    .text:00000000000000d8 .L0 
     /tmp/ccZNRvDb.s:181    .text:00000000000000d8 .L0 
     /tmp/ccZNRvDb.s:185    .text:00000000000000e0 .L0 
     /tmp/ccZNRvDb.s:191    .text:00000000000000e0 _ZN5Sleep5sleepEm
     /tmp/ccZNRvDb.s:194    .text:00000000000000e0 .L0 
     /tmp/ccZNRvDb.s:196    .text:00000000000000e0 .L0 
     /tmp/ccZNRvDb.s:197    .text:00000000000000e0 .L0 
     /tmp/ccZNRvDb.s:201    .text:00000000000000e8 .L0 
     /tmp/ccZNRvDb.s:202    .text:00000000000000ec .L0 
     /tmp/ccZNRvDb.s:205    .text:00000000000000f4 .L0 
     /tmp/ccZNRvDb.s:206    .text:00000000000000f4 .L0 
     /tmp/ccZNRvDb.s:208    .text:00000000000000f8 .L0 
     /tmp/ccZNRvDb.s:210    .text:00000000000000f8 .L0 
     /tmp/ccZNRvDb.s:211    .text:00000000000000f8 .L0 
     /tmp/ccZNRvDb.s:216    .text:000000000000010c .L0 
     /tmp/ccZNRvDb.s:217    .text:000000000000010c .L0 
     /tmp/ccZNRvDb.s:221    .text:0000000000000118 .L0 
     /tmp/ccZNRvDb.s:222    .text:0000000000000118 .L0 
     /tmp/ccZNRvDb.s:224    .text:000000000000011c .L0 
     /tmp/ccZNRvDb.s:225    .text:000000000000011c .L0 
     /tmp/ccZNRvDb.s:228    .text:0000000000000124 .L0 
     /tmp/ccZNRvDb.s:229    .text:0000000000000124 .L0 
     /tmp/ccZNRvDb.s:232    .text:000000000000012c .L0 
     /tmp/ccZNRvDb.s:233    .text:000000000000012c .L0 
     /tmp/ccZNRvDb.s:235    .text:0000000000000130 .L0 
     /tmp/ccZNRvDb.s:236    .text:0000000000000130 .L0 
     /tmp/ccZNRvDb.s:242    .text:0000000000000144 .L0 
     /tmp/ccZNRvDb.s:243    .text:0000000000000144 .L0 
     /tmp/ccZNRvDb.s:246    .text:000000000000014c .L0 
     /tmp/ccZNRvDb.s:247    .text:0000000000000150 .L0 
     /tmp/ccZNRvDb.s:249    .text:0000000000000154 .L0 
     /tmp/ccZNRvDb.s:250    .text:0000000000000154 .L0 
     /tmp/ccZNRvDb.s:252    .text:0000000000000158 .L0 
     /tmp/ccZNRvDb.s:254    .text:000000000000015c .L0 
     /tmp/ccZNRvDb.s:264    .bss:0000000000000000 _ZN5Sleep5countE
     /tmp/ccZNRvDb.s:269    .bss:0000000000000008 _ZN5Sleep9headSleepE
     /tmp/ccZNRvDb.s:261    .bss:0000000000000000 .LANCHOR0
     /tmp/ccZNRvDb.s:276    .text:000000000000015c .L0 
     /tmp/ccZNRvDb.s:211    .text:00000000000000f8 .L0 
     /tmp/ccZNRvDb.s:217    .text:000000000000010c .L0 
     /tmp/ccZNRvDb.s:237    .text:0000000000000134 .L0 
GAS LISTING /tmp/ccZNRvDb.s 			page 10


     /tmp/ccZNRvDb.s:151    .text:00000000000000b4 .L3
     /tmp/ccZNRvDb.s:119    .text:000000000000008c .L7
     /tmp/ccZNRvDb.s:145    .text:00000000000000b0 .L5
     /tmp/ccZNRvDb.s:107    .text:0000000000000080 .L6
     /tmp/ccZNRvDb.s:94     .text:0000000000000070 .L10
     /tmp/ccZNRvDb.s:177    .text:00000000000000d8 .L11
     /tmp/ccZNRvDb.s:81     .text:000000000000005c .L8
     /tmp/ccZNRvDb.s:199    .text:00000000000000e8 .L18
     /tmp/ccZNRvDb.s:948    .debug_abbrev:0000000000000000 .Ldebug_abbrev0
     /tmp/ccZNRvDb.s:2006   .debug_str:00000000000003a9 .LASF78
     /tmp/ccZNRvDb.s:2008   .debug_str:000000000000046d .LASF79
     /tmp/ccZNRvDb.s:1990   .debug_str:0000000000000323 .LASF80
     /tmp/ccZNRvDb.s:5      .text:0000000000000000 .Ltext0
     /tmp/ccZNRvDb.s:272    .text:000000000000015c .Letext0
     /tmp/ccZNRvDb.s:1864   .debug_line:0000000000000000 .Ldebug_line0
     /tmp/ccZNRvDb.s:1942   .debug_str:000000000000020d .LASF0
     /tmp/ccZNRvDb.s:1962   .debug_str:000000000000026a .LASF1
     /tmp/ccZNRvDb.s:1930   .debug_str:00000000000001ca .LASF2
     /tmp/ccZNRvDb.s:1918   .debug_str:0000000000000186 .LASF4
     /tmp/ccZNRvDb.s:1992   .debug_str:0000000000000349 .LASF3
     /tmp/ccZNRvDb.s:1878   .debug_str:0000000000000069 .LASF5
     /tmp/ccZNRvDb.s:1898   .debug_str:00000000000000e1 .LASF6
     /tmp/ccZNRvDb.s:1966   .debug_str:0000000000000284 .LASF7
     /tmp/ccZNRvDb.s:1940   .debug_str:00000000000001fa .LASF8
     /tmp/ccZNRvDb.s:2020   .debug_str:00000000000004b0 .LASF9
     /tmp/ccZNRvDb.s:1914   .debug_str:000000000000014c .LASF10
     /tmp/ccZNRvDb.s:1976   .debug_str:00000000000002bd .LASF11
     /tmp/ccZNRvDb.s:1968   .debug_str:0000000000000297 .LASF12
     /tmp/ccZNRvDb.s:1882   .debug_str:0000000000000087 .LASF13
     /tmp/ccZNRvDb.s:1870   .debug_str:0000000000000024 .LASF14
     /tmp/ccZNRvDb.s:1888   .debug_str:00000000000000ad .LASF15
     /tmp/ccZNRvDb.s:1984   .debug_str:00000000000002ed .LASF16
     /tmp/ccZNRvDb.s:1894   .debug_str:00000000000000c6 .LASF17
     /tmp/ccZNRvDb.s:2030   .debug_str:00000000000004e3 .LASF44
     /tmp/ccZNRvDb.s:2010   .debug_str:000000000000047b .LASF81
     /tmp/ccZNRvDb.s:1974   .debug_str:00000000000002b7 .LASF18
     /tmp/ccZNRvDb.s:1994   .debug_str:000000000000035b .LASF19
     /tmp/ccZNRvDb.s:1958   .debug_str:000000000000025c .LASF20
     /tmp/ccZNRvDb.s:1920   .debug_str:000000000000018d .LASF21
     /tmp/ccZNRvDb.s:1972   .debug_str:00000000000002af .LASF22
     /tmp/ccZNRvDb.s:1872   .debug_str:0000000000000034 .LASF82
     /tmp/ccZNRvDb.s:2032   .debug_str:00000000000004eb .LASF27
     /tmp/ccZNRvDb.s:1956   .debug_str:000000000000024c .LASF29
     /tmp/ccZNRvDb.s:1902   .debug_str:00000000000000f8 .LASF23
     /tmp/ccZNRvDb.s:1944   .debug_str:000000000000021a .LASF25
     /tmp/ccZNRvDb.s:1998   .debug_str:0000000000000376 .LASF24
     /tmp/ccZNRvDb.s:1978   .debug_str:00000000000002cc .LASF26
     /tmp/ccZNRvDb.s:1926   .debug_str:00000000000001b2 .LASF28
     /tmp/ccZNRvDb.s:2034   .debug_str:00000000000004f8 .LASF30
     /tmp/ccZNRvDb.s:1980   .debug_str:00000000000002dd .LASF83
     /tmp/ccZNRvDb.s:1946   .debug_str:000000000000022b .LASF40
     /tmp/ccZNRvDb.s:1910   .debug_str:000000000000012b .LASF42
     /tmp/ccZNRvDb.s:1868   .debug_str:000000000000001a .LASF69
     /tmp/ccZNRvDb.s:1874   .debug_str:000000000000003c .LASF71
     /tmp/ccZNRvDb.s:1932   .debug_str:00000000000001d8 .LASF31
     /tmp/ccZNRvDb.s:2036   .debug_str:0000000000000520 .LASF32
     /tmp/ccZNRvDb.s:1954   .debug_str:0000000000000247 .LASF33
GAS LISTING /tmp/ccZNRvDb.s 			page 11


     /tmp/ccZNRvDb.s:2014   .debug_str:0000000000000488 .LASF37
     /tmp/ccZNRvDb.s:1938   .debug_str:00000000000001f5 .LASF34
     /tmp/ccZNRvDb.s:1904   .debug_str:0000000000000108 .LASF35
     /tmp/ccZNRvDb.s:1886   .debug_str:00000000000000a8 .LASF36
     /tmp/ccZNRvDb.s:2040   .debug_str:000000000000054b .LASF38
     /tmp/ccZNRvDb.s:1964   .debug_str:000000000000027d .LASF39
     /tmp/ccZNRvDb.s:1986   .debug_str:0000000000000303 .LASF41
     /tmp/ccZNRvDb.s:2042   .debug_str:0000000000000550 .LASF43
     /tmp/ccZNRvDb.s:1900   .debug_str:00000000000000e8 .LASF45
     /tmp/ccZNRvDb.s:1934   .debug_str:00000000000001e4 .LASF46
     /tmp/ccZNRvDb.s:2038   .debug_str:000000000000053b .LASF47
     /tmp/ccZNRvDb.s:1892   .debug_str:00000000000000be .LASF48
     /tmp/ccZNRvDb.s:1908   .debug_str:0000000000000115 .LASF50
     /tmp/ccZNRvDb.s:1982   .debug_str:00000000000002e2 .LASF49
     /tmp/ccZNRvDb.s:1988   .debug_str:0000000000000309 .LASF51
     /tmp/ccZNRvDb.s:1924   .debug_str:000000000000019a .LASF52
     /tmp/ccZNRvDb.s:1922   .debug_str:0000000000000195 .LASF53
     /tmp/ccZNRvDb.s:1950   .debug_str:000000000000023a .LASF54
     /tmp/ccZNRvDb.s:1948   .debug_str:0000000000000234 .LASF55
     /tmp/ccZNRvDb.s:1952   .debug_str:000000000000023f .LASF56
     /tmp/ccZNRvDb.s:2028   .debug_str:00000000000004d5 .LASF84
     /tmp/ccZNRvDb.s:1916   .debug_str:000000000000015a .LASF85
     /tmp/ccZNRvDb.s:1928   .debug_str:00000000000001bf .LASF86
     /tmp/ccZNRvDb.s:1970   .debug_str:00000000000002a6 .LASF57
     /tmp/ccZNRvDb.s:1880   .debug_str:0000000000000070 .LASF58
     /tmp/ccZNRvDb.s:1960   .debug_str:0000000000000262 .LASF59
     /tmp/ccZNRvDb.s:2016   .debug_str:0000000000000492 .LASF60
     /tmp/ccZNRvDb.s:1906   .debug_str:0000000000000110 .LASF61
     /tmp/ccZNRvDb.s:2012   .debug_str:0000000000000482 .LASF62
     /tmp/ccZNRvDb.s:1912   .debug_str:0000000000000142 .LASF63
     /tmp/ccZNRvDb.s:2000   .debug_str:0000000000000389 .LASF64
     /tmp/ccZNRvDb.s:1996   .debug_str:0000000000000364 .LASF65
     /tmp/ccZNRvDb.s:2002   .debug_str:000000000000038f .LASF66
     /tmp/ccZNRvDb.s:1876   .debug_str:0000000000000054 .LASF67
     /tmp/ccZNRvDb.s:1884   .debug_str:0000000000000097 .LASF68
     /tmp/ccZNRvDb.s:2022   .debug_str:00000000000004c0 .LASF70
     /tmp/ccZNRvDb.s:1866   .debug_str:0000000000000000 .LASF72
     /tmp/ccZNRvDb.s:49     .text:000000000000002c .LFB9
     /tmp/ccZNRvDb.s:186    .text:00000000000000e0 .LFE9
     /tmp/ccZNRvDb.s:1896   .debug_str:00000000000000dc .LASF73
     /tmp/ccZNRvDb.s:1691   .debug_loc:0000000000000000 .LLST1
     /tmp/ccZNRvDb.s:1713   .debug_loc:000000000000005f .LLST2
     /tmp/ccZNRvDb.s:1727   .debug_loc:0000000000000098 .LLST3
     /tmp/ccZNRvDb.s:1742   .debug_loc:00000000000000e1 .LLST4
     /tmp/ccZNRvDb.s:1758   .debug_loc:000000000000012b .LLST5
     /tmp/ccZNRvDb.s:1936   .debug_str:00000000000001ed .LASF74
     /tmp/ccZNRvDb.s:1769   .debug_loc:0000000000000161 .LLST6
     /tmp/ccZNRvDb.s:1856   .debug_ranges:0000000000000000 .Ldebug_ranges0
     /tmp/ccZNRvDb.s:1789   .debug_loc:00000000000001be .LLST7
     /tmp/ccZNRvDb.s:1800   .debug_loc:00000000000001f4 .LLST8
     /tmp/ccZNRvDb.s:99     .text:0000000000000078 .LVL7
     /tmp/ccZNRvDb.s:1890   .debug_str:00000000000000b9 .LASF87
     /tmp/ccZNRvDb.s:2004   .debug_str:0000000000000395 .LASF88
     /tmp/ccZNRvDb.s:10     .text:0000000000000000 .LFB8
     /tmp/ccZNRvDb.s:43     .text:000000000000002c .LFE8
     /tmp/ccZNRvDb.s:2024   .debug_str:00000000000004cb .LASF75
     /tmp/ccZNRvDb.s:1811   .debug_loc:000000000000022a .LLST0
GAS LISTING /tmp/ccZNRvDb.s 			page 12


     /tmp/ccZNRvDb.s:2026   .debug_str:00000000000004d0 .LASF76
     /tmp/ccZNRvDb.s:192    .text:00000000000000e0 .LFB7
     /tmp/ccZNRvDb.s:255    .text:000000000000015c .LFE7
     /tmp/ccZNRvDb.s:1822   .debug_loc:0000000000000260 .LLST9
     /tmp/ccZNRvDb.s:2018   .debug_str:00000000000004a8 .LASF77
     /tmp/ccZNRvDb.s:1836   .debug_loc:0000000000000299 .LLST10
     /tmp/ccZNRvDb.s:240    .text:0000000000000144 .LVL24
     /tmp/ccZNRvDb.s:244    .text:000000000000014c .LVL25
     /tmp/ccZNRvDb.s:52     .text:000000000000002c .LVL3
     /tmp/ccZNRvDb.s:80     .text:000000000000005c .LVL5
     /tmp/ccZNRvDb.s:172    .text:00000000000000d0 .LVL18
     /tmp/ccZNRvDb.s:176    .text:00000000000000d8 .LVL19
     /tmp/ccZNRvDb.s:93     .text:0000000000000070 .LVL6
     /tmp/ccZNRvDb.s:111    .text:0000000000000084 .LVL10
     /tmp/ccZNRvDb.s:114    .text:0000000000000088 .LVL11
     /tmp/ccZNRvDb.s:150    .text:00000000000000b4 .LVL16
     /tmp/ccZNRvDb.s:76     .text:0000000000000058 .LVL4
     /tmp/ccZNRvDb.s:169    .text:00000000000000cc .LVL17
     /tmp/ccZNRvDb.s:182    .text:00000000000000dc .LVL20
     /tmp/ccZNRvDb.s:103    .text:000000000000007c .LVL8
     /tmp/ccZNRvDb.s:106    .text:0000000000000080 .LVL9
     /tmp/ccZNRvDb.s:131    .text:000000000000009c .LVL13
     /tmp/ccZNRvDb.s:144    .text:00000000000000b0 .LVL15
     /tmp/ccZNRvDb.s:135    .text:00000000000000a0 .LVL14
     /tmp/ccZNRvDb.s:14     .text:0000000000000000 .LVL0
     /tmp/ccZNRvDb.s:23     .text:0000000000000014 .LVL1
     /tmp/ccZNRvDb.s:195    .text:00000000000000e0 .LVL21
     /tmp/ccZNRvDb.s:238    .text:000000000000013c .LVL23
     /tmp/ccZNRvDb.s:219    .text:0000000000000118 .LVL22
     /tmp/ccZNRvDb.s:277    .debug_info:0000000000000000 .Ldebug_info0
     /tmp/ccZNRvDb.s:95     .text:0000000000000070 .LBB5
     /tmp/ccZNRvDb.s:115    .text:0000000000000088 .LBE5
     /tmp/ccZNRvDb.s:127    .text:0000000000000098 .LBB6
     /tmp/ccZNRvDb.s:146    .text:00000000000000b0 .LBE6

UNDEFINED SYMBOLS
_ZN7CThread7runningE
_ZN7CThread5yieldEv
