GAS LISTING /tmp/ccUqZASJ.s 			page 1


   1              		.file	"syscall_c.cpp"
   2              		.option pic
   3              		.option norelax
   4              		.text
   5              	.Ltext0:
   6              		.align	2
   7              		.globl	_Z8mem_freePv
   9              	_Z8mem_freePv:
  10              	.LFB12:
  11              		.file 1 "src/syscall_c.cpp"
   1:src/syscall_c.cpp **** //
   2:src/syscall_c.cpp **** // Created by os on 5/29/22.
   3:src/syscall_c.cpp **** //
   4:src/syscall_c.cpp **** 
   5:src/syscall_c.cpp **** #include "../h/syscall_c.h"
   6:src/syscall_c.cpp **** 
   7:src/syscall_c.cpp **** int mem_free(void * param) {
  12              		.loc 1 7 28
  13              		.cfi_startproc
  14              	.LVL0:
  15 0000 130101FF 		addi	sp,sp,-16
  16              		.cfi_def_cfa_offset 16
  17 0004 23348100 		sd	s0,8(sp)
  18              		.cfi_offset 8, -8
  19 0008 13040101 		addi	s0,sp,16
  20              		.cfi_def_cfa 8, 0
   8:src/syscall_c.cpp ****     asm volatile("mv a1, %0"::"r"(param));
  21              		.loc 1 8 5
  22              		.loc 1 8 42 is_stmt 0
  23              	#APP
  24              	# 8 "src/syscall_c.cpp" 1
   9              	    asm volatile("li a0, 0x02");
  25              		mv a1, a0
  26              	# 0 "" 2
  27              		.loc 1 9 5 is_stmt 1
  28              		.loc 1 9 32 is_stmt 0
  29              	# 9 "src/syscall_c.cpp" 1
  10              	    asm volatile("ecall");
  30              		li a0, 0x02
  31              	# 0 "" 2
  32              		.loc 1 10 5 is_stmt 1
  33              		.loc 1 10 26 is_stmt 0
  34              	# 10 "src/syscall_c.cpp" 1
  11              	    return 0;
  35              		ecall
  36              	# 0 "" 2
  37              		.loc 1 11 5 is_stmt 1
  12:src/syscall_c.cpp **** }
  38              		.loc 1 12 1 is_stmt 0
  39              	#NO_APP
  40 0018 13050000 		li	a0,0
  41              	.LVL1:
  42 001c 03348100 		ld	s0,8(sp)
  43              		.cfi_restore 8
  44              		.cfi_def_cfa 2, 16
  45 0020 13010101 		addi	sp,sp,16
  46              		.cfi_def_cfa_offset 0
GAS LISTING /tmp/ccUqZASJ.s 			page 2


  47 0024 67800000 		jr	ra
  48              		.cfi_endproc
  49              	.LFE12:
  51              		.align	2
  52              		.globl	_Z9mem_allocm
  54              	_Z9mem_allocm:
  55              	.LFB13:
  13:src/syscall_c.cpp **** 
  14:src/syscall_c.cpp **** void *mem_alloc(size_t size) {
  56              		.loc 1 14 30 is_stmt 1
  57              		.cfi_startproc
  58              	.LVL2:
  59 0028 130101FF 		addi	sp,sp,-16
  60              		.cfi_def_cfa_offset 16
  61 002c 23348100 		sd	s0,8(sp)
  62              		.cfi_offset 8, -8
  63 0030 13040101 		addi	s0,sp,16
  64              		.cfi_def_cfa 8, 0
  15:src/syscall_c.cpp ****     //1-size poravnati na blokove
  16:src/syscall_c.cpp ****     //MEM_BLOCK_SIZE
  17:src/syscall_c.cpp ****     int brBlokova = size/MEM_BLOCK_SIZE;
  65              		.loc 1 17 5
  66              		.loc 1 17 25 is_stmt 0
  67 0034 93576500 		srli	a5,a0,6
  68              		.loc 1 17 9
  69 0038 9B870700 		sext.w	a5,a5
  70              	.LVL3:
  18:src/syscall_c.cpp ****     if (size % MEM_BLOCK_SIZE >0) brBlokova++;
  71              		.loc 1 18 5 is_stmt 1
  72              		.loc 1 18 14 is_stmt 0
  73 003c 1375F503 		andi	a0,a0,63
  74              	.LVL4:
  75              		.loc 1 18 5
  76 0040 63040500 		beqz	a0,.L4
  77              		.loc 1 18 35 is_stmt 1 discriminator 1
  78              		.loc 1 18 44 is_stmt 0 discriminator 1
  79 0044 9B871700 		addiw	a5,a5,1
  80              	.LVL5:
  81              	.L4:
  19:src/syscall_c.cpp ****     size_t param = brBlokova*MEM_BLOCK_SIZE;
  82              		.loc 1 19 5 is_stmt 1
  83              		.loc 1 19 12 is_stmt 0
  84 0048 93976700 		slli	a5,a5,6
  85              	.LVL6:
  20:src/syscall_c.cpp ****     //2-vraca pointer na alociranu mem ili null
  21:src/syscall_c.cpp ****     asm volatile("mv a1, %0"::"r"(param));
  86              		.loc 1 21 5 is_stmt 1
  87              		.loc 1 21 42 is_stmt 0
  88              	#APP
  89              	# 21 "src/syscall_c.cpp" 1
  22              	    asm volatile("li a0, 0x01");
  90              		mv a1, a5
  91              	# 0 "" 2
  92              		.loc 1 22 5 is_stmt 1
  93              		.loc 1 22 32 is_stmt 0
  94              	# 22 "src/syscall_c.cpp" 1
  23              	    asm volatile("ecall");
GAS LISTING /tmp/ccUqZASJ.s 			page 3


  95              		li a0, 0x01
  96              	# 0 "" 2
  97              		.loc 1 23 5 is_stmt 1
  98              		.loc 1 23 26 is_stmt 0
  99              	# 23 "src/syscall_c.cpp" 1
  24              	    void* ret;
 100              		ecall
 101              	# 0 "" 2
 102              		.loc 1 24 5 is_stmt 1
  25:src/syscall_c.cpp ****     asm volatile("mv %0, a0":"=r"(ret));
 103              		.loc 1 25 5
 104              		.loc 1 25 40 is_stmt 0
 105              	# 25 "src/syscall_c.cpp" 1
  26              	    return ret;
 106              		mv a0, a0
 107              	# 0 "" 2
 108              	.LVL7:
 109              		.loc 1 26 5 is_stmt 1
  27:src/syscall_c.cpp **** }
 110              		.loc 1 27 1 is_stmt 0
 111              	#NO_APP
 112 005c 03348100 		ld	s0,8(sp)
 113              		.cfi_restore 8
 114              		.cfi_def_cfa 2, 16
 115 0060 13010101 		addi	sp,sp,16
 116              		.cfi_def_cfa_offset 0
 117 0064 67800000 		jr	ra
 118              		.cfi_endproc
 119              	.LFE13:
 121              		.align	2
 122              		.globl	_Z13thread_createPP7CThreadPFvPvES2_
 124              	_Z13thread_createPP7CThreadPFvPvES2_:
 125              	.LFB14:
  28:src/syscall_c.cpp **** 
  29:src/syscall_c.cpp **** int thread_create(thread_t *handle, void (*start_routine)(void *), void *arg) {
 126              		.loc 1 29 79 is_stmt 1
 127              		.cfi_startproc
 128              	.LVL8:
 129 0068 130101FE 		addi	sp,sp,-32
 130              		.cfi_def_cfa_offset 32
 131 006c 233C1100 		sd	ra,24(sp)
 132 0070 23388100 		sd	s0,16(sp)
 133 0074 23349100 		sd	s1,8(sp)
 134 0078 23302101 		sd	s2,0(sp)
 135              		.cfi_offset 1, -8
 136              		.cfi_offset 8, -16
 137              		.cfi_offset 9, -24
 138              		.cfi_offset 18, -32
 139 007c 13040102 		addi	s0,sp,32
 140              		.cfi_def_cfa 8, 0
 141 0080 93040500 		mv	s1,a0
  30:src/syscall_c.cpp ****     asm volatile("mv a3, %0"::"r"(arg));
 142              		.loc 1 30 5
 143              		.loc 1 30 40 is_stmt 0
 144              	#APP
 145              	# 30 "src/syscall_c.cpp" 1
  31              	    asm volatile("mv a2, %0"::"r"(start_routine));
GAS LISTING /tmp/ccUqZASJ.s 			page 4


 146              		mv a3, a2
 147              	# 0 "" 2
 148              		.loc 1 31 5 is_stmt 1
 149              		.loc 1 31 50 is_stmt 0
 150              	# 31 "src/syscall_c.cpp" 1
  32              	    asm volatile("mv a1, %0"::"r"(handle));
 151              		mv a2, a1
 152              	# 0 "" 2
 153              		.loc 1 32 5 is_stmt 1
 154              		.loc 1 32 43 is_stmt 0
 155              	# 32 "src/syscall_c.cpp" 1
  33              	    asm volatile("li a0, 0x11");
 156              		mv a1, a0
 157              	# 0 "" 2
 158              		.loc 1 33 5 is_stmt 1
 159              		.loc 1 33 32 is_stmt 0
 160              	# 33 "src/syscall_c.cpp" 1
  34              	    asm volatile("ecall");
 161              		li a0, 0x11
 162              	# 0 "" 2
 163              		.loc 1 34 5 is_stmt 1
 164              		.loc 1 34 26 is_stmt 0
 165              	# 34 "src/syscall_c.cpp" 1
  35              	
  36:src/syscall_c.cpp ****     int ret;
 166              		ecall
 167              	# 0 "" 2
 168              		.loc 1 36 5 is_stmt 1
  37:src/syscall_c.cpp ****     asm volatile("mv %0, a0":"=r"(ret));
 169              		.loc 1 37 5
 170              		.loc 1 37 40 is_stmt 0
 171              	# 37 "src/syscall_c.cpp" 1
  38              	    Scheduler::getInstance().put(*(handle));
 172              		mv s2, a0
 173              	# 0 "" 2
 174              	#NO_APP
 175 009c 1B090900 		sext.w	s2,s2
 176              	.LVL9:
 177              		.loc 1 38 5 is_stmt 1
 178              		.loc 1 38 28 is_stmt 0
 179 00a0 97000000 		call	_ZN9Scheduler11getInstanceEv@plt
 179      E7800000 
 180              	.LVL10:
 181              		.loc 1 38 43
 182 00a8 03B50400 		ld	a0,0(s1)
 183 00ac 97000000 		call	_ZN9Scheduler3putEP7CThread@plt
 183      E7800000 
 184              	.LVL11:
  39:src/syscall_c.cpp **** 
  40:src/syscall_c.cpp ****     return ret;
 185              		.loc 1 40 5 is_stmt 1
  41:src/syscall_c.cpp **** 
  42:src/syscall_c.cpp **** }
 186              		.loc 1 42 1 is_stmt 0
 187 00b4 13050900 		mv	a0,s2
 188 00b8 83308101 		ld	ra,24(sp)
 189              		.cfi_restore 1
GAS LISTING /tmp/ccUqZASJ.s 			page 5


 190 00bc 03340101 		ld	s0,16(sp)
 191              		.cfi_restore 8
 192              		.cfi_def_cfa 2, 32
 193 00c0 83348100 		ld	s1,8(sp)
 194              		.cfi_restore 9
 195              	.LVL12:
 196 00c4 03390100 		ld	s2,0(sp)
 197              		.cfi_restore 18
 198              	.LVL13:
 199 00c8 13010102 		addi	sp,sp,32
 200              		.cfi_def_cfa_offset 0
 201 00cc 67800000 		jr	ra
 202              		.cfi_endproc
 203              	.LFE14:
 205              		.align	2
 206              		.globl	_Z15thread_dispatchv
 208              	_Z15thread_dispatchv:
 209              	.LFB15:
  43:src/syscall_c.cpp **** 
  44:src/syscall_c.cpp **** void thread_dispatch (){
 210              		.loc 1 44 24 is_stmt 1
 211              		.cfi_startproc
 212 00d0 130101FF 		addi	sp,sp,-16
 213              		.cfi_def_cfa_offset 16
 214 00d4 23348100 		sd	s0,8(sp)
 215              		.cfi_offset 8, -8
 216 00d8 13040101 		addi	s0,sp,16
 217              		.cfi_def_cfa 8, 0
  45:src/syscall_c.cpp ****     asm volatile("li a0, 0x13");
 218              		.loc 1 45 5
 219              		.loc 1 45 32 is_stmt 0
 220              	#APP
 221              	# 45 "src/syscall_c.cpp" 1
  46              	    asm volatile("ecall");
 222              		li a0, 0x13
 223              	# 0 "" 2
 224              		.loc 1 46 5 is_stmt 1
 225              		.loc 1 46 26 is_stmt 0
 226              	# 46 "src/syscall_c.cpp" 1
  47              	}
 227              		ecall
 228              	# 0 "" 2
 229              		.loc 1 47 1
 230              	#NO_APP
 231 00e4 03348100 		ld	s0,8(sp)
 232              		.cfi_restore 8
 233              		.cfi_def_cfa 2, 16
 234 00e8 13010101 		addi	sp,sp,16
 235              		.cfi_def_cfa_offset 0
 236 00ec 67800000 		jr	ra
 237              		.cfi_endproc
 238              	.LFE15:
 240              		.align	2
 241              		.globl	_Z12thread_startP7CThread
 243              	_Z12thread_startP7CThread:
 244              	.LFB16:
  48:src/syscall_c.cpp **** 
GAS LISTING /tmp/ccUqZASJ.s 			page 6


  49:src/syscall_c.cpp **** void thread_start(thread_t handle) {
 245              		.loc 1 49 36 is_stmt 1
 246              		.cfi_startproc
 247              	.LVL14:
 248 00f0 130101FF 		addi	sp,sp,-16
 249              		.cfi_def_cfa_offset 16
 250 00f4 23348100 		sd	s0,8(sp)
 251              		.cfi_offset 8, -8
 252 00f8 13040101 		addi	s0,sp,16
 253              		.cfi_def_cfa 8, 0
  50:src/syscall_c.cpp ****     asm volatile("mv a1, %0"::"r"(handle));
 254              		.loc 1 50 5
 255              		.loc 1 50 43 is_stmt 0
 256              	#APP
 257              	# 50 "src/syscall_c.cpp" 1
  51              	    asm volatile("li a0, 0x14");
 258              		mv a1, a0
 259              	# 0 "" 2
 260              		.loc 1 51 5 is_stmt 1
 261              		.loc 1 51 32 is_stmt 0
 262              	# 51 "src/syscall_c.cpp" 1
  52              	    asm volatile("ecall");
 263              		li a0, 0x14
 264              	# 0 "" 2
 265              		.loc 1 52 5 is_stmt 1
 266              		.loc 1 52 26 is_stmt 0
 267              	# 52 "src/syscall_c.cpp" 1
  53              	
  54:src/syscall_c.cpp **** }
 268              		ecall
 269              	# 0 "" 2
 270              		.loc 1 54 1
 271              	#NO_APP
 272 0108 03348100 		ld	s0,8(sp)
 273              		.cfi_restore 8
 274              		.cfi_def_cfa 2, 16
 275 010c 13010101 		addi	sp,sp,16
 276              		.cfi_def_cfa_offset 0
 277 0110 67800000 		jr	ra
 278              		.cfi_endproc
 279              	.LFE16:
 281              		.align	2
 282              		.globl	_Z11thread_exitv
 284              	_Z11thread_exitv:
 285              	.LFB17:
  55:src/syscall_c.cpp **** 
  56:src/syscall_c.cpp **** int thread_exit() {
 286              		.loc 1 56 19 is_stmt 1
 287              		.cfi_startproc
 288 0114 130101FF 		addi	sp,sp,-16
 289              		.cfi_def_cfa_offset 16
 290 0118 23348100 		sd	s0,8(sp)
 291              		.cfi_offset 8, -8
 292 011c 13040101 		addi	s0,sp,16
 293              		.cfi_def_cfa 8, 0
  57:src/syscall_c.cpp ****     asm volatile("li a0, 0x12");
 294              		.loc 1 57 5
GAS LISTING /tmp/ccUqZASJ.s 			page 7


 295              		.loc 1 57 32 is_stmt 0
 296              	#APP
 297              	# 57 "src/syscall_c.cpp" 1
  58              	    asm volatile("ecall");
 298              		li a0, 0x12
 299              	# 0 "" 2
 300              		.loc 1 58 5 is_stmt 1
 301              		.loc 1 58 26 is_stmt 0
 302              	# 58 "src/syscall_c.cpp" 1
  59              	    int ret;
 303              		ecall
 304              	# 0 "" 2
 305              		.loc 1 59 5 is_stmt 1
  60:src/syscall_c.cpp ****     asm volatile("mv %0, a0":"=r"(ret));
 306              		.loc 1 60 5
 307              		.loc 1 60 40 is_stmt 0
 308              	# 60 "src/syscall_c.cpp" 1
  61              	    return ret;
 309              		mv a0, a0
 310              	# 0 "" 2
 311              	.LVL15:
 312              		.loc 1 61 5 is_stmt 1
  62:src/syscall_c.cpp **** }
 313              		.loc 1 62 1 is_stmt 0
 314              	#NO_APP
 315 012c 1B050500 		sext.w	a0,a0
 316 0130 03348100 		ld	s0,8(sp)
 317              		.cfi_restore 8
 318              		.cfi_def_cfa 2, 16
 319 0134 13010101 		addi	sp,sp,16
 320              		.cfi_def_cfa_offset 0
 321 0138 67800000 		jr	ra
 322              		.cfi_endproc
 323              	.LFE17:
 325              		.align	2
 326              		.globl	_Z8sem_openPP10CSemaphorej
 328              	_Z8sem_openPP10CSemaphorej:
 329              	.LFB18:
  63:src/syscall_c.cpp **** 
  64:src/syscall_c.cpp **** int sem_open(sem_t *handle, unsigned int init) {
 330              		.loc 1 64 48 is_stmt 1
 331              		.cfi_startproc
 332              	.LVL16:
 333 013c 130101FF 		addi	sp,sp,-16
 334              		.cfi_def_cfa_offset 16
 335 0140 23348100 		sd	s0,8(sp)
 336              		.cfi_offset 8, -8
 337 0144 13040101 		addi	s0,sp,16
 338              		.cfi_def_cfa 8, 0
  65:src/syscall_c.cpp ****     asm volatile("mv a2, %0"::"r"(init));
 339              		.loc 1 65 5
 340              		.loc 1 65 41 is_stmt 0
 341              	#APP
 342              	# 65 "src/syscall_c.cpp" 1
  66              	    asm volatile("mv a1, %0"::"r"(handle));
 343              		mv a2, a1
 344              	# 0 "" 2
GAS LISTING /tmp/ccUqZASJ.s 			page 8


 345              		.loc 1 66 5 is_stmt 1
 346              		.loc 1 66 43 is_stmt 0
 347              	# 66 "src/syscall_c.cpp" 1
  67              	    asm volatile("li a0, 0x21");
 348              		mv a1, a0
 349              	# 0 "" 2
 350              		.loc 1 67 5 is_stmt 1
 351              		.loc 1 67 32 is_stmt 0
 352              	# 67 "src/syscall_c.cpp" 1
  68              	    asm volatile("ecall");
 353              		li a0, 0x21
 354              	# 0 "" 2
 355              		.loc 1 68 5 is_stmt 1
 356              		.loc 1 68 26 is_stmt 0
 357              	# 68 "src/syscall_c.cpp" 1
  69              	
  70:src/syscall_c.cpp ****     int ret;
 358              		ecall
 359              	# 0 "" 2
 360              		.loc 1 70 5 is_stmt 1
  71:src/syscall_c.cpp ****     asm volatile("mv %0, a0":"=r"(ret));
 361              		.loc 1 71 5
 362              		.loc 1 71 40 is_stmt 0
 363              	# 71 "src/syscall_c.cpp" 1
  72              	    return ret;
 364              		mv a0, a0
 365              	# 0 "" 2
 366              	.LVL17:
 367              		.loc 1 72 5 is_stmt 1
  73:src/syscall_c.cpp **** }
 368              		.loc 1 73 1 is_stmt 0
 369              	#NO_APP
 370 015c 1B050500 		sext.w	a0,a0
 371 0160 03348100 		ld	s0,8(sp)
 372              		.cfi_restore 8
 373              		.cfi_def_cfa 2, 16
 374 0164 13010101 		addi	sp,sp,16
 375              		.cfi_def_cfa_offset 0
 376 0168 67800000 		jr	ra
 377              		.cfi_endproc
 378              	.LFE18:
 380              		.align	2
 381              		.globl	_Z9sem_closeP10CSemaphore
 383              	_Z9sem_closeP10CSemaphore:
 384              	.LFB19:
  74:src/syscall_c.cpp **** 
  75:src/syscall_c.cpp **** int sem_close(sem_t handle) {
 385              		.loc 1 75 29 is_stmt 1
 386              		.cfi_startproc
 387              	.LVL18:
 388 016c 130101FF 		addi	sp,sp,-16
 389              		.cfi_def_cfa_offset 16
 390 0170 23348100 		sd	s0,8(sp)
 391              		.cfi_offset 8, -8
 392 0174 13040101 		addi	s0,sp,16
 393              		.cfi_def_cfa 8, 0
  76:src/syscall_c.cpp ****     asm volatile("mv a1, %0"::"r"(handle));
GAS LISTING /tmp/ccUqZASJ.s 			page 9


 394              		.loc 1 76 5
 395              		.loc 1 76 43 is_stmt 0
 396              	#APP
 397              	# 76 "src/syscall_c.cpp" 1
  77              	    asm volatile("li a0, 0x22");
 398              		mv a1, a0
 399              	# 0 "" 2
 400              		.loc 1 77 5 is_stmt 1
 401              		.loc 1 77 32 is_stmt 0
 402              	# 77 "src/syscall_c.cpp" 1
  78              	    asm volatile("ecall");
 403              		li a0, 0x22
 404              	# 0 "" 2
 405              		.loc 1 78 5 is_stmt 1
 406              		.loc 1 78 26 is_stmt 0
 407              	# 78 "src/syscall_c.cpp" 1
  79              	
  80:src/syscall_c.cpp ****     int ret;
 408              		ecall
 409              	# 0 "" 2
 410              		.loc 1 80 5 is_stmt 1
  81:src/syscall_c.cpp ****     asm volatile("mv %0, a0":"=r"(ret));
 411              		.loc 1 81 5
 412              		.loc 1 81 40 is_stmt 0
 413              	# 81 "src/syscall_c.cpp" 1
  82              	    return ret;
 414              		mv a0, a0
 415              	# 0 "" 2
 416              	.LVL19:
 417              		.loc 1 82 5 is_stmt 1
  83:src/syscall_c.cpp **** }
 418              		.loc 1 83 1 is_stmt 0
 419              	#NO_APP
 420 0188 1B050500 		sext.w	a0,a0
 421 018c 03348100 		ld	s0,8(sp)
 422              		.cfi_restore 8
 423              		.cfi_def_cfa 2, 16
 424 0190 13010101 		addi	sp,sp,16
 425              		.cfi_def_cfa_offset 0
 426 0194 67800000 		jr	ra
 427              		.cfi_endproc
 428              	.LFE19:
 430              		.align	2
 431              		.globl	_Z8sem_waitP10CSemaphore
 433              	_Z8sem_waitP10CSemaphore:
 434              	.LFB20:
  84:src/syscall_c.cpp **** 
  85:src/syscall_c.cpp **** int sem_wait(sem_t id) {
 435              		.loc 1 85 24 is_stmt 1
 436              		.cfi_startproc
 437              	.LVL20:
 438 0198 130101FF 		addi	sp,sp,-16
 439              		.cfi_def_cfa_offset 16
 440 019c 23348100 		sd	s0,8(sp)
 441              		.cfi_offset 8, -8
 442 01a0 13040101 		addi	s0,sp,16
 443              		.cfi_def_cfa 8, 0
GAS LISTING /tmp/ccUqZASJ.s 			page 10


  86:src/syscall_c.cpp ****     asm volatile("mv a1, %0"::"r"(id));
 444              		.loc 1 86 5
 445              		.loc 1 86 39 is_stmt 0
 446              	#APP
 447              	# 86 "src/syscall_c.cpp" 1
  87              	    asm volatile("li a0, 0x23");
 448              		mv a1, a0
 449              	# 0 "" 2
 450              		.loc 1 87 5 is_stmt 1
 451              		.loc 1 87 32 is_stmt 0
 452              	# 87 "src/syscall_c.cpp" 1
  88              	    asm volatile("ecall");
 453              		li a0, 0x23
 454              	# 0 "" 2
 455              		.loc 1 88 5 is_stmt 1
 456              		.loc 1 88 26 is_stmt 0
 457              	# 88 "src/syscall_c.cpp" 1
  89              	
  90:src/syscall_c.cpp ****     int ret;
 458              		ecall
 459              	# 0 "" 2
 460              		.loc 1 90 5 is_stmt 1
  91:src/syscall_c.cpp ****     asm volatile("mv %0, a0":"=r"(ret));
 461              		.loc 1 91 5
 462              		.loc 1 91 40 is_stmt 0
 463              	# 91 "src/syscall_c.cpp" 1
  92              	    return ret;
 464              		mv a0, a0
 465              	# 0 "" 2
 466              	.LVL21:
 467              		.loc 1 92 5 is_stmt 1
  93:src/syscall_c.cpp **** }
 468              		.loc 1 93 1 is_stmt 0
 469              	#NO_APP
 470 01b4 1B050500 		sext.w	a0,a0
 471 01b8 03348100 		ld	s0,8(sp)
 472              		.cfi_restore 8
 473              		.cfi_def_cfa 2, 16
 474 01bc 13010101 		addi	sp,sp,16
 475              		.cfi_def_cfa_offset 0
 476 01c0 67800000 		jr	ra
 477              		.cfi_endproc
 478              	.LFE20:
 480              		.align	2
 481              		.globl	_Z10sem_signalP10CSemaphore
 483              	_Z10sem_signalP10CSemaphore:
 484              	.LFB21:
  94:src/syscall_c.cpp **** 
  95:src/syscall_c.cpp **** int sem_signal(sem_t id) {
 485              		.loc 1 95 26 is_stmt 1
 486              		.cfi_startproc
 487              	.LVL22:
 488 01c4 130101FF 		addi	sp,sp,-16
 489              		.cfi_def_cfa_offset 16
 490 01c8 23348100 		sd	s0,8(sp)
 491              		.cfi_offset 8, -8
 492 01cc 13040101 		addi	s0,sp,16
GAS LISTING /tmp/ccUqZASJ.s 			page 11


 493              		.cfi_def_cfa 8, 0
  96:src/syscall_c.cpp ****     asm volatile("mv a1, %0"::"r"(id));
 494              		.loc 1 96 5
 495              		.loc 1 96 39 is_stmt 0
 496              	#APP
 497              	# 96 "src/syscall_c.cpp" 1
  97              	    asm volatile("li a0, 0x24");
 498              		mv a1, a0
 499              	# 0 "" 2
 500              		.loc 1 97 5 is_stmt 1
 501              		.loc 1 97 32 is_stmt 0
 502              	# 97 "src/syscall_c.cpp" 1
  98              	    asm volatile("ecall");
 503              		li a0, 0x24
 504              	# 0 "" 2
 505              		.loc 1 98 5 is_stmt 1
 506              		.loc 1 98 26 is_stmt 0
 507              	# 98 "src/syscall_c.cpp" 1
  99              	
 100:src/syscall_c.cpp ****     int ret;
 508              		ecall
 509              	# 0 "" 2
 510              		.loc 1 100 5 is_stmt 1
 101:src/syscall_c.cpp ****     asm volatile("mv %0, a0":"=r"(ret));
 511              		.loc 1 101 5
 512              		.loc 1 101 40 is_stmt 0
 513              	# 101 "src/syscall_c.cpp" 1
 102              	    return ret;
 514              		mv a0, a0
 515              	# 0 "" 2
 516              	.LVL23:
 517              		.loc 1 102 5 is_stmt 1
 103:src/syscall_c.cpp **** }
 518              		.loc 1 103 1 is_stmt 0
 519              	#NO_APP
 520 01e0 1B050500 		sext.w	a0,a0
 521 01e4 03348100 		ld	s0,8(sp)
 522              		.cfi_restore 8
 523              		.cfi_def_cfa 2, 16
 524 01e8 13010101 		addi	sp,sp,16
 525              		.cfi_def_cfa_offset 0
 526 01ec 67800000 		jr	ra
 527              		.cfi_endproc
 528              	.LFE21:
 530              		.align	2
 531              		.globl	_Z10time_sleepm
 533              	_Z10time_sleepm:
 534              	.LFB22:
 104:src/syscall_c.cpp **** 
 105:src/syscall_c.cpp **** int time_sleep(time_t time) {
 535              		.loc 1 105 29 is_stmt 1
 536              		.cfi_startproc
 537              	.LVL24:
 538 01f0 130101FF 		addi	sp,sp,-16
 539              		.cfi_def_cfa_offset 16
 540 01f4 23348100 		sd	s0,8(sp)
 541              		.cfi_offset 8, -8
GAS LISTING /tmp/ccUqZASJ.s 			page 12


 542 01f8 13040101 		addi	s0,sp,16
 543              		.cfi_def_cfa 8, 0
 106:src/syscall_c.cpp ****     if(time ==0) return -1;
 544              		.loc 1 106 5
 545 01fc 63000502 		beqz	a0,.L24
 107:src/syscall_c.cpp ****     asm volatile("mv a1, %0"::"r"(time));
 546              		.loc 1 107 5
 547              		.loc 1 107 41 is_stmt 0
 548              	#APP
 549              	# 107 "src/syscall_c.cpp" 1
 108              	    asm volatile("li a0, 0x31");
 550              		mv a1, a0
 551              	# 0 "" 2
 552              		.loc 1 108 5 is_stmt 1
 553              		.loc 1 108 32 is_stmt 0
 554              	# 108 "src/syscall_c.cpp" 1
 109              	    asm volatile("ecall");
 555              		li a0, 0x31
 556              	# 0 "" 2
 557              		.loc 1 109 5 is_stmt 1
 558              		.loc 1 109 26 is_stmt 0
 559              	# 109 "src/syscall_c.cpp" 1
 110              	    return 0;
 560              		ecall
 561              	# 0 "" 2
 562              		.loc 1 110 5 is_stmt 1
 563              		.loc 1 110 12 is_stmt 0
 564              	#NO_APP
 565 020c 13050000 		li	a0,0
 566              	.LVL25:
 567              	.L23:
 111:src/syscall_c.cpp **** }
 568              		.loc 1 111 1
 569 0210 03348100 		ld	s0,8(sp)
 570              		.cfi_remember_state
 571              		.cfi_restore 8
 572              		.cfi_def_cfa 2, 16
 573 0214 13010101 		addi	sp,sp,16
 574              		.cfi_def_cfa_offset 0
 575 0218 67800000 		jr	ra
 576              	.LVL26:
 577              	.L24:
 578              		.cfi_restore_state
 106:src/syscall_c.cpp ****     if(time ==0) return -1;
 579              		.loc 1 106 26
 580 021c 1305F0FF 		li	a0,-1
 581              	.LVL27:
 582 0220 6FF01FFF 		j	.L23
 583              		.cfi_endproc
 584              	.LFE22:
 586              		.align	2
 587              		.globl	_Z4getcv
 589              	_Z4getcv:
 590              	.LFB23:
 112:src/syscall_c.cpp **** 
 113:src/syscall_c.cpp **** char getc() {
 591              		.loc 1 113 13 is_stmt 1
GAS LISTING /tmp/ccUqZASJ.s 			page 13


 592              		.cfi_startproc
 593 0224 130101FF 		addi	sp,sp,-16
 594              		.cfi_def_cfa_offset 16
 595 0228 23348100 		sd	s0,8(sp)
 596              		.cfi_offset 8, -8
 597 022c 13040101 		addi	s0,sp,16
 598              		.cfi_def_cfa 8, 0
 114:src/syscall_c.cpp ****     asm volatile("li a0, 0x41");
 599              		.loc 1 114 5
 600              		.loc 1 114 32 is_stmt 0
 601              	#APP
 602              	# 114 "src/syscall_c.cpp" 1
 115              	    asm volatile("ecall");
 603              		li a0, 0x41
 604              	# 0 "" 2
 605              		.loc 1 115 5 is_stmt 1
 606              		.loc 1 115 26 is_stmt 0
 607              	# 115 "src/syscall_c.cpp" 1
 116              	    char ret;
 608              		ecall
 609              	# 0 "" 2
 610              		.loc 1 116 5 is_stmt 1
 117:src/syscall_c.cpp ****     asm volatile("mv %0, a0":"=r"(ret));
 611              		.loc 1 117 5
 612              		.loc 1 117 40 is_stmt 0
 613              	# 117 "src/syscall_c.cpp" 1
 118              	    return ret;
 614              		mv a0, a0
 615              	# 0 "" 2
 616              	.LVL28:
 617              		.loc 1 118 5 is_stmt 1
 119:src/syscall_c.cpp **** }
 618              		.loc 1 119 1 is_stmt 0
 619              	#NO_APP
 620 023c 1375F50F 		andi	a0,a0,0xff
 621 0240 03348100 		ld	s0,8(sp)
 622              		.cfi_restore 8
 623              		.cfi_def_cfa 2, 16
 624 0244 13010101 		addi	sp,sp,16
 625              		.cfi_def_cfa_offset 0
 626 0248 67800000 		jr	ra
 627              		.cfi_endproc
 628              	.LFE23:
 630              		.align	2
 631              		.globl	_Z4putcc
 633              	_Z4putcc:
 634              	.LFB24:
 120:src/syscall_c.cpp **** 
 121:src/syscall_c.cpp **** void putc(char c) {
 635              		.loc 1 121 19 is_stmt 1
 636              		.cfi_startproc
 637              	.LVL29:
 638 024c 130101FF 		addi	sp,sp,-16
 639              		.cfi_def_cfa_offset 16
 640 0250 23348100 		sd	s0,8(sp)
 641              		.cfi_offset 8, -8
 642 0254 13040101 		addi	s0,sp,16
GAS LISTING /tmp/ccUqZASJ.s 			page 14


 643              		.cfi_def_cfa 8, 0
 122:src/syscall_c.cpp ****     asm volatile("mv a1, %0"::"r"(c));
 644              		.loc 1 122 5
 645              		.loc 1 122 38 is_stmt 0
 646              	#APP
 647              	# 122 "src/syscall_c.cpp" 1
 123              	    asm volatile("li a0, 0x42");
 648              		mv a1, a0
 649              	# 0 "" 2
 650              		.loc 1 123 5 is_stmt 1
 651              		.loc 1 123 32 is_stmt 0
 652              	# 123 "src/syscall_c.cpp" 1
 124              	    asm volatile("ecall");
 653              		li a0, 0x42
 654              	# 0 "" 2
 655              		.loc 1 124 5 is_stmt 1
 656              		.loc 1 124 26 is_stmt 0
 657              	# 124 "src/syscall_c.cpp" 1
 125              	}
 658              		ecall
 659              	# 0 "" 2
 660              		.loc 1 125 1
 661              	#NO_APP
 662 0264 03348100 		ld	s0,8(sp)
 663              		.cfi_restore 8
 664              		.cfi_def_cfa 2, 16
 665 0268 13010101 		addi	sp,sp,16
 666              		.cfi_def_cfa_offset 0
 667 026c 67800000 		jr	ra
 668              		.cfi_endproc
 669              	.LFE24:
 671              		.align	2
 672              		.globl	_Z4userv
 674              	_Z4userv:
 675              	.LFB25:
 126:src/syscall_c.cpp **** 
 127:src/syscall_c.cpp **** void user(){
 676              		.loc 1 127 12 is_stmt 1
 677              		.cfi_startproc
 678 0270 130101FF 		addi	sp,sp,-16
 679              		.cfi_def_cfa_offset 16
 680 0274 23348100 		sd	s0,8(sp)
 681              		.cfi_offset 8, -8
 682 0278 13040101 		addi	s0,sp,16
 683              		.cfi_def_cfa 8, 0
 128:src/syscall_c.cpp ****     asm volatile("li a0,0x51");
 684              		.loc 1 128 5
 685              		.loc 1 128 31 is_stmt 0
 686              	#APP
 687              	# 128 "src/syscall_c.cpp" 1
 129              	    asm volatile("ecall");
 688              		li a0,0x51
 689              	# 0 "" 2
 690              		.loc 1 129 5 is_stmt 1
 691              		.loc 1 129 26 is_stmt 0
 692              	# 129 "src/syscall_c.cpp" 1
 130              	}
GAS LISTING /tmp/ccUqZASJ.s 			page 15


 693              		ecall
 694              	# 0 "" 2
 695              		.loc 1 130 1
 696              	#NO_APP
 697 0284 03348100 		ld	s0,8(sp)
 698              		.cfi_restore 8
 699              		.cfi_def_cfa 2, 16
 700 0288 13010101 		addi	sp,sp,16
 701              		.cfi_def_cfa_offset 0
 702 028c 67800000 		jr	ra
 703              		.cfi_endproc
 704              	.LFE25:
 706              		.align	2
 707              		.globl	_Z4privv
 709              	_Z4privv:
 710              	.LFB26:
 131:src/syscall_c.cpp **** void priv(){
 711              		.loc 1 131 12 is_stmt 1
 712              		.cfi_startproc
 713 0290 130101FF 		addi	sp,sp,-16
 714              		.cfi_def_cfa_offset 16
 715 0294 23348100 		sd	s0,8(sp)
 716              		.cfi_offset 8, -8
 717 0298 13040101 		addi	s0,sp,16
 718              		.cfi_def_cfa 8, 0
 132:src/syscall_c.cpp ****     asm volatile("li a0,0x52");
 719              		.loc 1 132 5
 720              		.loc 1 132 31 is_stmt 0
 721              	#APP
 722              	# 132 "src/syscall_c.cpp" 1
 133              	    asm volatile("ecall");
 723              		li a0,0x52
 724              	# 0 "" 2
 725              		.loc 1 133 5 is_stmt 1
 726              		.loc 1 133 26 is_stmt 0
 727              	# 133 "src/syscall_c.cpp" 1
 134              	}
 728              		ecall
 729              	# 0 "" 2
 730              		.loc 1 134 1
 731              	#NO_APP
 732 02a4 03348100 		ld	s0,8(sp)
 733              		.cfi_restore 8
 734              		.cfi_def_cfa 2, 16
 735 02a8 13010101 		addi	sp,sp,16
 736              		.cfi_def_cfa_offset 0
 737 02ac 67800000 		jr	ra
 738              		.cfi_endproc
 739              	.LFE26:
 741              	.Letext0:
 742              		.file 2 "src/../h/../lib/hw.h"
 743              		.file 3 "src/../h/../h/Scheduler.h"
 744              		.file 4 "src/../h/../h/CThread.h"
 745              		.file 5 "src/../h/CSemaphore.h"
 746              		.file 6 "src/../h/syscall_c.h"
GAS LISTING /tmp/ccUqZASJ.s 			page 16

