GAS LISTING /tmp/ccr02pVA.s 			page 1


   1              		.file	"syscall_cpp.cpp"
   2              		.option pic
   3              		.option norelax
   4              		.text
   5              	.Ltext0:
   6              		.section	.text._ZN6Thread3runEv,"axG",@progbits,_ZN6Thread3runEv,comdat
   7              		.align	2
   8              		.weak	_ZN6Thread3runEv
  10              	_ZN6Thread3runEv:
  11              	.LFB12:
  12              		.file 1 "src/../h/syscall_cpp.hpp"
   1:src/../h/syscall_cpp.hpp **** //
   2:src/../h/syscall_cpp.hpp **** // Created by os on 6/30/22.
   3:src/../h/syscall_cpp.hpp **** //
   4:src/../h/syscall_cpp.hpp **** 
   5:src/../h/syscall_cpp.hpp **** #ifndef SEM_TH_EXIT_SYSCALL_CPP_HPP
   6:src/../h/syscall_cpp.hpp **** #define SEM_TH_EXIT_SYSCALL_CPP_HPP
   7:src/../h/syscall_cpp.hpp **** 
   8:src/../h/syscall_cpp.hpp **** 
   9:src/../h/syscall_cpp.hpp **** #include "syscall_c.h"
  10:src/../h/syscall_cpp.hpp **** 
  11:src/../h/syscall_cpp.hpp **** void* operator new (size_t);
  12:src/../h/syscall_cpp.hpp **** void* operator new[](size_t);
  13:src/../h/syscall_cpp.hpp **** void operator delete (void*);
  14:src/../h/syscall_cpp.hpp **** void operator delete[](void*);
  15:src/../h/syscall_cpp.hpp **** 
  16:src/../h/syscall_cpp.hpp **** class Thread {
  17:src/../h/syscall_cpp.hpp **** public:
  18:src/../h/syscall_cpp.hpp ****     Thread (void (*body)(void*), void* arg);
  19:src/../h/syscall_cpp.hpp ****     virtual ~Thread ();
  20:src/../h/syscall_cpp.hpp ****     int start ();
  21:src/../h/syscall_cpp.hpp ****     static void dispatch ();
  22:src/../h/syscall_cpp.hpp ****     static int sleep (time_t);
  23:src/../h/syscall_cpp.hpp **** protected:
  24:src/../h/syscall_cpp.hpp ****     Thread ();
  25:src/../h/syscall_cpp.hpp ****     virtual void run () {}
  13              		.loc 1 25 18
  14              		.cfi_startproc
  15              	.LVL0:
  16 0000 130101FF 		addi	sp,sp,-16
  17              		.cfi_def_cfa_offset 16
  18 0004 23348100 		sd	s0,8(sp)
  19              		.cfi_offset 8, -8
  20 0008 13040101 		addi	s0,sp,16
  21              		.cfi_def_cfa 8, 0
  22              		.loc 1 25 26 is_stmt 0
  23 000c 03348100 		ld	s0,8(sp)
  24              		.cfi_restore 8
  25              		.cfi_def_cfa 2, 16
  26 0010 13010101 		addi	sp,sp,16
  27              		.cfi_def_cfa_offset 0
  28 0014 67800000 		jr	ra
  29              		.cfi_endproc
  30              	.LFE12:
  32              		.section	.text._ZN14PeriodicThread18periodicActivationEv,"axG",@progbits,_ZN14PeriodicThread18peri
  33              		.align	2
  34              		.weak	_ZN14PeriodicThread18periodicActivationEv
GAS LISTING /tmp/ccr02pVA.s 			page 2


  36              	_ZN14PeriodicThread18periodicActivationEv:
  37              	.LFB13:
  26:src/../h/syscall_cpp.hpp **** private:
  27:src/../h/syscall_cpp.hpp ****     static void wrapper(void*);
  28:src/../h/syscall_cpp.hpp ****     thread_t myHandle;
  29:src/../h/syscall_cpp.hpp **** };
  30:src/../h/syscall_cpp.hpp **** 
  31:src/../h/syscall_cpp.hpp **** class Semaphore {
  32:src/../h/syscall_cpp.hpp **** public:
  33:src/../h/syscall_cpp.hpp ****     Semaphore (unsigned init = 1);
  34:src/../h/syscall_cpp.hpp ****     virtual ~Semaphore ();
  35:src/../h/syscall_cpp.hpp ****     int wait ();
  36:src/../h/syscall_cpp.hpp ****     int signal ();
  37:src/../h/syscall_cpp.hpp **** private:
  38:src/../h/syscall_cpp.hpp ****     sem_t myHandle;
  39:src/../h/syscall_cpp.hpp **** };
  40:src/../h/syscall_cpp.hpp **** 
  41:src/../h/syscall_cpp.hpp **** class PeriodicThread : public Thread {
  42:src/../h/syscall_cpp.hpp **** public:
  43:src/../h/syscall_cpp.hpp ****     static bool flag;
  44:src/../h/syscall_cpp.hpp **** protected:
  45:src/../h/syscall_cpp.hpp ****     PeriodicThread (time_t period);
  46:src/../h/syscall_cpp.hpp ****     virtual void periodicActivation () {}
  38              		.loc 1 46 18 is_stmt 1
  39              		.cfi_startproc
  40              	.LVL1:
  41 0000 130101FF 		addi	sp,sp,-16
  42              		.cfi_def_cfa_offset 16
  43 0004 23348100 		sd	s0,8(sp)
  44              		.cfi_offset 8, -8
  45 0008 13040101 		addi	s0,sp,16
  46              		.cfi_def_cfa 8, 0
  47              		.loc 1 46 41 is_stmt 0
  48 000c 03348100 		ld	s0,8(sp)
  49              		.cfi_restore 8
  50              		.cfi_def_cfa 2, 16
  51 0010 13010101 		addi	sp,sp,16
  52              		.cfi_def_cfa_offset 0
  53 0014 67800000 		jr	ra
  54              		.cfi_endproc
  55              	.LFE13:
  57              		.text
  58              		.align	2
  59              		.globl	_ZN6ThreadD2Ev
  61              	_ZN6ThreadD2Ev:
  62              	.LFB25:
  63              		.file 2 "src/syscall_cpp.cpp"
   1:src/syscall_cpp.cpp **** //
   2:src/syscall_cpp.cpp **** // Created by os on 6/30/22.
   3:src/syscall_cpp.cpp **** //
   4:src/syscall_cpp.cpp **** 
   5:src/syscall_cpp.cpp **** #include "../h/syscall_cpp.hpp"
   6:src/syscall_cpp.cpp **** 
   7:src/syscall_cpp.cpp **** void *operator new(size_t size) {
   8:src/syscall_cpp.cpp ****     return mem_alloc(size);
   9:src/syscall_cpp.cpp **** }
  10:src/syscall_cpp.cpp **** 
GAS LISTING /tmp/ccr02pVA.s 			page 3


  11:src/syscall_cpp.cpp **** void *operator new[](size_t size) {
  12:src/syscall_cpp.cpp ****     return mem_alloc(size);
  13:src/syscall_cpp.cpp **** }
  14:src/syscall_cpp.cpp **** 
  15:src/syscall_cpp.cpp **** void operator delete(void *mem) {
  16:src/syscall_cpp.cpp ****     mem_free(mem);
  17:src/syscall_cpp.cpp **** }
  18:src/syscall_cpp.cpp **** 
  19:src/syscall_cpp.cpp **** void operator delete[](void *mem) {
  20:src/syscall_cpp.cpp ****     mem_free(mem);
  21:src/syscall_cpp.cpp **** }
  22:src/syscall_cpp.cpp **** 
  23:src/syscall_cpp.cpp **** 
  24:src/syscall_cpp.cpp **** Thread::Thread(void (*body)(void *), void *arg) {
  25:src/syscall_cpp.cpp ****     asm volatile("mv a3, %0"::"r"(arg));
  26:src/syscall_cpp.cpp ****     asm volatile("mv a2, %0"::"r"(body));
  27:src/syscall_cpp.cpp ****     asm volatile("mv a1, %0"::"r"(&myHandle));
  28:src/syscall_cpp.cpp ****     asm volatile("li a0, 0x11");
  29:src/syscall_cpp.cpp ****     asm volatile("ecall");
  30:src/syscall_cpp.cpp **** }
  31:src/syscall_cpp.cpp **** 
  32:src/syscall_cpp.cpp **** Thread::~Thread() {
  64              		.loc 2 32 1 is_stmt 1
  65              		.cfi_startproc
  66              	.LVL2:
  67 0000 130101FF 		addi	sp,sp,-16
  68              		.cfi_def_cfa_offset 16
  69 0004 23348100 		sd	s0,8(sp)
  70              		.cfi_offset 8, -8
  71 0008 13040101 		addi	s0,sp,16
  72              		.cfi_def_cfa 8, 0
  33:src/syscall_cpp.cpp **** }
  73              		.loc 2 33 1 is_stmt 0
  74 000c 03348100 		ld	s0,8(sp)
  75              		.cfi_restore 8
  76              		.cfi_def_cfa 2, 16
  77 0010 13010101 		addi	sp,sp,16
  78              		.cfi_def_cfa_offset 0
  79 0014 67800000 		jr	ra
  80              		.cfi_endproc
  81              	.LFE25:
  83              		.globl	_ZN6ThreadD1Ev
  84              		.set	_ZN6ThreadD1Ev,_ZN6ThreadD2Ev
  85              		.align	2
  86              		.globl	_ZN6Thread7wrapperEPv
  88              	_ZN6Thread7wrapperEPv:
  89              	.LFB34:
  34:src/syscall_cpp.cpp **** 
  35:src/syscall_cpp.cpp **** int Thread::start() {
  36:src/syscall_cpp.cpp ****     thread_start(myHandle);
  37:src/syscall_cpp.cpp ****     return 0;
  38:src/syscall_cpp.cpp **** }
  39:src/syscall_cpp.cpp **** 
  40:src/syscall_cpp.cpp **** void Thread::dispatch() {
  41:src/syscall_cpp.cpp ****     thread_dispatch();
  42:src/syscall_cpp.cpp **** }
  43:src/syscall_cpp.cpp **** 
GAS LISTING /tmp/ccr02pVA.s 			page 4


  44:src/syscall_cpp.cpp **** int Thread::sleep(time_t time ) {
  45:src/syscall_cpp.cpp ****     if(time==0)return -1;
  46:src/syscall_cpp.cpp ****     return time_sleep(time);
  47:src/syscall_cpp.cpp **** }
  48:src/syscall_cpp.cpp **** 
  49:src/syscall_cpp.cpp **** Thread::Thread() {//treba da pozove run
  50:src/syscall_cpp.cpp ****     asm volatile("mv a3, %0"::"r"(this));
  51:src/syscall_cpp.cpp ****     asm volatile("mv a2, %0"::"r"(wrapper));
  52:src/syscall_cpp.cpp ****     asm volatile("mv a1, %0"::"r"(&myHandle));
  53:src/syscall_cpp.cpp ****     asm volatile("li a0, 0x11");
  54:src/syscall_cpp.cpp ****     asm volatile("ecall");
  55:src/syscall_cpp.cpp **** }
  56:src/syscall_cpp.cpp **** 
  57:src/syscall_cpp.cpp **** void Thread::wrapper(void* arg) {
  90              		.loc 2 57 33 is_stmt 1
  91              		.cfi_startproc
  92              	.LVL3:
  93 0018 130101FF 		addi	sp,sp,-16
  94              		.cfi_def_cfa_offset 16
  95 001c 23341100 		sd	ra,8(sp)
  96 0020 23308100 		sd	s0,0(sp)
  97              		.cfi_offset 1, -8
  98              		.cfi_offset 8, -16
  99 0024 13040101 		addi	s0,sp,16
 100              		.cfi_def_cfa 8, 0
  58:src/syscall_cpp.cpp ****     Thread* ja = (Thread*)arg;
 101              		.loc 2 58 5
 102              	.LVL4:
  59:src/syscall_cpp.cpp ****     ja->run();
 103              		.loc 2 59 5
 104              		.loc 2 59 13 is_stmt 0
 105 0028 83370500 		ld	a5,0(a0)
 106 002c 83B70701 		ld	a5,16(a5)
 107              		.loc 2 59 12
 108 0030 E7800700 		jalr	a5
 109              	.LVL5:
  60:src/syscall_cpp.cpp **** }
 110              		.loc 2 60 1
 111 0034 83308100 		ld	ra,8(sp)
 112              		.cfi_restore 1
 113 0038 03340100 		ld	s0,0(sp)
 114              		.cfi_restore 8
 115              		.cfi_def_cfa 2, 16
 116 003c 13010101 		addi	sp,sp,16
 117              		.cfi_def_cfa_offset 0
 118 0040 67800000 		jr	ra
 119              		.cfi_endproc
 120              	.LFE34:
 122              		.section	.text._ZN14PeriodicThreadD2Ev,"axG",@progbits,_ZN14PeriodicThreadD5Ev,comdat
 123              		.align	2
 124              		.weak	_ZN14PeriodicThreadD2Ev
 126              	_ZN14PeriodicThreadD2Ev:
 127              	.LFB51:
  41:src/../h/syscall_cpp.hpp **** public:
 128              		.loc 1 41 7 is_stmt 1
 129              		.cfi_startproc
 130              	.LVL6:
GAS LISTING /tmp/ccr02pVA.s 			page 5


 131 0000 130101FF 		addi	sp,sp,-16
 132              		.cfi_def_cfa_offset 16
 133 0004 23348100 		sd	s0,8(sp)
 134              		.cfi_offset 8, -8
 135 0008 13040101 		addi	s0,sp,16
 136              		.cfi_def_cfa 8, 0
 137              	.LBB9:
  41:src/../h/syscall_cpp.hpp **** public:
 138              		.loc 1 41 7 is_stmt 0
 139 000c 97070000 		lla	a5,_ZTV14PeriodicThread+16
 139      93870700 
 140 0014 2330F500 		sd	a5,0(a0)
 141              	.LBE9:
 142 0018 03348100 		ld	s0,8(sp)
 143              		.cfi_restore 8
 144              		.cfi_def_cfa 2, 16
 145 001c 13010101 		addi	sp,sp,16
 146              		.cfi_def_cfa_offset 0
 147 0020 67800000 		jr	ra
 148              		.cfi_endproc
 149              	.LFE51:
 151              		.weak	_ZN14PeriodicThreadD1Ev
 152              		.set	_ZN14PeriodicThreadD1Ev,_ZN14PeriodicThreadD2Ev
 153              		.text
 154              		.align	2
 155              		.globl	_ZN9SemaphoreD2Ev
 157              	_ZN9SemaphoreD2Ev:
 158              	.LFB39:
  61:src/syscall_cpp.cpp **** 
  62:src/syscall_cpp.cpp **** Semaphore::Semaphore(unsigned int init) {
  63:src/syscall_cpp.cpp ****     sem_open(&myHandle, init);
  64:src/syscall_cpp.cpp **** }
  65:src/syscall_cpp.cpp **** 
  66:src/syscall_cpp.cpp **** Semaphore::~Semaphore() {
 159              		.loc 2 66 1 is_stmt 1
 160              		.cfi_startproc
 161              		.cfi_personality 0x9b,DW.ref.__gxx_personality_v0
 162              		.cfi_lsda 0x1b,.LLSDA39
 163              	.LVL7:
 164 0044 130101FF 		addi	sp,sp,-16
 165              		.cfi_def_cfa_offset 16
 166 0048 23341100 		sd	ra,8(sp)
 167 004c 23308100 		sd	s0,0(sp)
 168              		.cfi_offset 1, -8
 169              		.cfi_offset 8, -16
 170 0050 13040101 		addi	s0,sp,16
 171              		.cfi_def_cfa 8, 0
 172              	.LBB10:
 173              		.loc 2 66 23 is_stmt 0
 174 0054 97070000 		lla	a5,_ZTV9Semaphore+16
 174      93870700 
 175 005c 2330F500 		sd	a5,0(a0)
  67:src/syscall_cpp.cpp ****     sem_close(myHandle);
 176              		.loc 2 67 5 is_stmt 1
 177              		.loc 2 67 14 is_stmt 0
 178 0060 03358500 		ld	a0,8(a0)
 179              	.LVL8:
GAS LISTING /tmp/ccr02pVA.s 			page 6


 180 0064 97000000 		call	_Z9sem_closeP10CSemaphore@plt
 180      E7800000 
 181              	.LVL9:
 182              	.LBE10:
  68:src/syscall_cpp.cpp **** }
 183              		.loc 2 68 1
 184 006c 83308100 		ld	ra,8(sp)
 185              		.cfi_restore 1
 186 0070 03340100 		ld	s0,0(sp)
 187              		.cfi_restore 8
 188              		.cfi_def_cfa 2, 16
 189 0074 13010101 		addi	sp,sp,16
 190              		.cfi_def_cfa_offset 0
 191 0078 67800000 		jr	ra
 192              		.cfi_endproc
 193              	.LFE39:
 194              		.globl	__gxx_personality_v0
 195              		.section	.gcc_except_table,"a",@progbits
 196              	.LLSDA39:
 197 0000 FF       		.byte	0xff
 198 0001 FF       		.byte	0xff
 199 0002 03       		.byte	0x3
 200 0003 00       		.byte	0
 201              		.text
 203              		.globl	_ZN9SemaphoreD1Ev
 204              		.set	_ZN9SemaphoreD1Ev,_ZN9SemaphoreD2Ev
 205              		.align	2
 206              		.globl	_Znwm
 208              	_Znwm:
 209              	.LFB17:
   7:src/syscall_cpp.cpp ****     return mem_alloc(size);
 210              		.loc 2 7 33 is_stmt 1
 211              		.cfi_startproc
 212              	.LVL10:
 213 007c 130101FF 		addi	sp,sp,-16
 214              		.cfi_def_cfa_offset 16
 215 0080 23341100 		sd	ra,8(sp)
 216 0084 23308100 		sd	s0,0(sp)
 217              		.cfi_offset 1, -8
 218              		.cfi_offset 8, -16
 219 0088 13040101 		addi	s0,sp,16
 220              		.cfi_def_cfa 8, 0
   8:src/syscall_cpp.cpp **** }
 221              		.loc 2 8 5
   8:src/syscall_cpp.cpp **** }
 222              		.loc 2 8 21 is_stmt 0
 223 008c 97000000 		call	_Z9mem_allocm@plt
 223      E7800000 
 224              	.LVL11:
   9:src/syscall_cpp.cpp **** 
 225              		.loc 2 9 1
 226 0094 83308100 		ld	ra,8(sp)
 227              		.cfi_restore 1
 228 0098 03340100 		ld	s0,0(sp)
 229              		.cfi_restore 8
 230              		.cfi_def_cfa 2, 16
 231 009c 13010101 		addi	sp,sp,16
GAS LISTING /tmp/ccr02pVA.s 			page 7


 232              		.cfi_def_cfa_offset 0
 233 00a0 67800000 		jr	ra
 234              		.cfi_endproc
 235              	.LFE17:
 237              		.align	2
 238              		.globl	_Znam
 240              	_Znam:
 241              	.LFB18:
  11:src/syscall_cpp.cpp ****     return mem_alloc(size);
 242              		.loc 2 11 35 is_stmt 1
 243              		.cfi_startproc
 244              	.LVL12:
 245 00a4 130101FF 		addi	sp,sp,-16
 246              		.cfi_def_cfa_offset 16
 247 00a8 23341100 		sd	ra,8(sp)
 248 00ac 23308100 		sd	s0,0(sp)
 249              		.cfi_offset 1, -8
 250              		.cfi_offset 8, -16
 251 00b0 13040101 		addi	s0,sp,16
 252              		.cfi_def_cfa 8, 0
  12:src/syscall_cpp.cpp **** }
 253              		.loc 2 12 5
  12:src/syscall_cpp.cpp **** }
 254              		.loc 2 12 21 is_stmt 0
 255 00b4 97000000 		call	_Z9mem_allocm@plt
 255      E7800000 
 256              	.LVL13:
  13:src/syscall_cpp.cpp **** 
 257              		.loc 2 13 1
 258 00bc 83308100 		ld	ra,8(sp)
 259              		.cfi_restore 1
 260 00c0 03340100 		ld	s0,0(sp)
 261              		.cfi_restore 8
 262              		.cfi_def_cfa 2, 16
 263 00c4 13010101 		addi	sp,sp,16
 264              		.cfi_def_cfa_offset 0
 265 00c8 67800000 		jr	ra
 266              		.cfi_endproc
 267              	.LFE18:
 269              		.align	2
 270              		.globl	_ZdlPv
 272              	_ZdlPv:
 273              	.LFB19:
  15:src/syscall_cpp.cpp ****     mem_free(mem);
 274              		.loc 2 15 33 is_stmt 1
 275              		.cfi_startproc
 276              	.LVL14:
 277 00cc 130101FF 		addi	sp,sp,-16
 278              		.cfi_def_cfa_offset 16
 279 00d0 23341100 		sd	ra,8(sp)
 280 00d4 23308100 		sd	s0,0(sp)
 281              		.cfi_offset 1, -8
 282              		.cfi_offset 8, -16
 283 00d8 13040101 		addi	s0,sp,16
 284              		.cfi_def_cfa 8, 0
  16:src/syscall_cpp.cpp **** }
 285              		.loc 2 16 5
GAS LISTING /tmp/ccr02pVA.s 			page 8


  16:src/syscall_cpp.cpp **** }
 286              		.loc 2 16 13 is_stmt 0
 287 00dc 97000000 		call	_Z8mem_freePv@plt
 287      E7800000 
 288              	.LVL15:
  17:src/syscall_cpp.cpp **** 
 289              		.loc 2 17 1
 290 00e4 83308100 		ld	ra,8(sp)
 291              		.cfi_restore 1
 292 00e8 03340100 		ld	s0,0(sp)
 293              		.cfi_restore 8
 294              		.cfi_def_cfa 2, 16
 295 00ec 13010101 		addi	sp,sp,16
 296              		.cfi_def_cfa_offset 0
 297 00f0 67800000 		jr	ra
 298              		.cfi_endproc
 299              	.LFE19:
 301              		.align	2
 302              		.globl	_ZN6ThreadD0Ev
 304              	_ZN6ThreadD0Ev:
 305              	.LFB27:
  32:src/syscall_cpp.cpp **** }
 306              		.loc 2 32 1 is_stmt 1
 307              		.cfi_startproc
 308              	.LVL16:
 309 00f4 130101FF 		addi	sp,sp,-16
 310              		.cfi_def_cfa_offset 16
 311 00f8 23341100 		sd	ra,8(sp)
 312 00fc 23308100 		sd	s0,0(sp)
 313              		.cfi_offset 1, -8
 314              		.cfi_offset 8, -16
 315 0100 13040101 		addi	s0,sp,16
 316              		.cfi_def_cfa 8, 0
  33:src/syscall_cpp.cpp **** 
 317              		.loc 2 33 1 is_stmt 0
 318 0104 97000000 		call	_ZdlPv
 318      E7800000 
 319              	.LVL17:
 320 010c 83308100 		ld	ra,8(sp)
 321              		.cfi_restore 1
 322 0110 03340100 		ld	s0,0(sp)
 323              		.cfi_restore 8
 324              		.cfi_def_cfa 2, 16
 325 0114 13010101 		addi	sp,sp,16
 326              		.cfi_def_cfa_offset 0
 327 0118 67800000 		jr	ra
 328              		.cfi_endproc
 329              	.LFE27:
 331              		.align	2
 332              		.globl	_ZN9SemaphoreD0Ev
 334              	_ZN9SemaphoreD0Ev:
 335              	.LFB41:
  66:src/syscall_cpp.cpp ****     sem_close(myHandle);
 336              		.loc 2 66 1 is_stmt 1
 337              		.cfi_startproc
 338              	.LVL18:
 339 011c 130101FE 		addi	sp,sp,-32
GAS LISTING /tmp/ccr02pVA.s 			page 9


 340              		.cfi_def_cfa_offset 32
 341 0120 233C1100 		sd	ra,24(sp)
 342 0124 23388100 		sd	s0,16(sp)
 343 0128 23349100 		sd	s1,8(sp)
 344              		.cfi_offset 1, -8
 345              		.cfi_offset 8, -16
 346              		.cfi_offset 9, -24
 347 012c 13040102 		addi	s0,sp,32
 348              		.cfi_def_cfa 8, 0
 349 0130 93040500 		mv	s1,a0
 350              		.loc 2 68 1 is_stmt 0
 351 0134 97000000 		call	_ZN9SemaphoreD1Ev
 351      E7800000 
 352              	.LVL19:
 353 013c 13850400 		mv	a0,s1
 354 0140 97000000 		call	_ZdlPv
 354      E7800000 
 355              	.LVL20:
 356 0148 83308101 		ld	ra,24(sp)
 357              		.cfi_restore 1
 358 014c 03340101 		ld	s0,16(sp)
 359              		.cfi_restore 8
 360              		.cfi_def_cfa 2, 32
 361 0150 83348100 		ld	s1,8(sp)
 362              		.cfi_restore 9
 363              	.LVL21:
 364 0154 13010102 		addi	sp,sp,32
 365              		.cfi_def_cfa_offset 0
 366 0158 67800000 		jr	ra
 367              		.cfi_endproc
 368              	.LFE41:
 370              		.section	.text._ZN14PeriodicThreadD0Ev,"axG",@progbits,_ZN14PeriodicThreadD5Ev,comdat
 371              		.align	2
 372              		.weak	_ZN14PeriodicThreadD0Ev
 374              	_ZN14PeriodicThreadD0Ev:
 375              	.LFB53:
  41:src/../h/syscall_cpp.hpp **** public:
 376              		.loc 1 41 7 is_stmt 1
 377              		.cfi_startproc
 378              	.LVL22:
 379 0000 130101FF 		addi	sp,sp,-16
 380              		.cfi_def_cfa_offset 16
 381 0004 23341100 		sd	ra,8(sp)
 382 0008 23308100 		sd	s0,0(sp)
 383              		.cfi_offset 1, -8
 384              		.cfi_offset 8, -16
 385 000c 13040101 		addi	s0,sp,16
 386              		.cfi_def_cfa 8, 0
 387              	.LVL23:
 388              	.LBB11:
 389              	.LBB12:
  41:src/../h/syscall_cpp.hpp **** public:
 390              		.loc 1 41 7 is_stmt 0
 391 0010 97070000 		lla	a5,_ZTV14PeriodicThread+16
 391      93870700 
 392 0018 2330F500 		sd	a5,0(a0)
 393              	.LVL24:
GAS LISTING /tmp/ccr02pVA.s 			page 10


 394              	.LBE12:
 395              	.LBE11:
 396 001c 97000000 		call	_ZdlPv
 396      E7800000 
 397              	.LVL25:
 398 0024 83308100 		ld	ra,8(sp)
 399              		.cfi_restore 1
 400 0028 03340100 		ld	s0,0(sp)
 401              		.cfi_restore 8
 402              		.cfi_def_cfa 2, 16
 403 002c 13010101 		addi	sp,sp,16
 404              		.cfi_def_cfa_offset 0
 405 0030 67800000 		jr	ra
 406              		.cfi_endproc
 407              	.LFE53:
 409              		.text
 410              		.align	2
 411              		.globl	_ZdaPv
 413              	_ZdaPv:
 414              	.LFB20:
  19:src/syscall_cpp.cpp ****     mem_free(mem);
 415              		.loc 2 19 35 is_stmt 1
 416              		.cfi_startproc
 417              	.LVL26:
 418 015c 130101FF 		addi	sp,sp,-16
 419              		.cfi_def_cfa_offset 16
 420 0160 23341100 		sd	ra,8(sp)
 421 0164 23308100 		sd	s0,0(sp)
 422              		.cfi_offset 1, -8
 423              		.cfi_offset 8, -16
 424 0168 13040101 		addi	s0,sp,16
 425              		.cfi_def_cfa 8, 0
  20:src/syscall_cpp.cpp **** }
 426              		.loc 2 20 5
  20:src/syscall_cpp.cpp **** }
 427              		.loc 2 20 13 is_stmt 0
 428 016c 97000000 		call	_Z8mem_freePv@plt
 428      E7800000 
 429              	.LVL27:
  21:src/syscall_cpp.cpp **** 
 430              		.loc 2 21 1
 431 0174 83308100 		ld	ra,8(sp)
 432              		.cfi_restore 1
 433 0178 03340100 		ld	s0,0(sp)
 434              		.cfi_restore 8
 435              		.cfi_def_cfa 2, 16
 436 017c 13010101 		addi	sp,sp,16
 437              		.cfi_def_cfa_offset 0
 438 0180 67800000 		jr	ra
 439              		.cfi_endproc
 440              	.LFE20:
 442              		.align	2
 443              		.globl	_ZN6ThreadC2EPFvPvES0_
 445              	_ZN6ThreadC2EPFvPvES0_:
 446              	.LFB22:
  24:src/syscall_cpp.cpp ****     asm volatile("mv a3, %0"::"r"(arg));
 447              		.loc 2 24 1 is_stmt 1
GAS LISTING /tmp/ccr02pVA.s 			page 11


 448              		.cfi_startproc
 449              	.LVL28:
 450 0184 130101FF 		addi	sp,sp,-16
 451              		.cfi_def_cfa_offset 16
 452 0188 23348100 		sd	s0,8(sp)
 453              		.cfi_offset 8, -8
 454 018c 13040101 		addi	s0,sp,16
 455              		.cfi_def_cfa 8, 0
 456              	.LBB13:
  24:src/syscall_cpp.cpp ****     asm volatile("mv a3, %0"::"r"(arg));
 457              		.loc 2 24 47 is_stmt 0
 458 0190 97070000 		lla	a5,_ZTV6Thread+16
 458      93870700 
 459 0198 2330F500 		sd	a5,0(a0)
  25:src/syscall_cpp.cpp ****     asm volatile("mv a2, %0"::"r"(body));
 460              		.loc 2 25 5 is_stmt 1
  25:src/syscall_cpp.cpp ****     asm volatile("mv a2, %0"::"r"(body));
 461              		.loc 2 25 40 is_stmt 0
 462              	#APP
 463              	# 25 "src/syscall_cpp.cpp" 1
  26:src/syscall_cpp.cpp ****     asm volatile("mv a1, %0"::"r"(&myHandle));
 464              		mv a3, a2
 465              	# 0 "" 2
 466              		.loc 2 26 5 is_stmt 1
  26:src/syscall_cpp.cpp ****     asm volatile("mv a1, %0"::"r"(&myHandle));
 467              		.loc 2 26 41 is_stmt 0
 468              	# 26 "src/syscall_cpp.cpp" 1
  27:src/syscall_cpp.cpp ****     asm volatile("li a0, 0x11");
 469              		mv a2, a1
 470              	# 0 "" 2
 471              		.loc 2 27 5 is_stmt 1
  27:src/syscall_cpp.cpp ****     asm volatile("li a0, 0x11");
 472              		.loc 2 27 35 is_stmt 0
 473              	#NO_APP
 474 01a4 13058500 		addi	a0,a0,8
 475              	.LVL29:
  27:src/syscall_cpp.cpp ****     asm volatile("li a0, 0x11");
 476              		.loc 2 27 46
 477              	#APP
 478              	# 27 "src/syscall_cpp.cpp" 1
  28:src/syscall_cpp.cpp ****     asm volatile("ecall");
 479              		mv a1, a0
 480              	# 0 "" 2
 481              		.loc 2 28 5 is_stmt 1
  28:src/syscall_cpp.cpp ****     asm volatile("ecall");
 482              		.loc 2 28 32 is_stmt 0
 483              	# 28 "src/syscall_cpp.cpp" 1
  29:src/syscall_cpp.cpp **** }
 484              		li a0, 0x11
 485              	# 0 "" 2
 486              		.loc 2 29 5 is_stmt 1
  29:src/syscall_cpp.cpp **** }
 487              		.loc 2 29 26 is_stmt 0
 488              	# 29 "src/syscall_cpp.cpp" 1
 489              		ecall
 490              	# 0 "" 2
 491              	#NO_APP
GAS LISTING /tmp/ccr02pVA.s 			page 12


 492              	.LBE13:
  30:src/syscall_cpp.cpp **** 
 493              		.loc 2 30 1
 494 01b4 03348100 		ld	s0,8(sp)
 495              		.cfi_restore 8
 496              		.cfi_def_cfa 2, 16
 497 01b8 13010101 		addi	sp,sp,16
 498              		.cfi_def_cfa_offset 0
 499 01bc 67800000 		jr	ra
 500              		.cfi_endproc
 501              	.LFE22:
 503              		.globl	_ZN6ThreadC1EPFvPvES0_
 504              		.set	_ZN6ThreadC1EPFvPvES0_,_ZN6ThreadC2EPFvPvES0_
 505              		.align	2
 506              		.globl	_ZN6Thread5startEv
 508              	_ZN6Thread5startEv:
 509              	.LFB28:
  35:src/syscall_cpp.cpp ****     thread_start(myHandle);
 510              		.loc 2 35 21 is_stmt 1
 511              		.cfi_startproc
 512              	.LVL30:
 513 01c0 130101FF 		addi	sp,sp,-16
 514              		.cfi_def_cfa_offset 16
 515 01c4 23341100 		sd	ra,8(sp)
 516 01c8 23308100 		sd	s0,0(sp)
 517              		.cfi_offset 1, -8
 518              		.cfi_offset 8, -16
 519 01cc 13040101 		addi	s0,sp,16
 520              		.cfi_def_cfa 8, 0
  36:src/syscall_cpp.cpp ****     return 0;
 521              		.loc 2 36 5
  36:src/syscall_cpp.cpp ****     return 0;
 522              		.loc 2 36 17 is_stmt 0
 523 01d0 03358500 		ld	a0,8(a0)
 524              	.LVL31:
 525 01d4 97000000 		call	_Z12thread_startP7CThread@plt
 525      E7800000 
 526              	.LVL32:
  37:src/syscall_cpp.cpp **** }
 527              		.loc 2 37 5 is_stmt 1
  38:src/syscall_cpp.cpp **** 
 528              		.loc 2 38 1 is_stmt 0
 529 01dc 13050000 		li	a0,0
 530 01e0 83308100 		ld	ra,8(sp)
 531              		.cfi_restore 1
 532 01e4 03340100 		ld	s0,0(sp)
 533              		.cfi_restore 8
 534              		.cfi_def_cfa 2, 16
 535 01e8 13010101 		addi	sp,sp,16
 536              		.cfi_def_cfa_offset 0
 537 01ec 67800000 		jr	ra
 538              		.cfi_endproc
 539              	.LFE28:
 541              		.align	2
 542              		.globl	_ZN6Thread8dispatchEv
 544              	_ZN6Thread8dispatchEv:
 545              	.LFB29:
GAS LISTING /tmp/ccr02pVA.s 			page 13


  40:src/syscall_cpp.cpp ****     thread_dispatch();
 546              		.loc 2 40 25 is_stmt 1
 547              		.cfi_startproc
 548 01f0 130101FF 		addi	sp,sp,-16
 549              		.cfi_def_cfa_offset 16
 550 01f4 23341100 		sd	ra,8(sp)
 551 01f8 23308100 		sd	s0,0(sp)
 552              		.cfi_offset 1, -8
 553              		.cfi_offset 8, -16
 554 01fc 13040101 		addi	s0,sp,16
 555              		.cfi_def_cfa 8, 0
  41:src/syscall_cpp.cpp **** }
 556              		.loc 2 41 5
  41:src/syscall_cpp.cpp **** }
 557              		.loc 2 41 20 is_stmt 0
 558 0200 97000000 		call	_Z15thread_dispatchv@plt
 558      E7800000 
 559              	.LVL33:
  42:src/syscall_cpp.cpp **** 
 560              		.loc 2 42 1
 561 0208 83308100 		ld	ra,8(sp)
 562              		.cfi_restore 1
 563 020c 03340100 		ld	s0,0(sp)
 564              		.cfi_restore 8
 565              		.cfi_def_cfa 2, 16
 566 0210 13010101 		addi	sp,sp,16
 567              		.cfi_def_cfa_offset 0
 568 0214 67800000 		jr	ra
 569              		.cfi_endproc
 570              	.LFE29:
 572              		.align	2
 573              		.globl	_ZN6Thread5sleepEm
 575              	_ZN6Thread5sleepEm:
 576              	.LFB30:
  44:src/syscall_cpp.cpp ****     if(time==0)return -1;
 577              		.loc 2 44 33 is_stmt 1
 578              		.cfi_startproc
 579              	.LVL34:
  45:src/syscall_cpp.cpp ****     return time_sleep(time);
 580              		.loc 2 45 5
 581 0218 63060502 		beqz	a0,.L35
  44:src/syscall_cpp.cpp ****     if(time==0)return -1;
 582              		.loc 2 44 33 is_stmt 0
 583 021c 130101FF 		addi	sp,sp,-16
 584              		.cfi_def_cfa_offset 16
 585 0220 23341100 		sd	ra,8(sp)
 586 0224 23308100 		sd	s0,0(sp)
 587              		.cfi_offset 1, -8
 588              		.cfi_offset 8, -16
 589 0228 13040101 		addi	s0,sp,16
 590              		.cfi_def_cfa 8, 0
  46:src/syscall_cpp.cpp **** }
 591              		.loc 2 46 5 is_stmt 1
  46:src/syscall_cpp.cpp **** }
 592              		.loc 2 46 22 is_stmt 0
 593 022c 97000000 		call	_Z10time_sleepm@plt
 593      E7800000 
GAS LISTING /tmp/ccr02pVA.s 			page 14


 594              	.LVL35:
  47:src/syscall_cpp.cpp **** 
 595              		.loc 2 47 1
 596 0234 83308100 		ld	ra,8(sp)
 597              		.cfi_restore 1
 598 0238 03340100 		ld	s0,0(sp)
 599              		.cfi_restore 8
 600              		.cfi_def_cfa 2, 16
 601 023c 13010101 		addi	sp,sp,16
 602              		.cfi_def_cfa_offset 0
 603 0240 67800000 		jr	ra
 604              	.LVL36:
 605              	.L35:
  45:src/syscall_cpp.cpp ****     return time_sleep(time);
 606              		.loc 2 45 24
 607 0244 1305F0FF 		li	a0,-1
 608              	.LVL37:
  47:src/syscall_cpp.cpp **** 
 609              		.loc 2 47 1
 610 0248 67800000 		ret
 611              		.cfi_endproc
 612              	.LFE30:
 614              		.align	2
 615              		.globl	_ZN14PeriodicThread7wrapperEPv
 617              	_ZN14PeriodicThread7wrapperEPv:
 618              	.LFB47:
  69:src/syscall_cpp.cpp **** 
  70:src/syscall_cpp.cpp **** int Semaphore::wait() {
  71:src/syscall_cpp.cpp ****     return sem_wait(myHandle);
  72:src/syscall_cpp.cpp **** }
  73:src/syscall_cpp.cpp **** 
  74:src/syscall_cpp.cpp **** int Semaphore::signal() {
  75:src/syscall_cpp.cpp ****     return sem_signal(myHandle);
  76:src/syscall_cpp.cpp **** }
  77:src/syscall_cpp.cpp **** 
  78:src/syscall_cpp.cpp **** PeriodicThread::PeriodicThread(time_t period) :
  79:src/syscall_cpp.cpp ****     Thread(&PeriodicThread::wrapper, new Arg(period, this)){}
  80:src/syscall_cpp.cpp **** 
  81:src/syscall_cpp.cpp **** bool PeriodicThread::flag= true;
  82:src/syscall_cpp.cpp **** void PeriodicThread::wrapper(void* args) {
 619              		.loc 2 82 42 is_stmt 1
 620              		.cfi_startproc
 621              	.LVL38:
 622 024c 130101FE 		addi	sp,sp,-32
 623              		.cfi_def_cfa_offset 32
 624 0250 233C1100 		sd	ra,24(sp)
 625 0254 23388100 		sd	s0,16(sp)
 626 0258 23349100 		sd	s1,8(sp)
 627              		.cfi_offset 1, -8
 628              		.cfi_offset 8, -16
 629              		.cfi_offset 9, -24
 630 025c 13040102 		addi	s0,sp,32
 631              		.cfi_def_cfa 8, 0
 632 0260 93040500 		mv	s1,a0
  83:src/syscall_cpp.cpp ****     Arg* argumenti = (Arg*)args;
 633              		.loc 2 83 5
 634              	.LVL39:
GAS LISTING /tmp/ccr02pVA.s 			page 15


 635 0264 6F000002 		j	.L41
 636              	.LVL40:
 637              	.L44:
  84:src/syscall_cpp.cpp ****     while(1){
  85:src/syscall_cpp.cpp ****         if(flag) {
  86:src/syscall_cpp.cpp ****             argumenti->ja->periodicActivation();
 638              		.loc 2 86 13
 639              		.loc 2 86 24 is_stmt 0
 640 0268 03B50400 		ld	a0,0(s1)
 641              		.loc 2 86 47
 642 026c 83370500 		ld	a5,0(a0)
 643 0270 83B78701 		ld	a5,24(a5)
 644              		.loc 2 86 46
 645 0274 E7800700 		jalr	a5
 646              	.LVL41:
  87:src/syscall_cpp.cpp ****             sleep(argumenti->period);
 647              		.loc 2 87 13 is_stmt 1
 648              		.loc 2 87 18 is_stmt 0
 649 0278 03B58400 		ld	a0,8(s1)
 650 027c 97000000 		call	_ZN6Thread5sleepEm
 650      E7800000 
 651              	.LVL42:
 652              	.L41:
  84:src/syscall_cpp.cpp ****     while(1){
 653              		.loc 2 84 5 is_stmt 1
  85:src/syscall_cpp.cpp ****             argumenti->ja->periodicActivation();
 654              		.loc 2 85 9
 655 0284 97070000 		lbu	a5,.LANCHOR0
 655      83C70700 
 656 028c E38C07FE 		beqz	a5,.L41
 657 0290 6FF09FFD 		j	.L44
 658              		.cfi_endproc
 659              	.LFE47:
 661              		.align	2
 662              		.globl	_ZN6ThreadC2Ev
 664              	_ZN6ThreadC2Ev:
 665              	.LFB32:
  49:src/syscall_cpp.cpp ****     asm volatile("mv a3, %0"::"r"(this));
 666              		.loc 2 49 1
 667              		.cfi_startproc
 668              	.LVL43:
 669 0294 130101FF 		addi	sp,sp,-16
 670              		.cfi_def_cfa_offset 16
 671 0298 23348100 		sd	s0,8(sp)
 672              		.cfi_offset 8, -8
 673 029c 13040101 		addi	s0,sp,16
 674              		.cfi_def_cfa 8, 0
 675              	.LBB14:
  49:src/syscall_cpp.cpp ****     asm volatile("mv a3, %0"::"r"(this));
 676              		.loc 2 49 16 is_stmt 0
 677 02a0 97070000 		lla	a5,_ZTV6Thread+16
 677      93870700 
 678 02a8 2330F500 		sd	a5,0(a0)
  50:src/syscall_cpp.cpp ****     asm volatile("mv a2, %0"::"r"(wrapper));
 679              		.loc 2 50 5 is_stmt 1
  50:src/syscall_cpp.cpp ****     asm volatile("mv a2, %0"::"r"(wrapper));
 680              		.loc 2 50 41 is_stmt 0
GAS LISTING /tmp/ccr02pVA.s 			page 16


 681              	#APP
 682              	# 50 "src/syscall_cpp.cpp" 1
  51:src/syscall_cpp.cpp ****     asm volatile("mv a1, %0"::"r"(&myHandle));
 683              		mv a3, a0
 684              	# 0 "" 2
 685              		.loc 2 51 5 is_stmt 1
  51:src/syscall_cpp.cpp ****     asm volatile("mv a1, %0"::"r"(&myHandle));
 686              		.loc 2 51 44 is_stmt 0
 687              	#NO_APP
 688 02b0 97070000 		lla	a5,_ZN6Thread7wrapperEPv
 688      93870700 
 689              	#APP
 690              	# 51 "src/syscall_cpp.cpp" 1
  52:src/syscall_cpp.cpp ****     asm volatile("li a0, 0x11");
 691              		mv a2, a5
 692              	# 0 "" 2
 693              		.loc 2 52 5 is_stmt 1
  52:src/syscall_cpp.cpp ****     asm volatile("li a0, 0x11");
 694              		.loc 2 52 35 is_stmt 0
 695              	#NO_APP
 696 02bc 13058500 		addi	a0,a0,8
 697              	.LVL44:
  52:src/syscall_cpp.cpp ****     asm volatile("li a0, 0x11");
 698              		.loc 2 52 46
 699              	#APP
 700              	# 52 "src/syscall_cpp.cpp" 1
  53:src/syscall_cpp.cpp ****     asm volatile("ecall");
 701              		mv a1, a0
 702              	# 0 "" 2
 703              		.loc 2 53 5 is_stmt 1
  53:src/syscall_cpp.cpp ****     asm volatile("ecall");
 704              		.loc 2 53 32 is_stmt 0
 705              	# 53 "src/syscall_cpp.cpp" 1
  54:src/syscall_cpp.cpp **** }
 706              		li a0, 0x11
 707              	# 0 "" 2
 708              		.loc 2 54 5 is_stmt 1
  54:src/syscall_cpp.cpp **** }
 709              		.loc 2 54 26 is_stmt 0
 710              	# 54 "src/syscall_cpp.cpp" 1
 711              		ecall
 712              	# 0 "" 2
 713              	#NO_APP
 714              	.LBE14:
  55:src/syscall_cpp.cpp **** 
 715              		.loc 2 55 1
 716 02cc 03348100 		ld	s0,8(sp)
 717              		.cfi_restore 8
 718              		.cfi_def_cfa 2, 16
 719 02d0 13010101 		addi	sp,sp,16
 720              		.cfi_def_cfa_offset 0
 721 02d4 67800000 		jr	ra
 722              		.cfi_endproc
 723              	.LFE32:
 725              		.globl	_ZN6ThreadC1Ev
 726              		.set	_ZN6ThreadC1Ev,_ZN6ThreadC2Ev
 727              		.align	2
GAS LISTING /tmp/ccr02pVA.s 			page 17


 728              		.globl	_ZN9SemaphoreC2Ej
 730              	_ZN9SemaphoreC2Ej:
 731              	.LFB36:
  62:src/syscall_cpp.cpp ****     sem_open(&myHandle, init);
 732              		.loc 2 62 1 is_stmt 1
 733              		.cfi_startproc
 734              	.LVL45:
 735 02d8 130101FF 		addi	sp,sp,-16
 736              		.cfi_def_cfa_offset 16
 737 02dc 23341100 		sd	ra,8(sp)
 738 02e0 23308100 		sd	s0,0(sp)
 739              		.cfi_offset 1, -8
 740              		.cfi_offset 8, -16
 741 02e4 13040101 		addi	s0,sp,16
 742              		.cfi_def_cfa 8, 0
 743              	.LBB15:
  62:src/syscall_cpp.cpp ****     sem_open(&myHandle, init);
 744              		.loc 2 62 39 is_stmt 0
 745 02e8 97070000 		lla	a5,_ZTV9Semaphore+16
 745      93870700 
 746 02f0 2330F500 		sd	a5,0(a0)
  63:src/syscall_cpp.cpp **** }
 747              		.loc 2 63 5 is_stmt 1
  63:src/syscall_cpp.cpp **** }
 748              		.loc 2 63 13 is_stmt 0
 749 02f4 13058500 		addi	a0,a0,8
 750              	.LVL46:
 751 02f8 97000000 		call	_Z8sem_openPP10CSemaphorej@plt
 751      E7800000 
 752              	.LVL47:
 753              	.LBE15:
  64:src/syscall_cpp.cpp **** 
 754              		.loc 2 64 1
 755 0300 83308100 		ld	ra,8(sp)
 756              		.cfi_restore 1
 757 0304 03340100 		ld	s0,0(sp)
 758              		.cfi_restore 8
 759              		.cfi_def_cfa 2, 16
 760 0308 13010101 		addi	sp,sp,16
 761              		.cfi_def_cfa_offset 0
 762 030c 67800000 		jr	ra
 763              		.cfi_endproc
 764              	.LFE36:
 766              		.globl	_ZN9SemaphoreC1Ej
 767              		.set	_ZN9SemaphoreC1Ej,_ZN9SemaphoreC2Ej
 768              		.align	2
 769              		.globl	_ZN9Semaphore4waitEv
 771              	_ZN9Semaphore4waitEv:
 772              	.LFB42:
  70:src/syscall_cpp.cpp ****     return sem_wait(myHandle);
 773              		.loc 2 70 23 is_stmt 1
 774              		.cfi_startproc
 775              	.LVL48:
 776 0310 130101FF 		addi	sp,sp,-16
 777              		.cfi_def_cfa_offset 16
 778 0314 23341100 		sd	ra,8(sp)
 779 0318 23308100 		sd	s0,0(sp)
GAS LISTING /tmp/ccr02pVA.s 			page 18


 780              		.cfi_offset 1, -8
 781              		.cfi_offset 8, -16
 782 031c 13040101 		addi	s0,sp,16
 783              		.cfi_def_cfa 8, 0
  71:src/syscall_cpp.cpp **** }
 784              		.loc 2 71 5
  71:src/syscall_cpp.cpp **** }
 785              		.loc 2 71 20 is_stmt 0
 786 0320 03358500 		ld	a0,8(a0)
 787              	.LVL49:
 788 0324 97000000 		call	_Z8sem_waitP10CSemaphore@plt
 788      E7800000 
 789              	.LVL50:
  72:src/syscall_cpp.cpp **** 
 790              		.loc 2 72 1
 791 032c 83308100 		ld	ra,8(sp)
 792              		.cfi_restore 1
 793 0330 03340100 		ld	s0,0(sp)
 794              		.cfi_restore 8
 795              		.cfi_def_cfa 2, 16
 796 0334 13010101 		addi	sp,sp,16
 797              		.cfi_def_cfa_offset 0
 798 0338 67800000 		jr	ra
 799              		.cfi_endproc
 800              	.LFE42:
 802              		.align	2
 803              		.globl	_ZN9Semaphore6signalEv
 805              	_ZN9Semaphore6signalEv:
 806              	.LFB43:
  74:src/syscall_cpp.cpp ****     return sem_signal(myHandle);
 807              		.loc 2 74 25 is_stmt 1
 808              		.cfi_startproc
 809              	.LVL51:
 810 033c 130101FF 		addi	sp,sp,-16
 811              		.cfi_def_cfa_offset 16
 812 0340 23341100 		sd	ra,8(sp)
 813 0344 23308100 		sd	s0,0(sp)
 814              		.cfi_offset 1, -8
 815              		.cfi_offset 8, -16
 816 0348 13040101 		addi	s0,sp,16
 817              		.cfi_def_cfa 8, 0
  75:src/syscall_cpp.cpp **** }
 818              		.loc 2 75 5
  75:src/syscall_cpp.cpp **** }
 819              		.loc 2 75 22 is_stmt 0
 820 034c 03358500 		ld	a0,8(a0)
 821              	.LVL52:
 822 0350 97000000 		call	_Z10sem_signalP10CSemaphore@plt
 822      E7800000 
 823              	.LVL53:
  76:src/syscall_cpp.cpp **** 
 824              		.loc 2 76 1
 825 0358 83308100 		ld	ra,8(sp)
 826              		.cfi_restore 1
 827 035c 03340100 		ld	s0,0(sp)
 828              		.cfi_restore 8
 829              		.cfi_def_cfa 2, 16
GAS LISTING /tmp/ccr02pVA.s 			page 19


 830 0360 13010101 		addi	sp,sp,16
 831              		.cfi_def_cfa_offset 0
 832 0364 67800000 		jr	ra
 833              		.cfi_endproc
 834              	.LFE43:
 836              		.align	2
 837              		.globl	_ZN14PeriodicThreadC2Em
 839              	_ZN14PeriodicThreadC2Em:
 840              	.LFB45:
  78:src/syscall_cpp.cpp ****     Thread(&PeriodicThread::wrapper, new Arg(period, this)){}
 841              		.loc 2 78 1 is_stmt 1
 842              		.cfi_startproc
 843              	.LVL54:
 844 0368 130101FE 		addi	sp,sp,-32
 845              		.cfi_def_cfa_offset 32
 846 036c 233C1100 		sd	ra,24(sp)
 847 0370 23388100 		sd	s0,16(sp)
 848 0374 23349100 		sd	s1,8(sp)
 849 0378 23302101 		sd	s2,0(sp)
 850              		.cfi_offset 1, -8
 851              		.cfi_offset 8, -16
 852              		.cfi_offset 9, -24
 853              		.cfi_offset 18, -32
 854 037c 13040102 		addi	s0,sp,32
 855              		.cfi_def_cfa 8, 0
 856 0380 93040500 		mv	s1,a0
 857 0384 13890500 		mv	s2,a1
 858              	.LBB16:
  79:src/syscall_cpp.cpp **** 
 859              		.loc 2 79 58 is_stmt 0
 860 0388 13050001 		li	a0,16
 861              	.LVL55:
 862 038c 97000000 		call	_Znwm
 862      E7800000 
 863              	.LVL56:
 864 0394 13060500 		mv	a2,a0
 865              	.LVL57:
 866              	.LBB17:
 867              	.LBB18:
  47:src/../h/syscall_cpp.hpp **** private:
  48:src/../h/syscall_cpp.hpp ****     static void wrapper(void*);
  49:src/../h/syscall_cpp.hpp ****     struct Arg{
  50:src/../h/syscall_cpp.hpp ****         PeriodicThread* ja;
  51:src/../h/syscall_cpp.hpp ****         time_t period;
  52:src/../h/syscall_cpp.hpp ****         Arg(time_t time, PeriodicThread* pt):ja(pt), period(time){}
 868              		.loc 1 52 65
 869 0398 23309500 		sd	s1,0(a0)
 870 039c 23342501 		sd	s2,8(a0)
 871              	.LVL58:
 872              	.LBE18:
 873              	.LBE17:
  79:src/syscall_cpp.cpp **** 
 874              		.loc 2 79 59
 875 03a0 97050000 		lla	a1,_ZN14PeriodicThread7wrapperEPv
 875      93850500 
 876 03a8 13850400 		mv	a0,s1
 877 03ac 97000000 		call	_ZN6ThreadC2EPFvPvES0_
GAS LISTING /tmp/ccr02pVA.s 			page 20


 877      E7800000 
 878              	.LVL59:
 879 03b4 97070000 		lla	a5,_ZTV14PeriodicThread+16
 879      93870700 
 880 03bc 23B0F400 		sd	a5,0(s1)
 881              	.LBE16:
  79:src/syscall_cpp.cpp **** 
 882              		.loc 2 79 61
 883 03c0 83308101 		ld	ra,24(sp)
 884              		.cfi_restore 1
 885 03c4 03340101 		ld	s0,16(sp)
 886              		.cfi_restore 8
 887              		.cfi_def_cfa 2, 32
 888 03c8 83348100 		ld	s1,8(sp)
 889              		.cfi_restore 9
 890              	.LVL60:
 891 03cc 03390100 		ld	s2,0(sp)
 892              		.cfi_restore 18
 893              	.LVL61:
 894 03d0 13010102 		addi	sp,sp,32
 895              		.cfi_def_cfa_offset 0
 896 03d4 67800000 		jr	ra
 897              		.cfi_endproc
 898              	.LFE45:
 900              		.globl	_ZN14PeriodicThreadC1Em
 901              		.set	_ZN14PeriodicThreadC1Em,_ZN14PeriodicThreadC2Em
 902              		.align	2
 903              		.globl	_ZN7Console4getcEv
 905              	_ZN7Console4getcEv:
 906              	.LFB48:
  88:src/syscall_cpp.cpp ****         }
  89:src/syscall_cpp.cpp ****     }
  90:src/syscall_cpp.cpp **** }
  91:src/syscall_cpp.cpp **** 
  92:src/syscall_cpp.cpp **** char Console::getc() {
 907              		.loc 2 92 22 is_stmt 1
 908              		.cfi_startproc
 909 03d8 130101FF 		addi	sp,sp,-16
 910              		.cfi_def_cfa_offset 16
 911 03dc 23341100 		sd	ra,8(sp)
 912 03e0 23308100 		sd	s0,0(sp)
 913              		.cfi_offset 1, -8
 914              		.cfi_offset 8, -16
 915 03e4 13040101 		addi	s0,sp,16
 916              		.cfi_def_cfa 8, 0
  93:src/syscall_cpp.cpp ****     return ::getc();
 917              		.loc 2 93 5
 918              		.loc 2 93 18 is_stmt 0
 919 03e8 97000000 		call	_Z4getcv@plt
 919      E7800000 
 920              	.LVL62:
  94:src/syscall_cpp.cpp **** }
 921              		.loc 2 94 1
 922 03f0 83308100 		ld	ra,8(sp)
 923              		.cfi_restore 1
 924 03f4 03340100 		ld	s0,0(sp)
 925              		.cfi_restore 8
GAS LISTING /tmp/ccr02pVA.s 			page 21


 926              		.cfi_def_cfa 2, 16
 927 03f8 13010101 		addi	sp,sp,16
 928              		.cfi_def_cfa_offset 0
 929 03fc 67800000 		jr	ra
 930              		.cfi_endproc
 931              	.LFE48:
 933              		.align	2
 934              		.globl	_ZN7Console4putcEc
 936              	_ZN7Console4putcEc:
 937              	.LFB49:
  95:src/syscall_cpp.cpp **** 
  96:src/syscall_cpp.cpp **** void Console::putc(char c) {
 938              		.loc 2 96 28 is_stmt 1
 939              		.cfi_startproc
 940              	.LVL63:
 941 0400 130101FF 		addi	sp,sp,-16
 942              		.cfi_def_cfa_offset 16
 943 0404 23341100 		sd	ra,8(sp)
 944 0408 23308100 		sd	s0,0(sp)
 945              		.cfi_offset 1, -8
 946              		.cfi_offset 8, -16
 947 040c 13040101 		addi	s0,sp,16
 948              		.cfi_def_cfa 8, 0
  97:src/syscall_cpp.cpp ****     ::putc(c);
 949              		.loc 2 97 5
 950              		.loc 2 97 11 is_stmt 0
 951 0410 97000000 		call	_Z4putcc@plt
 951      E7800000 
 952              	.LVL64:
  98:src/syscall_cpp.cpp **** }
 953              		.loc 2 98 1
 954 0418 83308100 		ld	ra,8(sp)
 955              		.cfi_restore 1
 956 041c 03340100 		ld	s0,0(sp)
 957              		.cfi_restore 8
 958              		.cfi_def_cfa 2, 16
 959 0420 13010101 		addi	sp,sp,16
 960              		.cfi_def_cfa_offset 0
 961 0424 67800000 		jr	ra
 962              		.cfi_endproc
 963              	.LFE49:
 965              		.weak	_ZTV14PeriodicThread
 966              		.section	.data.rel.ro.local._ZTV14PeriodicThread,"awG",@progbits,_ZTV14PeriodicThread,comdat
 967              		.align	3
 970              	_ZTV14PeriodicThread:
 971 0000 00000000 		.dword	0
 971      00000000 
 972 0008 00000000 		.dword	0
 972      00000000 
 973 0010 00000000 		.dword	_ZN14PeriodicThreadD1Ev
 973      00000000 
 974 0018 00000000 		.dword	_ZN14PeriodicThreadD0Ev
 974      00000000 
 975 0020 00000000 		.dword	_ZN6Thread3runEv
 975      00000000 
 976 0028 00000000 		.dword	_ZN14PeriodicThread18periodicActivationEv
 976      00000000 
GAS LISTING /tmp/ccr02pVA.s 			page 22


 977              		.weak	_ZTV6Thread
 978              		.section	.data.rel.ro.local._ZTV6Thread,"awG",@progbits,_ZTV6Thread,comdat
 979              		.align	3
 982              	_ZTV6Thread:
 983 0000 00000000 		.dword	0
 983      00000000 
 984 0008 00000000 		.dword	0
 984      00000000 
 985 0010 00000000 		.dword	_ZN6ThreadD1Ev
 985      00000000 
 986 0018 00000000 		.dword	_ZN6ThreadD0Ev
 986      00000000 
 987 0020 00000000 		.dword	_ZN6Thread3runEv
 987      00000000 
 988              		.weak	_ZTV9Semaphore
 989              		.section	.data.rel.ro.local._ZTV9Semaphore,"awG",@progbits,_ZTV9Semaphore,comdat
 990              		.align	3
 993              	_ZTV9Semaphore:
 994 0000 00000000 		.dword	0
 994      00000000 
 995 0008 00000000 		.dword	0
 995      00000000 
 996 0010 00000000 		.dword	_ZN9SemaphoreD1Ev
 996      00000000 
 997 0018 00000000 		.dword	_ZN9SemaphoreD0Ev
 997      00000000 
 998              		.globl	_ZN14PeriodicThread4flagE
 999              		.data
 1000              		.set	.LANCHOR0,. + 0
 1003              	_ZN14PeriodicThread4flagE:
 1004 0000 01       		.byte	1
 1005              		.text
 1006              	.Letext0:
 1007              		.file 3 "src/../h/../lib/hw.h"
 1008              		.file 4 "src/../h/../h/CThread.h"
 1009              		.file 5 "src/../h/CSemaphore.h"
 1010              		.file 6 "src/../h/syscall_c.h"
 5021              		.align	3
 5024              	DW.ref.__gxx_personality_v0:
 5025 0000 00000000 		.dword	__gxx_personality_v0
 5025      00000000 
 5026              		.ident	"GCC: (Ubuntu 9.4.0-1ubuntu1~20.04) 9.4.0"
 5027              		.section	.note.GNU-stack,"",@progbits
GAS LISTING /tmp/ccr02pVA.s 			page 23

