GAS LISTING /tmp/ccNtTakP.s 			page 1


   1              		.file	"buffer.cpp"
   2              		.option pic
   3              		.option norelax
   4              		.text
   5              	.Ltext0:
   6              		.align	2
   7              		.globl	_ZN6BufferC2Ei
   9              	_ZN6BufferC2Ei:
  10              	.LFB15:
  11              		.file 1 "test/buffer.cpp"
   1:test/buffer.cpp **** #include "buffer.hpp"
   2:test/buffer.cpp **** 
   3:test/buffer.cpp **** Buffer::Buffer(int _cap) : cap(_cap + 1), head(0), tail(0) {
  12              		.loc 1 3 1
  13              		.cfi_startproc
  14              	.LVL0:
  15 0000 130101FE 		addi	sp,sp,-32
  16              		.cfi_def_cfa_offset 32
  17 0004 233C1100 		sd	ra,24(sp)
  18 0008 23388100 		sd	s0,16(sp)
  19 000c 23349100 		sd	s1,8(sp)
  20 0010 23302101 		sd	s2,0(sp)
  21              		.cfi_offset 1, -8
  22              		.cfi_offset 8, -16
  23              		.cfi_offset 9, -24
  24              		.cfi_offset 18, -32
  25 0014 13040102 		addi	s0,sp,32
  26              		.cfi_def_cfa 8, 0
  27 0018 93040500 		mv	s1,a0
  28 001c 13890500 		mv	s2,a1
  29              	.LBB2:
  30              		.loc 1 3 37 is_stmt 0
  31 0020 9B871500 		addiw	a5,a1,1
  32 0024 1B850700 		sext.w	a0,a5
  33              	.LVL1:
  34              		.loc 1 3 58
  35 0028 23A0F400 		sw	a5,0(s1)
  36 002c 23A80400 		sw	zero,16(s1)
  37 0030 23AA0400 		sw	zero,20(s1)
   4:test/buffer.cpp ****     buffer = (int *)mem_alloc(sizeof(int) * cap);
  38              		.loc 1 4 5 is_stmt 1
  39              		.loc 1 4 30 is_stmt 0
  40 0034 13152500 		slli	a0,a0,2
  41 0038 97000000 		call	_Z9mem_allocm@plt
  41      E7800000 
  42              	.LVL2:
  43              		.loc 1 4 12
  44 0040 23B4A400 		sd	a0,8(s1)
   5:test/buffer.cpp ****     sem_open(&itemAvailable, 0);
  45              		.loc 1 5 5 is_stmt 1
  46              		.loc 1 5 13 is_stmt 0
  47 0044 93050000 		li	a1,0
  48 0048 13850402 		addi	a0,s1,32
  49 004c 97000000 		call	_Z8sem_openPP10CSemaphorej@plt
  49      E7800000 
  50              	.LVL3:
   6:test/buffer.cpp ****     sem_open(&spaceAvailable, _cap);
GAS LISTING /tmp/ccNtTakP.s 			page 2


  51              		.loc 1 6 5 is_stmt 1
  52              		.loc 1 6 13 is_stmt 0
  53 0054 93050900 		mv	a1,s2
  54 0058 13858401 		addi	a0,s1,24
  55 005c 97000000 		call	_Z8sem_openPP10CSemaphorej@plt
  55      E7800000 
  56              	.LVL4:
   7:test/buffer.cpp ****     sem_open(&mutexHead, 1);
  57              		.loc 1 7 5 is_stmt 1
  58              		.loc 1 7 13 is_stmt 0
  59 0064 93051000 		li	a1,1
  60 0068 13858402 		addi	a0,s1,40
  61 006c 97000000 		call	_Z8sem_openPP10CSemaphorej@plt
  61      E7800000 
  62              	.LVL5:
   8:test/buffer.cpp ****     sem_open(&mutexTail, 1);
  63              		.loc 1 8 5 is_stmt 1
  64              		.loc 1 8 13 is_stmt 0
  65 0074 93051000 		li	a1,1
  66 0078 13850403 		addi	a0,s1,48
  67 007c 97000000 		call	_Z8sem_openPP10CSemaphorej@plt
  67      E7800000 
  68              	.LVL6:
  69              	.LBE2:
   9:test/buffer.cpp **** }
  70              		.loc 1 9 1
  71 0084 83308101 		ld	ra,24(sp)
  72              		.cfi_restore 1
  73 0088 03340101 		ld	s0,16(sp)
  74              		.cfi_restore 8
  75              		.cfi_def_cfa 2, 32
  76 008c 83348100 		ld	s1,8(sp)
  77              		.cfi_restore 9
  78              	.LVL7:
  79 0090 03390100 		ld	s2,0(sp)
  80              		.cfi_restore 18
  81 0094 13010102 		addi	sp,sp,32
  82              		.cfi_def_cfa_offset 0
  83 0098 67800000 		jr	ra
  84              		.cfi_endproc
  85              	.LFE15:
  87              		.globl	_ZN6BufferC1Ei
  88              		.set	_ZN6BufferC1Ei,_ZN6BufferC2Ei
  89              		.align	2
  90              		.globl	_ZN6Buffer3putEi
  92              	_ZN6Buffer3putEi:
  93              	.LFB20:
  10:test/buffer.cpp **** 
  11:test/buffer.cpp **** Buffer::~Buffer() {
  12:test/buffer.cpp ****     putc('\n');
  13:test/buffer.cpp ****     printString("Buffer deleted!\n");
  14:test/buffer.cpp ****     while (getCnt() > 0) {
  15:test/buffer.cpp ****         char ch = buffer[head];
  16:test/buffer.cpp ****         putc(ch);
  17:test/buffer.cpp ****         head = (head + 1) % cap;
  18:test/buffer.cpp ****     }
  19:test/buffer.cpp ****     putc('!');
GAS LISTING /tmp/ccNtTakP.s 			page 3


  20:test/buffer.cpp ****     putc('\n');
  21:test/buffer.cpp **** 
  22:test/buffer.cpp ****     mem_free(buffer);
  23:test/buffer.cpp ****     sem_close(itemAvailable);
  24:test/buffer.cpp ****     sem_close(spaceAvailable);
  25:test/buffer.cpp ****     sem_close(mutexTail);
  26:test/buffer.cpp ****     sem_close(mutexHead);
  27:test/buffer.cpp **** }
  28:test/buffer.cpp **** 
  29:test/buffer.cpp **** void Buffer::put(int val) {
  94              		.loc 1 29 27 is_stmt 1
  95              		.cfi_startproc
  96              	.LVL8:
  97 009c 130101FE 		addi	sp,sp,-32
  98              		.cfi_def_cfa_offset 32
  99 00a0 233C1100 		sd	ra,24(sp)
 100 00a4 23388100 		sd	s0,16(sp)
 101 00a8 23349100 		sd	s1,8(sp)
 102 00ac 23302101 		sd	s2,0(sp)
 103              		.cfi_offset 1, -8
 104              		.cfi_offset 8, -16
 105              		.cfi_offset 9, -24
 106              		.cfi_offset 18, -32
 107 00b0 13040102 		addi	s0,sp,32
 108              		.cfi_def_cfa 8, 0
 109 00b4 93040500 		mv	s1,a0
 110 00b8 13890500 		mv	s2,a1
  30:test/buffer.cpp ****     sem_wait(spaceAvailable);
 111              		.loc 1 30 5
 112              		.loc 1 30 13 is_stmt 0
 113 00bc 03358501 		ld	a0,24(a0)
 114              	.LVL9:
 115 00c0 97000000 		call	_Z8sem_waitP10CSemaphore@plt
 115      E7800000 
 116              	.LVL10:
  31:test/buffer.cpp **** 
  32:test/buffer.cpp ****     sem_wait(mutexTail);
 117              		.loc 1 32 5 is_stmt 1
 118              		.loc 1 32 13 is_stmt 0
 119 00c8 03B50403 		ld	a0,48(s1)
 120 00cc 97000000 		call	_Z8sem_waitP10CSemaphore@plt
 120      E7800000 
 121              	.LVL11:
  33:test/buffer.cpp ****     buffer[tail] = val;
 122              		.loc 1 33 5 is_stmt 1
 123 00d4 83B78400 		ld	a5,8(s1)
 124              		.loc 1 33 12 is_stmt 0
 125 00d8 03A74401 		lw	a4,20(s1)
 126              		.loc 1 33 16
 127 00dc 13172700 		slli	a4,a4,2
 128 00e0 B387E700 		add	a5,a5,a4
 129              		.loc 1 33 18
 130 00e4 23A02701 		sw	s2,0(a5)
  34:test/buffer.cpp ****     tail = (tail + 1) % cap;
 131              		.loc 1 34 5 is_stmt 1
 132              		.loc 1 34 13 is_stmt 0
 133 00e8 83A74401 		lw	a5,20(s1)
GAS LISTING /tmp/ccNtTakP.s 			page 4


 134              		.loc 1 34 18
 135 00ec 9B871700 		addiw	a5,a5,1
 136              		.loc 1 34 25
 137 00f0 03A70400 		lw	a4,0(s1)
 138              		.loc 1 34 23
 139 00f4 BBE7E702 		remw	a5,a5,a4
 140              		.loc 1 34 10
 141 00f8 23AAF400 		sw	a5,20(s1)
  35:test/buffer.cpp ****     sem_signal(mutexTail);
 142              		.loc 1 35 5 is_stmt 1
 143              		.loc 1 35 15 is_stmt 0
 144 00fc 03B50403 		ld	a0,48(s1)
 145 0100 97000000 		call	_Z10sem_signalP10CSemaphore@plt
 145      E7800000 
 146              	.LVL12:
  36:test/buffer.cpp **** 
  37:test/buffer.cpp ****     sem_signal(itemAvailable);
 147              		.loc 1 37 5 is_stmt 1
 148              		.loc 1 37 15 is_stmt 0
 149 0108 03B50402 		ld	a0,32(s1)
 150 010c 97000000 		call	_Z10sem_signalP10CSemaphore@plt
 150      E7800000 
 151              	.LVL13:
  38:test/buffer.cpp **** 
  39:test/buffer.cpp **** }
 152              		.loc 1 39 1
 153 0114 83308101 		ld	ra,24(sp)
 154              		.cfi_restore 1
 155 0118 03340101 		ld	s0,16(sp)
 156              		.cfi_restore 8
 157              		.cfi_def_cfa 2, 32
 158 011c 83348100 		ld	s1,8(sp)
 159              		.cfi_restore 9
 160              	.LVL14:
 161 0120 03390100 		ld	s2,0(sp)
 162              		.cfi_restore 18
 163 0124 13010102 		addi	sp,sp,32
 164              		.cfi_def_cfa_offset 0
 165 0128 67800000 		jr	ra
 166              		.cfi_endproc
 167              	.LFE20:
 169              		.align	2
 170              		.globl	_ZN6Buffer3getEv
 172              	_ZN6Buffer3getEv:
 173              	.LFB21:
  40:test/buffer.cpp **** 
  41:test/buffer.cpp **** int Buffer::get() {
 174              		.loc 1 41 19 is_stmt 1
 175              		.cfi_startproc
 176              	.LVL15:
 177 012c 130101FE 		addi	sp,sp,-32
 178              		.cfi_def_cfa_offset 32
 179 0130 233C1100 		sd	ra,24(sp)
 180 0134 23388100 		sd	s0,16(sp)
 181 0138 23349100 		sd	s1,8(sp)
 182 013c 23302101 		sd	s2,0(sp)
 183              		.cfi_offset 1, -8
GAS LISTING /tmp/ccNtTakP.s 			page 5


 184              		.cfi_offset 8, -16
 185              		.cfi_offset 9, -24
 186              		.cfi_offset 18, -32
 187 0140 13040102 		addi	s0,sp,32
 188              		.cfi_def_cfa 8, 0
 189 0144 93040500 		mv	s1,a0
  42:test/buffer.cpp ****     sem_wait(itemAvailable);
 190              		.loc 1 42 5
 191              		.loc 1 42 13 is_stmt 0
 192 0148 03350502 		ld	a0,32(a0)
 193              	.LVL16:
 194 014c 97000000 		call	_Z8sem_waitP10CSemaphore@plt
 194      E7800000 
 195              	.LVL17:
  43:test/buffer.cpp **** 
  44:test/buffer.cpp ****     sem_wait(mutexHead);
 196              		.loc 1 44 5 is_stmt 1
 197              		.loc 1 44 13 is_stmt 0
 198 0154 03B58402 		ld	a0,40(s1)
 199 0158 97000000 		call	_Z8sem_waitP10CSemaphore@plt
 199      E7800000 
 200              	.LVL18:
  45:test/buffer.cpp **** 
  46:test/buffer.cpp ****     int ret = buffer[head];
 201              		.loc 1 46 5 is_stmt 1
 202              		.loc 1 46 15 is_stmt 0
 203 0160 03B78400 		ld	a4,8(s1)
 204              		.loc 1 46 22
 205 0164 83A70401 		lw	a5,16(s1)
 206              		.loc 1 46 26
 207 0168 93962700 		slli	a3,a5,2
 208 016c 3307D700 		add	a4,a4,a3
 209              		.loc 1 46 9
 210 0170 03290700 		lw	s2,0(a4)
 211              	.LVL19:
  47:test/buffer.cpp ****     head = (head + 1) % cap;
 212              		.loc 1 47 5 is_stmt 1
 213              		.loc 1 47 18 is_stmt 0
 214 0174 9B871700 		addiw	a5,a5,1
 215              		.loc 1 47 25
 216 0178 03A70400 		lw	a4,0(s1)
 217              		.loc 1 47 23
 218 017c BBE7E702 		remw	a5,a5,a4
 219              		.loc 1 47 10
 220 0180 23A8F400 		sw	a5,16(s1)
  48:test/buffer.cpp ****     sem_signal(mutexHead);
 221              		.loc 1 48 5 is_stmt 1
 222              		.loc 1 48 15 is_stmt 0
 223 0184 03B58402 		ld	a0,40(s1)
 224 0188 97000000 		call	_Z10sem_signalP10CSemaphore@plt
 224      E7800000 
 225              	.LVL20:
  49:test/buffer.cpp **** 
  50:test/buffer.cpp ****     sem_signal(spaceAvailable);
 226              		.loc 1 50 5 is_stmt 1
 227              		.loc 1 50 15 is_stmt 0
 228 0190 03B58401 		ld	a0,24(s1)
GAS LISTING /tmp/ccNtTakP.s 			page 6


 229 0194 97000000 		call	_Z10sem_signalP10CSemaphore@plt
 229      E7800000 
 230              	.LVL21:
  51:test/buffer.cpp **** 
  52:test/buffer.cpp ****     return ret;
 231              		.loc 1 52 5 is_stmt 1
  53:test/buffer.cpp **** }
 232              		.loc 1 53 1 is_stmt 0
 233 019c 13050900 		mv	a0,s2
 234 01a0 83308101 		ld	ra,24(sp)
 235              		.cfi_restore 1
 236 01a4 03340101 		ld	s0,16(sp)
 237              		.cfi_restore 8
 238              		.cfi_def_cfa 2, 32
 239 01a8 83348100 		ld	s1,8(sp)
 240              		.cfi_restore 9
 241              	.LVL22:
 242 01ac 03390100 		ld	s2,0(sp)
 243              		.cfi_restore 18
 244              	.LVL23:
 245 01b0 13010102 		addi	sp,sp,32
 246              		.cfi_def_cfa_offset 0
 247 01b4 67800000 		jr	ra
 248              		.cfi_endproc
 249              	.LFE21:
 251              		.align	2
 252              		.globl	_ZN6Buffer6getCntEv
 254              	_ZN6Buffer6getCntEv:
 255              	.LFB22:
  54:test/buffer.cpp **** 
  55:test/buffer.cpp **** int Buffer::getCnt() {
 256              		.loc 1 55 22 is_stmt 1
 257              		.cfi_startproc
 258              	.LVL24:
 259 01b8 130101FE 		addi	sp,sp,-32
 260              		.cfi_def_cfa_offset 32
 261 01bc 233C1100 		sd	ra,24(sp)
 262 01c0 23388100 		sd	s0,16(sp)
 263 01c4 23349100 		sd	s1,8(sp)
 264 01c8 23302101 		sd	s2,0(sp)
 265              		.cfi_offset 1, -8
 266              		.cfi_offset 8, -16
 267              		.cfi_offset 9, -24
 268              		.cfi_offset 18, -32
 269 01cc 13040102 		addi	s0,sp,32
 270              		.cfi_def_cfa 8, 0
 271 01d0 93040500 		mv	s1,a0
  56:test/buffer.cpp ****     int ret;
 272              		.loc 1 56 5
  57:test/buffer.cpp **** 
  58:test/buffer.cpp ****     sem_wait(mutexHead);
 273              		.loc 1 58 5
 274              		.loc 1 58 13 is_stmt 0
 275 01d4 03358502 		ld	a0,40(a0)
 276              	.LVL25:
 277 01d8 97000000 		call	_Z8sem_waitP10CSemaphore@plt
 277      E7800000 
GAS LISTING /tmp/ccNtTakP.s 			page 7


 278              	.LVL26:
  59:test/buffer.cpp ****     sem_wait(mutexTail);
 279              		.loc 1 59 5 is_stmt 1
 280              		.loc 1 59 13 is_stmt 0
 281 01e0 03B50403 		ld	a0,48(s1)
 282 01e4 97000000 		call	_Z8sem_waitP10CSemaphore@plt
 282      E7800000 
 283              	.LVL27:
  60:test/buffer.cpp **** 
  61:test/buffer.cpp ****     if (tail >= head) {
 284              		.loc 1 61 5 is_stmt 1
 285              		.loc 1 61 9 is_stmt 0
 286 01ec 83A74401 		lw	a5,20(s1)
 287              		.loc 1 61 17
 288 01f0 03A90401 		lw	s2,16(s1)
 289              		.loc 1 61 5
 290 01f4 63CE2703 		blt	a5,s2,.L8
  62:test/buffer.cpp ****         ret = tail - head;
 291              		.loc 1 62 9 is_stmt 1
 292              		.loc 1 62 13 is_stmt 0
 293 01f8 3B892741 		subw	s2,a5,s2
 294              	.LVL28:
 295              	.L9:
  63:test/buffer.cpp ****     } else {
  64:test/buffer.cpp ****         ret = cap - head + tail;
  65:test/buffer.cpp ****     }
  66:test/buffer.cpp **** 
  67:test/buffer.cpp ****     sem_signal(mutexTail);
 296              		.loc 1 67 5 is_stmt 1
 297              		.loc 1 67 15 is_stmt 0
 298 01fc 03B50403 		ld	a0,48(s1)
 299 0200 97000000 		call	_Z10sem_signalP10CSemaphore@plt
 299      E7800000 
 300              	.LVL29:
  68:test/buffer.cpp ****     sem_signal(mutexHead);
 301              		.loc 1 68 5 is_stmt 1
 302              		.loc 1 68 15 is_stmt 0
 303 0208 03B58402 		ld	a0,40(s1)
 304 020c 97000000 		call	_Z10sem_signalP10CSemaphore@plt
 304      E7800000 
 305              	.LVL30:
  69:test/buffer.cpp **** 
  70:test/buffer.cpp ****     return ret;
 306              		.loc 1 70 5 is_stmt 1
  71:test/buffer.cpp **** }
 307              		.loc 1 71 1 is_stmt 0
 308 0214 13050900 		mv	a0,s2
 309 0218 83308101 		ld	ra,24(sp)
 310              		.cfi_remember_state
 311              		.cfi_restore 1
 312 021c 03340101 		ld	s0,16(sp)
 313              		.cfi_restore 8
 314              		.cfi_def_cfa 2, 32
 315 0220 83348100 		ld	s1,8(sp)
 316              		.cfi_restore 9
 317              	.LVL31:
 318 0224 03390100 		ld	s2,0(sp)
GAS LISTING /tmp/ccNtTakP.s 			page 8


 319              		.cfi_restore 18
 320              	.LVL32:
 321 0228 13010102 		addi	sp,sp,32
 322              		.cfi_def_cfa_offset 0
 323 022c 67800000 		jr	ra
 324              	.LVL33:
 325              	.L8:
 326              		.cfi_restore_state
  64:test/buffer.cpp ****     }
 327              		.loc 1 64 9 is_stmt 1
  64:test/buffer.cpp ****     }
 328              		.loc 1 64 15 is_stmt 0
 329 0230 03A70400 		lw	a4,0(s1)
  64:test/buffer.cpp ****     }
 330              		.loc 1 64 19
 331 0234 3B092741 		subw	s2,a4,s2
  64:test/buffer.cpp ****     }
 332              		.loc 1 64 13
 333 0238 3B09F900 		addw	s2,s2,a5
 334 023c 6FF01FFC 		j	.L9
 335              		.cfi_endproc
 336              	.LFE22:
 338              		.section	.rodata.str1.8,"aMS",@progbits,1
 339              		.align	3
 340              	.LC0:
 341 0000 42756666 		.string	"Buffer deleted!\n"
 341      65722064 
 341      656C6574 
 341      6564210A 
 341      00
 342              		.text
 343              		.align	2
 344              		.globl	_ZN6BufferD2Ev
 346              	_ZN6BufferD2Ev:
 347              	.LFB18:
  11:test/buffer.cpp ****     putc('\n');
 348              		.loc 1 11 1 is_stmt 1
 349              		.cfi_startproc
 350              		.cfi_personality 0x9b,DW.ref.__gxx_personality_v0
 351              		.cfi_lsda 0x1b,.LLSDA18
 352              	.LVL34:
 353 0240 130101FE 		addi	sp,sp,-32
 354              		.cfi_def_cfa_offset 32
 355 0244 233C1100 		sd	ra,24(sp)
 356 0248 23388100 		sd	s0,16(sp)
 357 024c 23349100 		sd	s1,8(sp)
 358              		.cfi_offset 1, -8
 359              		.cfi_offset 8, -16
 360              		.cfi_offset 9, -24
 361 0250 13040102 		addi	s0,sp,32
 362              		.cfi_def_cfa 8, 0
 363 0254 93040500 		mv	s1,a0
 364              	.LBB3:
  12:test/buffer.cpp ****     printString("Buffer deleted!\n");
 365              		.loc 1 12 5
  12:test/buffer.cpp ****     printString("Buffer deleted!\n");
 366              		.loc 1 12 9 is_stmt 0
GAS LISTING /tmp/ccNtTakP.s 			page 9


 367 0258 1305A000 		li	a0,10
 368              	.LVL35:
 369 025c 97000000 		call	_Z4putcc@plt
 369      E7800000 
 370              	.LVL36:
  13:test/buffer.cpp ****     while (getCnt() > 0) {
 371              		.loc 1 13 5 is_stmt 1
  13:test/buffer.cpp ****     while (getCnt() > 0) {
 372              		.loc 1 13 16 is_stmt 0
 373 0264 17050000 		lla	a0,.LC0
 373      13050500 
 374 026c 97000000 		call	_Z11printStringPKc@plt
 374      E7800000 
 375              	.LVL37:
 376              	.L13:
  14:test/buffer.cpp ****         char ch = buffer[head];
 377              		.loc 1 14 5 is_stmt 1
  14:test/buffer.cpp ****         char ch = buffer[head];
 378              		.loc 1 14 21
  14:test/buffer.cpp ****         char ch = buffer[head];
 379              		.loc 1 14 18 is_stmt 0
 380 0274 13850400 		mv	a0,s1
 381 0278 97000000 		call	_ZN6Buffer6getCntEv
 381      E7800000 
 382              	.LVL38:
  14:test/buffer.cpp ****         char ch = buffer[head];
 383              		.loc 1 14 21
 384 0280 635CA002 		blez	a0,.L12
 385              	.LBB4:
  15:test/buffer.cpp ****         putc(ch);
 386              		.loc 1 15 9 is_stmt 1
  15:test/buffer.cpp ****         putc(ch);
 387              		.loc 1 15 19 is_stmt 0
 388 0284 83B78400 		ld	a5,8(s1)
  15:test/buffer.cpp ****         putc(ch);
 389              		.loc 1 15 26
 390 0288 03A70401 		lw	a4,16(s1)
  15:test/buffer.cpp ****         putc(ch);
 391              		.loc 1 15 30
 392 028c 13172700 		slli	a4,a4,2
 393 0290 B387E700 		add	a5,a5,a4
 394              	.LVL39:
  16:test/buffer.cpp ****         head = (head + 1) % cap;
 395              		.loc 1 16 9 is_stmt 1
  16:test/buffer.cpp ****         head = (head + 1) % cap;
 396              		.loc 1 16 13 is_stmt 0
 397 0294 03C50700 		lbu	a0,0(a5)
 398 0298 97000000 		call	_Z4putcc@plt
 398      E7800000 
 399              	.LVL40:
  17:test/buffer.cpp ****     }
 400              		.loc 1 17 9 is_stmt 1
  17:test/buffer.cpp ****     }
 401              		.loc 1 17 17 is_stmt 0
 402 02a0 83A70401 		lw	a5,16(s1)
  17:test/buffer.cpp ****     }
 403              		.loc 1 17 22
GAS LISTING /tmp/ccNtTakP.s 			page 10


 404 02a4 9B871700 		addiw	a5,a5,1
  17:test/buffer.cpp ****     }
 405              		.loc 1 17 29
 406 02a8 03A70400 		lw	a4,0(s1)
  17:test/buffer.cpp ****     }
 407              		.loc 1 17 27
 408 02ac BBE7E702 		remw	a5,a5,a4
  17:test/buffer.cpp ****     }
 409              		.loc 1 17 14
 410 02b0 23A8F400 		sw	a5,16(s1)
 411              	.LBE4:
  14:test/buffer.cpp ****         char ch = buffer[head];
 412              		.loc 1 14 5
 413 02b4 6FF01FFC 		j	.L13
 414              	.L12:
  19:test/buffer.cpp ****     putc('\n');
 415              		.loc 1 19 5 is_stmt 1
  19:test/buffer.cpp ****     putc('\n');
 416              		.loc 1 19 9 is_stmt 0
 417 02b8 13051002 		li	a0,33
 418 02bc 97000000 		call	_Z4putcc@plt
 418      E7800000 
 419              	.LVL41:
  20:test/buffer.cpp **** 
 420              		.loc 1 20 5 is_stmt 1
  20:test/buffer.cpp **** 
 421              		.loc 1 20 9 is_stmt 0
 422 02c4 1305A000 		li	a0,10
 423 02c8 97000000 		call	_Z4putcc@plt
 423      E7800000 
 424              	.LVL42:
  22:test/buffer.cpp ****     sem_close(itemAvailable);
 425              		.loc 1 22 5 is_stmt 1
  22:test/buffer.cpp ****     sem_close(itemAvailable);
 426              		.loc 1 22 13 is_stmt 0
 427 02d0 03B58400 		ld	a0,8(s1)
 428 02d4 97000000 		call	_Z8mem_freePv@plt
 428      E7800000 
 429              	.LVL43:
  23:test/buffer.cpp ****     sem_close(spaceAvailable);
 430              		.loc 1 23 5 is_stmt 1
  23:test/buffer.cpp ****     sem_close(spaceAvailable);
 431              		.loc 1 23 14 is_stmt 0
 432 02dc 03B50402 		ld	a0,32(s1)
 433 02e0 97000000 		call	_Z9sem_closeP10CSemaphore@plt
 433      E7800000 
 434              	.LVL44:
  24:test/buffer.cpp ****     sem_close(mutexTail);
 435              		.loc 1 24 5 is_stmt 1
  24:test/buffer.cpp ****     sem_close(mutexTail);
 436              		.loc 1 24 14 is_stmt 0
 437 02e8 03B58401 		ld	a0,24(s1)
 438 02ec 97000000 		call	_Z9sem_closeP10CSemaphore@plt
 438      E7800000 
 439              	.LVL45:
  25:test/buffer.cpp ****     sem_close(mutexHead);
 440              		.loc 1 25 5 is_stmt 1
GAS LISTING /tmp/ccNtTakP.s 			page 11


  25:test/buffer.cpp ****     sem_close(mutexHead);
 441              		.loc 1 25 14 is_stmt 0
 442 02f4 03B50403 		ld	a0,48(s1)
 443 02f8 97000000 		call	_Z9sem_closeP10CSemaphore@plt
 443      E7800000 
 444              	.LVL46:
  26:test/buffer.cpp **** }
 445              		.loc 1 26 5 is_stmt 1
  26:test/buffer.cpp **** }
 446              		.loc 1 26 14 is_stmt 0
 447 0300 03B58402 		ld	a0,40(s1)
 448 0304 97000000 		call	_Z9sem_closeP10CSemaphore@plt
 448      E7800000 
 449              	.LVL47:
 450              	.LBE3:
  27:test/buffer.cpp **** 
 451              		.loc 1 27 1
 452 030c 83308101 		ld	ra,24(sp)
 453              		.cfi_restore 1
 454 0310 03340101 		ld	s0,16(sp)
 455              		.cfi_restore 8
 456              		.cfi_def_cfa 2, 32
 457 0314 83348100 		ld	s1,8(sp)
 458              		.cfi_restore 9
 459              	.LVL48:
 460 0318 13010102 		addi	sp,sp,32
 461              		.cfi_def_cfa_offset 0
 462 031c 67800000 		jr	ra
 463              		.cfi_endproc
 464              	.LFE18:
 465              		.globl	__gxx_personality_v0
 466              		.section	.gcc_except_table,"a",@progbits
 467              	.LLSDA18:
 468 0000 FF       		.byte	0xff
 469 0001 FF       		.byte	0xff
 470 0002 03       		.byte	0x3
 471 0003 00       		.byte	0
 472              		.text
 474              		.globl	_ZN6BufferD1Ev
 475              		.set	_ZN6BufferD1Ev,_ZN6BufferD2Ev
 476              	.Letext0:
 477              		.file 2 "test/../h/../lib/hw.h"
 478              		.file 3 "test/../h/../h/CThread.h"
 479              		.file 4 "test/../h/CSemaphore.h"
 480              		.file 5 "test/../h/syscall_c.h"
 481              		.file 6 "test/buffer.hpp"
 482              		.file 7 "test/printing.hpp"
 3073              		.align	3
 3076              	DW.ref.__gxx_personality_v0:
 3077 0000 00000000 		.dword	__gxx_personality_v0
 3077      00000000 
 3078              		.ident	"GCC: (Ubuntu 9.4.0-1ubuntu1~20.04) 9.4.0"
 3079              		.section	.note.GNU-stack,"",@progbits
GAS LISTING /tmp/ccNtTakP.s 			page 12


DEFINED SYMBOLS
                            *ABS*:0000000000000000 buffer.cpp
     /tmp/ccNtTakP.s:9      .text:0000000000000000 _ZN6BufferC2Ei
     /tmp/ccNtTakP.s:13     .text:0000000000000000 .L0 
     /tmp/ccNtTakP.s:15     .text:0000000000000000 .L0 
     /tmp/ccNtTakP.s:16     .text:0000000000000004 .L0 
     /tmp/ccNtTakP.s:21     .text:0000000000000014 .L0 
     /tmp/ccNtTakP.s:22     .text:0000000000000014 .L0 
     /tmp/ccNtTakP.s:23     .text:0000000000000014 .L0 
     /tmp/ccNtTakP.s:24     .text:0000000000000014 .L0 
     /tmp/ccNtTakP.s:26     .text:0000000000000018 .L0 
     /tmp/ccNtTakP.s:31     .text:0000000000000020 .L0 
     /tmp/ccNtTakP.s:35     .text:0000000000000028 .L0 
     /tmp/ccNtTakP.s:39     .text:0000000000000034 .L0 
     /tmp/ccNtTakP.s:40     .text:0000000000000034 .L0 
     /tmp/ccNtTakP.s:44     .text:0000000000000040 .L0 
     /tmp/ccNtTakP.s:46     .text:0000000000000044 .L0 
     /tmp/ccNtTakP.s:47     .text:0000000000000044 .L0 
     /tmp/ccNtTakP.s:52     .text:0000000000000054 .L0 
     /tmp/ccNtTakP.s:53     .text:0000000000000054 .L0 
     /tmp/ccNtTakP.s:58     .text:0000000000000064 .L0 
     /tmp/ccNtTakP.s:59     .text:0000000000000064 .L0 
     /tmp/ccNtTakP.s:64     .text:0000000000000074 .L0 
     /tmp/ccNtTakP.s:65     .text:0000000000000074 .L0 
     /tmp/ccNtTakP.s:71     .text:0000000000000084 .L0 
     /tmp/ccNtTakP.s:72     .text:0000000000000088 .L0 
     /tmp/ccNtTakP.s:74     .text:000000000000008c .L0 
     /tmp/ccNtTakP.s:75     .text:000000000000008c .L0 
     /tmp/ccNtTakP.s:77     .text:0000000000000090 .L0 
     /tmp/ccNtTakP.s:80     .text:0000000000000094 .L0 
     /tmp/ccNtTakP.s:82     .text:0000000000000098 .L0 
     /tmp/ccNtTakP.s:84     .text:000000000000009c .L0 
     /tmp/ccNtTakP.s:9      .text:0000000000000000 _ZN6BufferC1Ei
     /tmp/ccNtTakP.s:92     .text:000000000000009c _ZN6Buffer3putEi
     /tmp/ccNtTakP.s:95     .text:000000000000009c .L0 
     /tmp/ccNtTakP.s:97     .text:000000000000009c .L0 
     /tmp/ccNtTakP.s:98     .text:00000000000000a0 .L0 
     /tmp/ccNtTakP.s:103    .text:00000000000000b0 .L0 
     /tmp/ccNtTakP.s:104    .text:00000000000000b0 .L0 
     /tmp/ccNtTakP.s:105    .text:00000000000000b0 .L0 
     /tmp/ccNtTakP.s:106    .text:00000000000000b0 .L0 
     /tmp/ccNtTakP.s:108    .text:00000000000000b4 .L0 
     /tmp/ccNtTakP.s:112    .text:00000000000000bc .L0 
     /tmp/ccNtTakP.s:113    .text:00000000000000bc .L0 
     /tmp/ccNtTakP.s:118    .text:00000000000000c8 .L0 
     /tmp/ccNtTakP.s:119    .text:00000000000000c8 .L0 
     /tmp/ccNtTakP.s:123    .text:00000000000000d4 .L0 
     /tmp/ccNtTakP.s:125    .text:00000000000000d8 .L0 
     /tmp/ccNtTakP.s:127    .text:00000000000000dc .L0 
     /tmp/ccNtTakP.s:130    .text:00000000000000e4 .L0 
     /tmp/ccNtTakP.s:132    .text:00000000000000e8 .L0 
     /tmp/ccNtTakP.s:133    .text:00000000000000e8 .L0 
     /tmp/ccNtTakP.s:135    .text:00000000000000ec .L0 
     /tmp/ccNtTakP.s:137    .text:00000000000000f0 .L0 
     /tmp/ccNtTakP.s:139    .text:00000000000000f4 .L0 
     /tmp/ccNtTakP.s:141    .text:00000000000000f8 .L0 
     /tmp/ccNtTakP.s:143    .text:00000000000000fc .L0 
GAS LISTING /tmp/ccNtTakP.s 			page 13


     /tmp/ccNtTakP.s:144    .text:00000000000000fc .L0 
     /tmp/ccNtTakP.s:148    .text:0000000000000108 .L0 
     /tmp/ccNtTakP.s:149    .text:0000000000000108 .L0 
     /tmp/ccNtTakP.s:153    .text:0000000000000114 .L0 
     /tmp/ccNtTakP.s:154    .text:0000000000000118 .L0 
     /tmp/ccNtTakP.s:156    .text:000000000000011c .L0 
     /tmp/ccNtTakP.s:157    .text:000000000000011c .L0 
     /tmp/ccNtTakP.s:159    .text:0000000000000120 .L0 
     /tmp/ccNtTakP.s:162    .text:0000000000000124 .L0 
     /tmp/ccNtTakP.s:164    .text:0000000000000128 .L0 
     /tmp/ccNtTakP.s:166    .text:000000000000012c .L0 
     /tmp/ccNtTakP.s:172    .text:000000000000012c _ZN6Buffer3getEv
     /tmp/ccNtTakP.s:175    .text:000000000000012c .L0 
     /tmp/ccNtTakP.s:177    .text:000000000000012c .L0 
     /tmp/ccNtTakP.s:178    .text:0000000000000130 .L0 
     /tmp/ccNtTakP.s:183    .text:0000000000000140 .L0 
     /tmp/ccNtTakP.s:184    .text:0000000000000140 .L0 
     /tmp/ccNtTakP.s:185    .text:0000000000000140 .L0 
     /tmp/ccNtTakP.s:186    .text:0000000000000140 .L0 
     /tmp/ccNtTakP.s:188    .text:0000000000000144 .L0 
     /tmp/ccNtTakP.s:191    .text:0000000000000148 .L0 
     /tmp/ccNtTakP.s:192    .text:0000000000000148 .L0 
     /tmp/ccNtTakP.s:197    .text:0000000000000154 .L0 
     /tmp/ccNtTakP.s:198    .text:0000000000000154 .L0 
     /tmp/ccNtTakP.s:202    .text:0000000000000160 .L0 
     /tmp/ccNtTakP.s:203    .text:0000000000000160 .L0 
     /tmp/ccNtTakP.s:205    .text:0000000000000164 .L0 
     /tmp/ccNtTakP.s:207    .text:0000000000000168 .L0 
     /tmp/ccNtTakP.s:210    .text:0000000000000170 .L0 
     /tmp/ccNtTakP.s:213    .text:0000000000000174 .L0 
     /tmp/ccNtTakP.s:214    .text:0000000000000174 .L0 
     /tmp/ccNtTakP.s:216    .text:0000000000000178 .L0 
     /tmp/ccNtTakP.s:218    .text:000000000000017c .L0 
     /tmp/ccNtTakP.s:220    .text:0000000000000180 .L0 
     /tmp/ccNtTakP.s:222    .text:0000000000000184 .L0 
     /tmp/ccNtTakP.s:223    .text:0000000000000184 .L0 
     /tmp/ccNtTakP.s:227    .text:0000000000000190 .L0 
     /tmp/ccNtTakP.s:228    .text:0000000000000190 .L0 
     /tmp/ccNtTakP.s:232    .text:000000000000019c .L0 
     /tmp/ccNtTakP.s:233    .text:000000000000019c .L0 
     /tmp/ccNtTakP.s:235    .text:00000000000001a4 .L0 
     /tmp/ccNtTakP.s:237    .text:00000000000001a8 .L0 
     /tmp/ccNtTakP.s:238    .text:00000000000001a8 .L0 
     /tmp/ccNtTakP.s:240    .text:00000000000001ac .L0 
     /tmp/ccNtTakP.s:243    .text:00000000000001b0 .L0 
     /tmp/ccNtTakP.s:246    .text:00000000000001b4 .L0 
     /tmp/ccNtTakP.s:248    .text:00000000000001b8 .L0 
     /tmp/ccNtTakP.s:254    .text:00000000000001b8 _ZN6Buffer6getCntEv
     /tmp/ccNtTakP.s:257    .text:00000000000001b8 .L0 
     /tmp/ccNtTakP.s:259    .text:00000000000001b8 .L0 
     /tmp/ccNtTakP.s:260    .text:00000000000001bc .L0 
     /tmp/ccNtTakP.s:265    .text:00000000000001cc .L0 
     /tmp/ccNtTakP.s:266    .text:00000000000001cc .L0 
     /tmp/ccNtTakP.s:267    .text:00000000000001cc .L0 
     /tmp/ccNtTakP.s:268    .text:00000000000001cc .L0 
     /tmp/ccNtTakP.s:270    .text:00000000000001d0 .L0 
     /tmp/ccNtTakP.s:273    .text:00000000000001d4 .L0 
GAS LISTING /tmp/ccNtTakP.s 			page 14


     /tmp/ccNtTakP.s:274    .text:00000000000001d4 .L0 
     /tmp/ccNtTakP.s:275    .text:00000000000001d4 .L0 
     /tmp/ccNtTakP.s:280    .text:00000000000001e0 .L0 
     /tmp/ccNtTakP.s:281    .text:00000000000001e0 .L0 
     /tmp/ccNtTakP.s:285    .text:00000000000001ec .L0 
     /tmp/ccNtTakP.s:286    .text:00000000000001ec .L0 
     /tmp/ccNtTakP.s:288    .text:00000000000001f0 .L0 
     /tmp/ccNtTakP.s:290    .text:00000000000001f4 .L0 
     /tmp/ccNtTakP.s:292    .text:00000000000001f8 .L0 
     /tmp/ccNtTakP.s:293    .text:00000000000001f8 .L0 
     /tmp/ccNtTakP.s:297    .text:00000000000001fc .L0 
     /tmp/ccNtTakP.s:298    .text:00000000000001fc .L0 
     /tmp/ccNtTakP.s:302    .text:0000000000000208 .L0 
     /tmp/ccNtTakP.s:303    .text:0000000000000208 .L0 
     /tmp/ccNtTakP.s:307    .text:0000000000000214 .L0 
     /tmp/ccNtTakP.s:308    .text:0000000000000214 .L0 
     /tmp/ccNtTakP.s:310    .text:000000000000021c .L0 
     /tmp/ccNtTakP.s:311    .text:000000000000021c .L0 
     /tmp/ccNtTakP.s:313    .text:0000000000000220 .L0 
     /tmp/ccNtTakP.s:314    .text:0000000000000220 .L0 
     /tmp/ccNtTakP.s:316    .text:0000000000000224 .L0 
     /tmp/ccNtTakP.s:319    .text:0000000000000228 .L0 
     /tmp/ccNtTakP.s:322    .text:000000000000022c .L0 
     /tmp/ccNtTakP.s:326    .text:0000000000000230 .L0 
     /tmp/ccNtTakP.s:328    .text:0000000000000230 .L0 
     /tmp/ccNtTakP.s:329    .text:0000000000000230 .L0 
     /tmp/ccNtTakP.s:331    .text:0000000000000234 .L0 
     /tmp/ccNtTakP.s:333    .text:0000000000000238 .L0 
     /tmp/ccNtTakP.s:335    .text:0000000000000240 .L0 
     /tmp/ccNtTakP.s:346    .text:0000000000000240 _ZN6BufferD2Ev
     /tmp/ccNtTakP.s:349    .text:0000000000000240 .L0 
     /tmp/ccNtTakP.s:3076   .data.rel.local.DW.ref.__gxx_personality_v0:0000000000000000 DW.ref.__gxx_personality_v0
     /tmp/ccNtTakP.s:353    .text:0000000000000240 .L0 
     /tmp/ccNtTakP.s:354    .text:0000000000000244 .L0 
     /tmp/ccNtTakP.s:358    .text:0000000000000250 .L0 
     /tmp/ccNtTakP.s:359    .text:0000000000000250 .L0 
     /tmp/ccNtTakP.s:360    .text:0000000000000250 .L0 
     /tmp/ccNtTakP.s:362    .text:0000000000000254 .L0 
     /tmp/ccNtTakP.s:366    .text:0000000000000258 .L0 
     /tmp/ccNtTakP.s:367    .text:0000000000000258 .L0 
     /tmp/ccNtTakP.s:372    .text:0000000000000264 .L0 
     /tmp/ccNtTakP.s:373    .text:0000000000000264 .L0 
     /tmp/ccNtTakP.s:378    .text:0000000000000274 .L0 
     /tmp/ccNtTakP.s:379    .text:0000000000000274 .L0 
     /tmp/ccNtTakP.s:380    .text:0000000000000274 .L0 
     /tmp/ccNtTakP.s:384    .text:0000000000000280 .L0 
     /tmp/ccNtTakP.s:387    .text:0000000000000284 .L0 
     /tmp/ccNtTakP.s:388    .text:0000000000000284 .L0 
     /tmp/ccNtTakP.s:390    .text:0000000000000288 .L0 
     /tmp/ccNtTakP.s:392    .text:000000000000028c .L0 
     /tmp/ccNtTakP.s:396    .text:0000000000000294 .L0 
     /tmp/ccNtTakP.s:397    .text:0000000000000294 .L0 
     /tmp/ccNtTakP.s:401    .text:00000000000002a0 .L0 
     /tmp/ccNtTakP.s:402    .text:00000000000002a0 .L0 
     /tmp/ccNtTakP.s:404    .text:00000000000002a4 .L0 
     /tmp/ccNtTakP.s:406    .text:00000000000002a8 .L0 
     /tmp/ccNtTakP.s:408    .text:00000000000002ac .L0 
GAS LISTING /tmp/ccNtTakP.s 			page 15


     /tmp/ccNtTakP.s:410    .text:00000000000002b0 .L0 
     /tmp/ccNtTakP.s:413    .text:00000000000002b4 .L0 
     /tmp/ccNtTakP.s:416    .text:00000000000002b8 .L0 
     /tmp/ccNtTakP.s:417    .text:00000000000002b8 .L0 
     /tmp/ccNtTakP.s:421    .text:00000000000002c4 .L0 
     /tmp/ccNtTakP.s:422    .text:00000000000002c4 .L0 
     /tmp/ccNtTakP.s:426    .text:00000000000002d0 .L0 
     /tmp/ccNtTakP.s:427    .text:00000000000002d0 .L0 
     /tmp/ccNtTakP.s:431    .text:00000000000002dc .L0 
     /tmp/ccNtTakP.s:432    .text:00000000000002dc .L0 
     /tmp/ccNtTakP.s:436    .text:00000000000002e8 .L0 
     /tmp/ccNtTakP.s:437    .text:00000000000002e8 .L0 
     /tmp/ccNtTakP.s:441    .text:00000000000002f4 .L0 
     /tmp/ccNtTakP.s:442    .text:00000000000002f4 .L0 
     /tmp/ccNtTakP.s:446    .text:0000000000000300 .L0 
     /tmp/ccNtTakP.s:447    .text:0000000000000300 .L0 
     /tmp/ccNtTakP.s:452    .text:000000000000030c .L0 
     /tmp/ccNtTakP.s:453    .text:0000000000000310 .L0 
     /tmp/ccNtTakP.s:455    .text:0000000000000314 .L0 
     /tmp/ccNtTakP.s:456    .text:0000000000000314 .L0 
     /tmp/ccNtTakP.s:458    .text:0000000000000318 .L0 
     /tmp/ccNtTakP.s:461    .text:000000000000031c .L0 
     /tmp/ccNtTakP.s:463    .text:0000000000000320 .L0 
     /tmp/ccNtTakP.s:346    .text:0000000000000240 _ZN6BufferD1Ev
     /tmp/ccNtTakP.s:483    .text:0000000000000320 .L0 
     /tmp/ccNtTakP.s:340    .rodata.str1.8:0000000000000000 .LC0
     /tmp/ccNtTakP.s:373    .text:0000000000000264 .L0 
     /tmp/ccNtTakP.s:325    .text:0000000000000230 .L8
     /tmp/ccNtTakP.s:295    .text:00000000000001fc .L9
     /tmp/ccNtTakP.s:414    .text:00000000000002b8 .L12
     /tmp/ccNtTakP.s:376    .text:0000000000000274 .L13
     /tmp/ccNtTakP.s:1669   .debug_abbrev:0000000000000000 .Ldebug_abbrev0
     /tmp/ccNtTakP.s:3022   .debug_str:0000000000000599 .LASF120
     /tmp/ccNtTakP.s:2886   .debug_str:00000000000001e6 .LASF121
     /tmp/ccNtTakP.s:3008   .debug_str:0000000000000521 .LASF122
     /tmp/ccNtTakP.s:5      .text:0000000000000000 .Ltext0
     /tmp/ccNtTakP.s:476    .text:0000000000000320 .Letext0
     /tmp/ccNtTakP.s:2808   .debug_line:0000000000000000 .Ldebug_line0
     /tmp/ccNtTakP.s:2946   .debug_str:00000000000003b1 .LASF0
     /tmp/ccNtTakP.s:2968   .debug_str:0000000000000427 .LASF1
     /tmp/ccNtTakP.s:2926   .debug_str:0000000000000341 .LASF2
     /tmp/ccNtTakP.s:2902   .debug_str:0000000000000298 .LASF4
     /tmp/ccNtTakP.s:3010   .debug_str:0000000000000547 .LASF3
     /tmp/ccNtTakP.s:2830   .debug_str:0000000000000077 .LASF5
     /tmp/ccNtTakP.s:2972   .debug_str:0000000000000441 .LASF6
     /tmp/ccNtTakP.s:2944   .debug_str:000000000000039e .LASF7
     /tmp/ccNtTakP.s:3036   .debug_str:00000000000006a7 .LASF8
     /tmp/ccNtTakP.s:2890   .debug_str:0000000000000211 .LASF9
     /tmp/ccNtTakP.s:2986   .debug_str:0000000000000485 .LASF10
     /tmp/ccNtTakP.s:3024   .debug_str:000000000000065d .LASF11
     /tmp/ccNtTakP.s:2836   .debug_str:000000000000009d .LASF12
     /tmp/ccNtTakP.s:2814   .debug_str:0000000000000010 .LASF13
     /tmp/ccNtTakP.s:2842   .debug_str:00000000000000cc .LASF14
     /tmp/ccNtTakP.s:3002   .debug_str:00000000000004da .LASF15
     /tmp/ccNtTakP.s:2852   .debug_str:00000000000000fd .LASF16
     /tmp/ccNtTakP.s:3046   .debug_str:00000000000006ec .LASF43
     /tmp/ccNtTakP.s:3026   .debug_str:000000000000066c .LASF123
GAS LISTING /tmp/ccNtTakP.s 			page 16


     /tmp/ccNtTakP.s:2984   .debug_str:000000000000047f .LASF17
     /tmp/ccNtTakP.s:3014   .debug_str:0000000000000563 .LASF18
     /tmp/ccNtTakP.s:2964   .debug_str:0000000000000419 .LASF19
     /tmp/ccNtTakP.s:2904   .debug_str:000000000000029f .LASF20
     /tmp/ccNtTakP.s:2980   .debug_str:0000000000000469 .LASF21
     /tmp/ccNtTakP.s:2820   .debug_str:000000000000003d .LASF124
     /tmp/ccNtTakP.s:3048   .debug_str:00000000000006f4 .LASF26
     /tmp/ccNtTakP.s:2962   .debug_str:0000000000000409 .LASF28
     /tmp/ccNtTakP.s:2864   .debug_str:0000000000000166 .LASF22
     /tmp/ccNtTakP.s:2948   .debug_str:00000000000003be .LASF24
     /tmp/ccNtTakP.s:3018   .debug_str:000000000000057c .LASF23
     /tmp/ccNtTakP.s:2990   .debug_str:000000000000049e .LASF25
     /tmp/ccNtTakP.s:2910   .debug_str:00000000000002c4 .LASF27
     /tmp/ccNtTakP.s:3050   .debug_str:0000000000000701 .LASF29
     /tmp/ccNtTakP.s:2994   .debug_str:00000000000004b4 .LASF125
     /tmp/ccNtTakP.s:2950   .debug_str:00000000000003cf .LASF39
     /tmp/ccNtTakP.s:3004   .debug_str:00000000000004f0 .LASF41
     /tmp/ccNtTakP.s:2812   .debug_str:0000000000000006 .LASF73
     /tmp/ccNtTakP.s:2822   .debug_str:0000000000000045 .LASF75
     /tmp/ccNtTakP.s:2928   .debug_str:000000000000034f .LASF30
     /tmp/ccNtTakP.s:3056   .debug_str:0000000000000743 .LASF31
     /tmp/ccNtTakP.s:2960   .debug_str:0000000000000404 .LASF32
     /tmp/ccNtTakP.s:3030   .debug_str:0000000000000682 .LASF36
     /tmp/ccNtTakP.s:2942   .debug_str:0000000000000399 .LASF33
     /tmp/ccNtTakP.s:2870   .debug_str:0000000000000182 .LASF34
     /tmp/ccNtTakP.s:2838   .debug_str:00000000000000ad .LASF35
     /tmp/ccNtTakP.s:3062   .debug_str:0000000000000777 .LASF37
     /tmp/ccNtTakP.s:2970   .debug_str:000000000000043a .LASF38
     /tmp/ccNtTakP.s:2934   .debug_str:000000000000037a .LASF40
     /tmp/ccNtTakP.s:3068   .debug_str:00000000000007a5 .LASF42
     /tmp/ccNtTakP.s:2858   .debug_str:0000000000000123 .LASF44
     /tmp/ccNtTakP.s:2936   .debug_str:0000000000000380 .LASF45
     /tmp/ccNtTakP.s:3060   .debug_str:0000000000000767 .LASF46
     /tmp/ccNtTakP.s:2850   .debug_str:00000000000000f5 .LASF47
     /tmp/ccNtTakP.s:2880   .debug_str:00000000000001be .LASF49
     /tmp/ccNtTakP.s:2998   .debug_str:00000000000004c8 .LASF48
     /tmp/ccNtTakP.s:3006   .debug_str:0000000000000507 .LASF50
     /tmp/ccNtTakP.s:2908   .debug_str:00000000000002ac .LASF51
     /tmp/ccNtTakP.s:2906   .debug_str:00000000000002a7 .LASF52
     /tmp/ccNtTakP.s:2956   .debug_str:00000000000003f7 .LASF53
     /tmp/ccNtTakP.s:2954   .debug_str:00000000000003f1 .LASF54
     /tmp/ccNtTakP.s:2958   .debug_str:00000000000003fc .LASF55
     /tmp/ccNtTakP.s:3044   .debug_str:00000000000006de .LASF63
     /tmp/ccNtTakP.s:2898   .debug_str:000000000000025d .LASF64
     /tmp/ccNtTakP.s:2914   .debug_str:00000000000002e5 .LASF126
     /tmp/ccNtTakP.s:2974   .debug_str:0000000000000454 .LASF56
     /tmp/ccNtTakP.s:2834   .debug_str:0000000000000086 .LASF57
     /tmp/ccNtTakP.s:2966   .debug_str:000000000000041f .LASF58
     /tmp/ccNtTakP.s:3032   .debug_str:000000000000068c .LASF59
     /tmp/ccNtTakP.s:2878   .debug_str:00000000000001b9 .LASF60
     /tmp/ccNtTakP.s:2940   .debug_str:000000000000038e .LASF61
     /tmp/ccNtTakP.s:2894   .debug_str:000000000000023b .LASF62
     /tmp/ccNtTakP.s:3038   .debug_str:00000000000006b7 .LASF65
     /tmp/ccNtTakP.s:2828   .debug_str:000000000000006e .LASF66
     /tmp/ccNtTakP.s:2882   .debug_str:00000000000001d4 .LASF67
     /tmp/ccNtTakP.s:2866   .debug_str:0000000000000176 .LASF68
     /tmp/ccNtTakP.s:3064   .debug_str:000000000000077c .LASF69
GAS LISTING /tmp/ccNtTakP.s 			page 17


     /tmp/ccNtTakP.s:2832   .debug_str:000000000000007e .LASF70
     /tmp/ccNtTakP.s:2840   .debug_str:00000000000000b2 .LASF71
     /tmp/ccNtTakP.s:2918   .debug_str:000000000000030a .LASF72
     /tmp/ccNtTakP.s:2876   .debug_str:00000000000001b4 .LASF74
     /tmp/ccNtTakP.s:2930   .debug_str:000000000000035b .LASF76
     /tmp/ccNtTakP.s:2978   .debug_str:0000000000000462 .LASF77
     /tmp/ccNtTakP.s:2862   .debug_str:000000000000014d .LASF78
     /tmp/ccNtTakP.s:3034   .debug_str:00000000000006a2 .LASF79
     /tmp/ccNtTakP.s:2888   .debug_str:00000000000001f6 .LASF80
     /tmp/ccNtTakP.s:2810   .debug_str:0000000000000000 .LASF81
     /tmp/ccNtTakP.s:2860   .debug_str:0000000000000133 .LASF82
     /tmp/ccNtTakP.s:2868   .debug_str:000000000000017c .LASF83
     /tmp/ccNtTakP.s:3052   .debug_str:0000000000000729 .LASF84
     /tmp/ccNtTakP.s:3000   .debug_str:00000000000004d3 .LASF85
     /tmp/ccNtTakP.s:2856   .debug_str:000000000000011e .LASF86
     /tmp/ccNtTakP.s:2922   .debug_str:000000000000032d .LASF87
     /tmp/ccNtTakP.s:2924   .debug_str:0000000000000332 .LASF88
     /tmp/ccNtTakP.s:2896   .debug_str:000000000000024f .LASF89
     /tmp/ccNtTakP.s:2826   .debug_str:0000000000000064 .LASF90
     /tmp/ccNtTakP.s:2846   .debug_str:00000000000000dd .LASF91
     /tmp/ccNtTakP.s:2996   .debug_str:00000000000004b9 .LASF92
     /tmp/ccNtTakP.s:3016   .debug_str:000000000000056c .LASF93
     /tmp/ccNtTakP.s:2874   .debug_str:00000000000001a5 .LASF94
     /tmp/ccNtTakP.s:2932   .debug_str:0000000000000372 .LASF95
     /tmp/ccNtTakP.s:2900   .debug_str:0000000000000289 .LASF96
     /tmp/ccNtTakP.s:3066   .debug_str:0000000000000794 .LASF127
     /tmp/ccNtTakP.s:2816   .debug_str:0000000000000020 .LASF128
     /tmp/ccNtTakP.s:2824   .debug_str:000000000000005d .LASF97
     /tmp/ccNtTakP.s:2912   .debug_str:00000000000002d1 .LASF98
     /tmp/ccNtTakP.s:255    .text:00000000000001b8 .LFB22
     /tmp/ccNtTakP.s:336    .text:0000000000000240 .LFE22
     /tmp/ccNtTakP.s:2992   .debug_str:00000000000004af .LASF99
     /tmp/ccNtTakP.s:2647   .debug_loc:0000000000000000 .LLST6
     /tmp/ccNtTakP.s:2669   .debug_loc:000000000000005f .LLST7
     /tmp/ccNtTakP.s:278    .text:00000000000001e0 .LVL26
     /tmp/ccNtTakP.s:283    .text:00000000000001ec .LVL27
     /tmp/ccNtTakP.s:300    .text:0000000000000208 .LVL29
     /tmp/ccNtTakP.s:305    .text:0000000000000214 .LVL30
     /tmp/ccNtTakP.s:173    .text:000000000000012c .LFB21
     /tmp/ccNtTakP.s:249    .text:00000000000001b8 .LFE21
     /tmp/ccNtTakP.s:2676   .debug_loc:0000000000000082 .LLST4
     /tmp/ccNtTakP.s:2694   .debug_loc:00000000000000ce .LLST5
     /tmp/ccNtTakP.s:195    .text:0000000000000154 .LVL17
     /tmp/ccNtTakP.s:200    .text:0000000000000160 .LVL18
     /tmp/ccNtTakP.s:225    .text:0000000000000190 .LVL20
     /tmp/ccNtTakP.s:230    .text:000000000000019c .LVL21
     /tmp/ccNtTakP.s:93     .text:000000000000009c .LFB20
     /tmp/ccNtTakP.s:167    .text:000000000000012c .LFE20
     /tmp/ccNtTakP.s:2705   .debug_loc:0000000000000104 .LLST2
     /tmp/ccNtTakP.s:2723   .debug_loc:0000000000000150 .LLST3
     /tmp/ccNtTakP.s:116    .text:00000000000000c8 .LVL10
     /tmp/ccNtTakP.s:121    .text:00000000000000d4 .LVL11
     /tmp/ccNtTakP.s:146    .text:0000000000000108 .LVL12
     /tmp/ccNtTakP.s:151    .text:0000000000000114 .LVL13
     /tmp/ccNtTakP.s:2988   .debug_str:0000000000000494 .LASF100
     /tmp/ccNtTakP.s:2976   .debug_str:000000000000045d .LASF101
     /tmp/ccNtTakP.s:3028   .debug_str:0000000000000673 .LASF102
GAS LISTING /tmp/ccNtTakP.s 			page 18


     /tmp/ccNtTakP.s:347    .text:0000000000000240 .LFB18
     /tmp/ccNtTakP.s:464    .text:0000000000000320 .LFE18
     /tmp/ccNtTakP.s:2737   .debug_loc:0000000000000189 .LLST8
     /tmp/ccNtTakP.s:399    .text:00000000000002a0 .LVL40
     /tmp/ccNtTakP.s:385    .text:0000000000000284 .LBB4
     /tmp/ccNtTakP.s:411    .text:00000000000002b4 .LBE4
     /tmp/ccNtTakP.s:2755   .debug_loc:00000000000001d5 .LLST9
     /tmp/ccNtTakP.s:370    .text:0000000000000264 .LVL36
     /tmp/ccNtTakP.s:375    .text:0000000000000274 .LVL37
     /tmp/ccNtTakP.s:382    .text:0000000000000280 .LVL38
     /tmp/ccNtTakP.s:419    .text:00000000000002c4 .LVL41
     /tmp/ccNtTakP.s:424    .text:00000000000002d0 .LVL42
     /tmp/ccNtTakP.s:429    .text:00000000000002dc .LVL43
     /tmp/ccNtTakP.s:434    .text:00000000000002e8 .LVL44
     /tmp/ccNtTakP.s:439    .text:00000000000002f4 .LVL45
     /tmp/ccNtTakP.s:444    .text:0000000000000300 .LVL46
     /tmp/ccNtTakP.s:449    .text:000000000000030c .LVL47
     /tmp/ccNtTakP.s:2844   .debug_str:00000000000000d8 .LASF129
     /tmp/ccNtTakP.s:2920   .debug_str:000000000000031e .LASF103
     /tmp/ccNtTakP.s:10     .text:0000000000000000 .LFB15
     /tmp/ccNtTakP.s:85     .text:000000000000009c .LFE15
     /tmp/ccNtTakP.s:2763   .debug_loc:00000000000001f9 .LLST0
     /tmp/ccNtTakP.s:2781   .debug_loc:0000000000000245 .LLST1
     /tmp/ccNtTakP.s:42     .text:0000000000000040 .LVL2
     /tmp/ccNtTakP.s:50     .text:0000000000000054 .LVL3
     /tmp/ccNtTakP.s:56     .text:0000000000000064 .LVL4
     /tmp/ccNtTakP.s:62     .text:0000000000000074 .LVL5
     /tmp/ccNtTakP.s:68     .text:0000000000000084 .LVL6
     /tmp/ccNtTakP.s:2952   .debug_str:00000000000003d8 .LASF104
     /tmp/ccNtTakP.s:3042   .debug_str:00000000000006d5 .LASF106
     /tmp/ccNtTakP.s:2892   .debug_str:000000000000021f .LASF105
     /tmp/ccNtTakP.s:2854   .debug_str:0000000000000113 .LASF107
     /tmp/ccNtTakP.s:2884   .debug_str:00000000000001dd .LASF108
     /tmp/ccNtTakP.s:2938   .debug_str:0000000000000389 .LASF109
     /tmp/ccNtTakP.s:3054   .debug_str:0000000000000730 .LASF110
     /tmp/ccNtTakP.s:2818   .debug_str:0000000000000031 .LASF111
     /tmp/ccNtTakP.s:2982   .debug_str:0000000000000471 .LASF112
     /tmp/ccNtTakP.s:3058   .debug_str:000000000000075e .LASF113
     /tmp/ccNtTakP.s:2916   .debug_str:00000000000002f0 .LASF114
     /tmp/ccNtTakP.s:3020   .debug_str:000000000000058f .LASF115
     /tmp/ccNtTakP.s:2848   .debug_str:00000000000000e7 .LASF116
     /tmp/ccNtTakP.s:3012   .debug_str:0000000000000559 .LASF117
     /tmp/ccNtTakP.s:2872   .debug_str:000000000000018a .LASF118
     /tmp/ccNtTakP.s:3040   .debug_str:00000000000006cc .LASF119
     /tmp/ccNtTakP.s:258    .text:00000000000001b8 .LVL24
     /tmp/ccNtTakP.s:276    .text:00000000000001d8 .LVL25
     /tmp/ccNtTakP.s:317    .text:0000000000000224 .LVL31
     /tmp/ccNtTakP.s:324    .text:0000000000000230 .LVL33
     /tmp/ccNtTakP.s:294    .text:00000000000001fc .LVL28
     /tmp/ccNtTakP.s:320    .text:0000000000000228 .LVL32
     /tmp/ccNtTakP.s:176    .text:000000000000012c .LVL15
     /tmp/ccNtTakP.s:193    .text:000000000000014c .LVL16
     /tmp/ccNtTakP.s:241    .text:00000000000001ac .LVL22
     /tmp/ccNtTakP.s:211    .text:0000000000000174 .LVL19
     /tmp/ccNtTakP.s:244    .text:00000000000001b0 .LVL23
     /tmp/ccNtTakP.s:96     .text:000000000000009c .LVL8
     /tmp/ccNtTakP.s:114    .text:00000000000000c0 .LVL9
GAS LISTING /tmp/ccNtTakP.s 			page 19


     /tmp/ccNtTakP.s:160    .text:0000000000000120 .LVL14
     /tmp/ccNtTakP.s:352    .text:0000000000000240 .LVL34
     /tmp/ccNtTakP.s:368    .text:000000000000025c .LVL35
     /tmp/ccNtTakP.s:459    .text:0000000000000318 .LVL48
     /tmp/ccNtTakP.s:394    .text:0000000000000294 .LVL39
     /tmp/ccNtTakP.s:14     .text:0000000000000000 .LVL0
     /tmp/ccNtTakP.s:33     .text:0000000000000028 .LVL1
     /tmp/ccNtTakP.s:78     .text:0000000000000090 .LVL7
     /tmp/ccNtTakP.s:484    .debug_info:0000000000000000 .Ldebug_info0
     /tmp/ccNtTakP.s:467    .gcc_except_table:0000000000000000 .LLSDA18

UNDEFINED SYMBOLS
_Z9mem_allocm
_Z8sem_openPP10CSemaphorej
_Z8sem_waitP10CSemaphore
_Z10sem_signalP10CSemaphore
_Z4putcc
_Z11printStringPKc
_Z8mem_freePv
_Z9sem_closeP10CSemaphore
__gxx_personality_v0
